Archive member included because of file (symbol)

/usr/local/ps3dev/ppu/lib/libgcm_sys.a(sprx.o)
                              rsxutil.o (gcmSetFlip)
/usr/local/ps3dev/ppu/lib/librsx.a(init.o)
                              rsxutil.o (rsxInit)
/usr/local/ps3dev/ppu/lib/librsx.a(buffer.o)
                              rsxutil.o (rsxFlushBuffer)
/usr/local/ps3dev/ppu/lib/librsx.a(commands.o)
                              /usr/local/ps3dev/ppu/lib/librsx.a(buffer.o) (rsxSetJumpCommandUnsafe)
/usr/local/ps3dev/ppu/lib/librsx.a(mm.o)
                              /usr/local/ps3dev/ppu/lib/librsx.a(init.o) (rsxHeapInit)
/usr/local/ps3dev/ppu/lib/librsx.a(vertex_program.o)
                              /usr/local/ps3dev/ppu/lib/librsx.a(commands.o) (rsxVertexProgramGetConsts)
/usr/local/ps3dev/ppu/lib/librsx.a(fragment_program.o)
                              /usr/local/ps3dev/ppu/lib/librsx.a(commands.o) (rsxFragmentProgramGetConstOffsetTable)
/usr/local/ps3dev/ppu/lib/librsx.a(rsx_internal.o)
                              /usr/local/ps3dev/ppu/lib/librsx.a(vertex_program.o) (__rsxGetAttrs)
/usr/local/ps3dev/ppu/lib/libsysutil.a(sprx.o)
                              rsxutil.o (videoConfigure)
/usr/local/ps3dev/ppu/lib/libio.a(sprx.o)
                              main.o (ioPadInit)
/usr/local/ps3dev/ppu/lib/librt.a(sbrk.o)
                              /usr/local/ps3dev/ppu/lib/gcc/powerpc64-ps3-elf/7.2.0/../../../../powerpc64-ps3-elf/lib/lv2-crt0.o (__librt_sbrk_r)
/usr/local/ps3dev/ppu/lib/librt.a(exit.o)
                              /usr/local/ps3dev/ppu/lib/gcc/powerpc64-ps3-elf/7.2.0/../../../../powerpc64-ps3-elf/lib/lv2-crt0.o (__librt_exit)
/usr/local/ps3dev/ppu/lib/librt.a(close.o)
                              /usr/local/ps3dev/ppu/lib/gcc/powerpc64-ps3-elf/7.2.0/../../../../powerpc64-ps3-elf/lib/lv2-crt0.o (__librt_close_r)
/usr/local/ps3dev/ppu/lib/librt.a(lseek.o)
                              /usr/local/ps3dev/ppu/lib/gcc/powerpc64-ps3-elf/7.2.0/../../../../powerpc64-ps3-elf/lib/lv2-crt0.o (__librt_lseek_r)
/usr/local/ps3dev/ppu/lib/librt.a(read.o)
                              /usr/local/ps3dev/ppu/lib/gcc/powerpc64-ps3-elf/7.2.0/../../../../powerpc64-ps3-elf/lib/lv2-crt0.o (__librt_read_r)
/usr/local/ps3dev/ppu/lib/librt.a(open.o)
                              /usr/local/ps3dev/ppu/lib/gcc/powerpc64-ps3-elf/7.2.0/../../../../powerpc64-ps3-elf/lib/lv2-crt0.o (__librt_open_r)
/usr/local/ps3dev/ppu/lib/librt.a(sleep.o)
                              /usr/local/ps3dev/ppu/lib/gcc/powerpc64-ps3-elf/7.2.0/../../../../powerpc64-ps3-elf/lib/lv2-crt0.o (__librt_usleep_r)
/usr/local/ps3dev/ppu/lib/librt.a(write.o)
                              /usr/local/ps3dev/ppu/lib/gcc/powerpc64-ps3-elf/7.2.0/../../../../powerpc64-ps3-elf/lib/lv2-crt0.o (__librt_write_r)
/usr/local/ps3dev/ppu/lib/librt.a(fstat.o)
                              /usr/local/ps3dev/ppu/lib/gcc/powerpc64-ps3-elf/7.2.0/../../../../powerpc64-ps3-elf/lib/lv2-crt0.o (__librt_fstat_r)
/usr/local/ps3dev/ppu/lib/librt.a(socket.o)
                              /usr/local/ps3dev/ppu/lib/librt.a(write.o) (send)
/usr/local/ps3dev/ppu/lib/librt.a(lock.o)
                              /usr/local/ps3dev/ppu/lib/gcc/powerpc64-ps3-elf/7.2.0/../../../../powerpc64-ps3-elf/lib/lv2-crt0.o (__librt_sys_lwmutex_create_r)
/usr/local/ps3dev/ppu/lib/librt.a(dirent.o)
                              /usr/local/ps3dev/ppu/lib/gcc/powerpc64-ps3-elf/7.2.0/../../../../powerpc64-ps3-elf/lib/lv2-crt0.o (__librt_opendir_r)
/usr/local/ps3dev/ppu/lib/librt.a(mkdir.o)
                              /usr/local/ps3dev/ppu/lib/gcc/powerpc64-ps3-elf/7.2.0/../../../../powerpc64-ps3-elf/lib/lv2-crt0.o (__librt_mkdir_r)
/usr/local/ps3dev/ppu/lib/librt.a(times.o)
                              /usr/local/ps3dev/ppu/lib/gcc/powerpc64-ps3-elf/7.2.0/../../../../powerpc64-ps3-elf/lib/lv2-crt0.o (__librt_times_r)
/usr/local/ps3dev/ppu/lib/librt.a(umask.o)
                              /usr/local/ps3dev/ppu/lib/gcc/powerpc64-ps3-elf/7.2.0/../../../../powerpc64-ps3-elf/lib/lv2-crt0.o (__librt_umask_r)
/usr/local/ps3dev/ppu/lib/librt.a(lv2errno.o)
                              /usr/local/ps3dev/ppu/lib/librt.a(socket.o) (lv2errno)
/usr/local/ps3dev/ppu/lib/librt.a(heap.o)
                              /usr/local/ps3dev/ppu/lib/librsx.a(mm.o) (heapInit)
/usr/local/ps3dev/ppu/lib/librt.a(chmod.o)
                              /usr/local/ps3dev/ppu/lib/gcc/powerpc64-ps3-elf/7.2.0/../../../../powerpc64-ps3-elf/lib/lv2-crt0.o (__librt_chmod_r)
/usr/local/ps3dev/ppu/lib/librt.a(rename.o)
                              /usr/local/ps3dev/ppu/lib/gcc/powerpc64-ps3-elf/7.2.0/../../../../powerpc64-ps3-elf/lib/lv2-crt0.o (__librt_rename_r)
/usr/local/ps3dev/ppu/lib/librt.a(rmdir.o)
                              /usr/local/ps3dev/ppu/lib/gcc/powerpc64-ps3-elf/7.2.0/../../../../powerpc64-ps3-elf/lib/lv2-crt0.o (__librt_rmdir_r)
/usr/local/ps3dev/ppu/lib/librt.a(isatty.o)
                              /usr/local/ps3dev/ppu/lib/gcc/powerpc64-ps3-elf/7.2.0/../../../../powerpc64-ps3-elf/lib/lv2-crt0.o (__librt_isatty_r)
/usr/local/ps3dev/ppu/lib/librt.a(gettod.o)
                              /usr/local/ps3dev/ppu/lib/gcc/powerpc64-ps3-elf/7.2.0/../../../../powerpc64-ps3-elf/lib/lv2-crt0.o (__librt_gettod_r)
/usr/local/ps3dev/ppu/lib/librt.a(settod.o)
                              /usr/local/ps3dev/ppu/lib/gcc/powerpc64-ps3-elf/7.2.0/../../../../powerpc64-ps3-elf/lib/lv2-crt0.o (__librt_settod_r)
/usr/local/ps3dev/ppu/lib/librt.a(unlink.o)
                              /usr/local/ps3dev/ppu/lib/gcc/powerpc64-ps3-elf/7.2.0/../../../../powerpc64-ps3-elf/lib/lv2-crt0.o (__librt_unlink_r)
/usr/local/ps3dev/ppu/lib/librt.a(link.o)
                              /usr/local/ps3dev/ppu/lib/gcc/powerpc64-ps3-elf/7.2.0/../../../../powerpc64-ps3-elf/lib/lv2-crt0.o (__librt_link_r)
/usr/local/ps3dev/ppu/lib/librt.a(truncate.o)
                              /usr/local/ps3dev/ppu/lib/gcc/powerpc64-ps3-elf/7.2.0/../../../../powerpc64-ps3-elf/lib/lv2-crt0.o (__librt_truncate_r)
/usr/local/ps3dev/ppu/lib/librt.a(fsync.o)
                              /usr/local/ps3dev/ppu/lib/gcc/powerpc64-ps3-elf/7.2.0/../../../../powerpc64-ps3-elf/lib/lv2-crt0.o (__librt_fsync_r)
/usr/local/ps3dev/ppu/lib/librt.a(utime.o)
                              /usr/local/ps3dev/ppu/lib/gcc/powerpc64-ps3-elf/7.2.0/../../../../powerpc64-ps3-elf/lib/lv2-crt0.o (__librt_utime_r)
/usr/local/ps3dev/ppu/lib/librt.a(globfile.o)
                              /usr/local/ps3dev/ppu/lib/gcc/powerpc64-ps3-elf/7.2.0/../../../../powerpc64-ps3-elf/lib/lv2-crt0.o (__librt_chdir_r)
/usr/local/ps3dev/ppu/lib/liblv2.a(sprx.o)
                              /usr/local/ps3dev/ppu/lib/librt.a(sbrk.o) (sysSpinlockInitialize)
/usr/local/ps3dev/ppu/lib/gcc/powerpc64-ps3-elf/7.2.0/../../../../powerpc64-ps3-elf/lib/libsysbase.a(syscalls.o)
                              /usr/local/ps3dev/ppu/lib/gcc/powerpc64-ps3-elf/7.2.0/../../../../powerpc64-ps3-elf/lib/lv2-crt0.o (__syscalls)
/usr/local/ps3dev/ppu/lib/gcc/powerpc64-ps3-elf/7.2.0/../../../../powerpc64-ps3-elf/lib/libsysbase.a(sleep.o)
                              rsxutil.o (usleep)
/usr/local/ps3dev/ppu/lib/gcc/powerpc64-ps3-elf/7.2.0/../../../../powerpc64-ps3-elf/lib/libc.a(lib_a-calloc.o)
                              /usr/local/ps3dev/ppu/lib/librt.a(dirent.o) (calloc)
/usr/local/ps3dev/ppu/lib/gcc/powerpc64-ps3-elf/7.2.0/../../../../powerpc64-ps3-elf/lib/libc.a(lib_a-callocr.o)
                              /usr/local/ps3dev/ppu/lib/gcc/powerpc64-ps3-elf/7.2.0/../../../../powerpc64-ps3-elf/lib/libc.a(lib_a-calloc.o) (_calloc_r)
/usr/local/ps3dev/ppu/lib/gcc/powerpc64-ps3-elf/7.2.0/../../../../powerpc64-ps3-elf/lib/libc.a(lib_a-errno.o)
                              /usr/local/ps3dev/ppu/lib/librt.a(socket.o) (__errno)
/usr/local/ps3dev/ppu/lib/gcc/powerpc64-ps3-elf/7.2.0/../../../../powerpc64-ps3-elf/lib/libc.a(lib_a-exit.o)
                              /usr/local/ps3dev/ppu/lib/gcc/powerpc64-ps3-elf/7.2.0/../../../../powerpc64-ps3-elf/lib/lv2-crt0.o (exit)
/usr/local/ps3dev/ppu/lib/gcc/powerpc64-ps3-elf/7.2.0/../../../../powerpc64-ps3-elf/lib/libc.a(lib_a-fclose.o)
                              main.o (fclose)
/usr/local/ps3dev/ppu/lib/gcc/powerpc64-ps3-elf/7.2.0/../../../../powerpc64-ps3-elf/lib/libc.a(lib_a-fflush.o)
                              /usr/local/ps3dev/ppu/lib/gcc/powerpc64-ps3-elf/7.2.0/../../../../powerpc64-ps3-elf/lib/libc.a(lib_a-fclose.o) (_fflush_r)
/usr/local/ps3dev/ppu/lib/gcc/powerpc64-ps3-elf/7.2.0/../../../../powerpc64-ps3-elf/lib/libc.a(lib_a-findfp.o)
                              /usr/local/ps3dev/ppu/lib/gcc/powerpc64-ps3-elf/7.2.0/../../../../powerpc64-ps3-elf/lib/libc.a(lib_a-fclose.o) (__sinit)
/usr/local/ps3dev/ppu/lib/gcc/powerpc64-ps3-elf/7.2.0/../../../../powerpc64-ps3-elf/lib/libc.a(lib_a-fopen.o)
                              main.o (fopen)
/usr/local/ps3dev/ppu/lib/gcc/powerpc64-ps3-elf/7.2.0/../../../../powerpc64-ps3-elf/lib/libc.a(lib_a-fread.o)
                              main.o (fread)
/usr/local/ps3dev/ppu/lib/gcc/powerpc64-ps3-elf/7.2.0/../../../../powerpc64-ps3-elf/lib/libc.a(lib_a-freer.o)
                              /usr/local/ps3dev/ppu/lib/gcc/powerpc64-ps3-elf/7.2.0/../../../../powerpc64-ps3-elf/lib/libc.a(lib_a-fclose.o) (_free_r)
/usr/local/ps3dev/ppu/lib/gcc/powerpc64-ps3-elf/7.2.0/../../../../powerpc64-ps3-elf/lib/libc.a(lib_a-fseek.o)
                              /usr/local/ps3dev/ppu/lib/gcc/powerpc64-ps3-elf/7.2.0/../../../../powerpc64-ps3-elf/lib/libc.a(lib_a-fopen.o) (_fseek_r)
/usr/local/ps3dev/ppu/lib/gcc/powerpc64-ps3-elf/7.2.0/../../../../powerpc64-ps3-elf/lib/libc.a(lib_a-ftell.o)
                              main.o (ftell)
/usr/local/ps3dev/ppu/lib/gcc/powerpc64-ps3-elf/7.2.0/../../../../powerpc64-ps3-elf/lib/libc.a(lib_a-fwalk.o)
                              /usr/local/ps3dev/ppu/lib/gcc/powerpc64-ps3-elf/7.2.0/../../../../powerpc64-ps3-elf/lib/libc.a(lib_a-findfp.o) (_fwalk)
/usr/local/ps3dev/ppu/lib/gcc/powerpc64-ps3-elf/7.2.0/../../../../powerpc64-ps3-elf/lib/libc.a(lib_a-getreent.o)
                              /usr/local/ps3dev/ppu/lib/gcc/powerpc64-ps3-elf/7.2.0/../../../../powerpc64-ps3-elf/lib/libsysbase.a(sleep.o) (__getreent)
/usr/local/ps3dev/ppu/lib/gcc/powerpc64-ps3-elf/7.2.0/../../../../powerpc64-ps3-elf/lib/libc.a(lib_a-impure.o)
                              /usr/local/ps3dev/ppu/lib/gcc/powerpc64-ps3-elf/7.2.0/../../../../powerpc64-ps3-elf/lib/libc.a(lib_a-exit.o) (_global_impure_ptr)
/usr/local/ps3dev/ppu/lib/gcc/powerpc64-ps3-elf/7.2.0/../../../../powerpc64-ps3-elf/lib/libc.a(lib_a-lock_recursive.o)
                              /usr/local/ps3dev/ppu/lib/gcc/powerpc64-ps3-elf/7.2.0/../../../../powerpc64-ps3-elf/lib/libc.a(lib_a-findfp.o) (__libc_lock_init_recursive)
/usr/local/ps3dev/ppu/lib/gcc/powerpc64-ps3-elf/7.2.0/../../../../powerpc64-ps3-elf/lib/libc.a(lib_a-makebuf.o)
                              /usr/local/ps3dev/ppu/lib/gcc/powerpc64-ps3-elf/7.2.0/../../../../powerpc64-ps3-elf/lib/libc.a(lib_a-fseek.o) (__smakebuf_r)
/usr/local/ps3dev/ppu/lib/gcc/powerpc64-ps3-elf/7.2.0/../../../../powerpc64-ps3-elf/lib/libc.a(lib_a-malign.o)
                              main.o (memalign)
/usr/local/ps3dev/ppu/lib/gcc/powerpc64-ps3-elf/7.2.0/../../../../powerpc64-ps3-elf/lib/libc.a(lib_a-malignr.o)
                              /usr/local/ps3dev/ppu/lib/gcc/powerpc64-ps3-elf/7.2.0/../../../../powerpc64-ps3-elf/lib/libc.a(lib_a-malign.o) (_memalign_r)
/usr/local/ps3dev/ppu/lib/gcc/powerpc64-ps3-elf/7.2.0/../../../../powerpc64-ps3-elf/lib/libc.a(lib_a-malloc.o)
                              main.o (malloc)
/usr/local/ps3dev/ppu/lib/gcc/powerpc64-ps3-elf/7.2.0/../../../../powerpc64-ps3-elf/lib/libc.a(lib_a-mallocr.o)
                              /usr/local/ps3dev/ppu/lib/gcc/powerpc64-ps3-elf/7.2.0/../../../../powerpc64-ps3-elf/lib/libc.a(lib_a-callocr.o) (_malloc_r)
/usr/local/ps3dev/ppu/lib/gcc/powerpc64-ps3-elf/7.2.0/../../../../powerpc64-ps3-elf/lib/libc.a(lib_a-memcpy.o)
                              main.o (memcpy)
/usr/local/ps3dev/ppu/lib/gcc/powerpc64-ps3-elf/7.2.0/../../../../powerpc64-ps3-elf/lib/libc.a(lib_a-memset.o)
                              main.o (memset)
/usr/local/ps3dev/ppu/lib/gcc/powerpc64-ps3-elf/7.2.0/../../../../powerpc64-ps3-elf/lib/libc.a(lib_a-mlock.o)
                              /usr/local/ps3dev/ppu/lib/gcc/powerpc64-ps3-elf/7.2.0/../../../../powerpc64-ps3-elf/lib/libc.a(lib_a-freer.o) (__malloc_lock)
/usr/local/ps3dev/ppu/lib/gcc/powerpc64-ps3-elf/7.2.0/../../../../powerpc64-ps3-elf/lib/libc.a(lib_a-printf.o)
                              main.o (printf)
/usr/local/ps3dev/ppu/lib/gcc/powerpc64-ps3-elf/7.2.0/../../../../powerpc64-ps3-elf/lib/libc.a(lib_a-puts.o)
                              main.o (puts)
/usr/local/ps3dev/ppu/lib/gcc/powerpc64-ps3-elf/7.2.0/../../../../powerpc64-ps3-elf/lib/libc.a(lib_a-realloc.o)
                              /usr/local/ps3dev/ppu/lib/librt.a(globfile.o) (realloc)
/usr/local/ps3dev/ppu/lib/gcc/powerpc64-ps3-elf/7.2.0/../../../../powerpc64-ps3-elf/lib/libc.a(lib_a-reallocr.o)
                              /usr/local/ps3dev/ppu/lib/gcc/powerpc64-ps3-elf/7.2.0/../../../../powerpc64-ps3-elf/lib/libc.a(lib_a-realloc.o) (_realloc_r)
/usr/local/ps3dev/ppu/lib/gcc/powerpc64-ps3-elf/7.2.0/../../../../powerpc64-ps3-elf/lib/libc.a(lib_a-refill.o)
                              /usr/local/ps3dev/ppu/lib/gcc/powerpc64-ps3-elf/7.2.0/../../../../powerpc64-ps3-elf/lib/libc.a(lib_a-fread.o) (__srefill_r)
/usr/local/ps3dev/ppu/lib/gcc/powerpc64-ps3-elf/7.2.0/../../../../powerpc64-ps3-elf/lib/libc.a(lib_a-rewind.o)
                              main.o (rewind)
/usr/local/ps3dev/ppu/lib/gcc/powerpc64-ps3-elf/7.2.0/../../../../powerpc64-ps3-elf/lib/libc.a(lib_a-sscanf.o)
                              /usr/local/ps3dev/ppu/lib/librt.a(socket.o) (sscanf)
/usr/local/ps3dev/ppu/lib/gcc/powerpc64-ps3-elf/7.2.0/../../../../powerpc64-ps3-elf/lib/libc.a(lib_a-stdio.o)
                              /usr/local/ps3dev/ppu/lib/gcc/powerpc64-ps3-elf/7.2.0/../../../../powerpc64-ps3-elf/lib/libc.a(lib_a-findfp.o) (__sread)
/usr/local/ps3dev/ppu/lib/gcc/powerpc64-ps3-elf/7.2.0/../../../../powerpc64-ps3-elf/lib/libc.a(lib_a-strcasecmp.o)
                              /usr/local/ps3dev/ppu/lib/librsx.a(rsx_internal.o) (strcasecmp)
/usr/local/ps3dev/ppu/lib/gcc/powerpc64-ps3-elf/7.2.0/../../../../powerpc64-ps3-elf/lib/libc.a(lib_a-strchr.o)
                              /usr/local/ps3dev/ppu/lib/librt.a(globfile.o) (strchr)
/usr/local/ps3dev/ppu/lib/gcc/powerpc64-ps3-elf/7.2.0/../../../../powerpc64-ps3-elf/lib/libc.a(lib_a-strcpy.o)
                              /usr/local/ps3dev/ppu/lib/librt.a(globfile.o) (strcpy)
/usr/local/ps3dev/ppu/lib/gcc/powerpc64-ps3-elf/7.2.0/../../../../powerpc64-ps3-elf/lib/libc.a(lib_a-strdup.o)
                              /usr/local/ps3dev/ppu/lib/librt.a(globfile.o) (strdup)
/usr/local/ps3dev/ppu/lib/gcc/powerpc64-ps3-elf/7.2.0/../../../../powerpc64-ps3-elf/lib/libc.a(lib_a-strdup_r.o)
                              /usr/local/ps3dev/ppu/lib/gcc/powerpc64-ps3-elf/7.2.0/../../../../powerpc64-ps3-elf/lib/libc.a(lib_a-strdup.o) (_strdup_r)
/usr/local/ps3dev/ppu/lib/gcc/powerpc64-ps3-elf/7.2.0/../../../../powerpc64-ps3-elf/lib/libc.a(lib_a-strlen.o)
                              /usr/local/ps3dev/ppu/lib/librt.a(globfile.o) (strlen)
/usr/local/ps3dev/ppu/lib/gcc/powerpc64-ps3-elf/7.2.0/../../../../powerpc64-ps3-elf/lib/libc.a(lib_a-strncat.o)
                              /usr/local/ps3dev/ppu/lib/librt.a(globfile.o) (strncat)
/usr/local/ps3dev/ppu/lib/gcc/powerpc64-ps3-elf/7.2.0/../../../../powerpc64-ps3-elf/lib/libc.a(lib_a-strncpy.o)
                              /usr/local/ps3dev/ppu/lib/librt.a(dirent.o) (strncpy)
/usr/local/ps3dev/ppu/lib/gcc/powerpc64-ps3-elf/7.2.0/../../../../powerpc64-ps3-elf/lib/libc.a(lib_a-svfscanf.o)
                              /usr/local/ps3dev/ppu/lib/gcc/powerpc64-ps3-elf/7.2.0/../../../../powerpc64-ps3-elf/lib/libc.a(lib_a-sscanf.o) (__ssvfscanf_r)
/usr/local/ps3dev/ppu/lib/gcc/powerpc64-ps3-elf/7.2.0/../../../../powerpc64-ps3-elf/lib/libc.a(lib_a-time.o)
                              /usr/local/ps3dev/ppu/lib/librt.a(utime.o) (time)
/usr/local/ps3dev/ppu/lib/gcc/powerpc64-ps3-elf/7.2.0/../../../../powerpc64-ps3-elf/lib/libc.a(lib_a-vfprintf.o)
                              /usr/local/ps3dev/ppu/lib/gcc/powerpc64-ps3-elf/7.2.0/../../../../powerpc64-ps3-elf/lib/libc.a(lib_a-printf.o) (_vfprintf_r)
/usr/local/ps3dev/ppu/lib/gcc/powerpc64-ps3-elf/7.2.0/../../../../powerpc64-ps3-elf/lib/libc.a(lib_a-wsetup.o)
                              /usr/local/ps3dev/ppu/lib/gcc/powerpc64-ps3-elf/7.2.0/../../../../powerpc64-ps3-elf/lib/libc.a(lib_a-vfprintf.o) (__swsetup_r)
/usr/local/ps3dev/ppu/lib/gcc/powerpc64-ps3-elf/7.2.0/../../../../powerpc64-ps3-elf/lib/libc.a(lib_a-__call_atexit.o)
                              /usr/local/ps3dev/ppu/lib/gcc/powerpc64-ps3-elf/7.2.0/../../../../powerpc64-ps3-elf/lib/libc.a(lib_a-exit.o) (__call_exitprocs)
/usr/local/ps3dev/ppu/lib/gcc/powerpc64-ps3-elf/7.2.0/../../../../powerpc64-ps3-elf/lib/libc.a(lib_a-ctype_.o)
                              /usr/local/ps3dev/ppu/lib/gcc/powerpc64-ps3-elf/7.2.0/../../../../powerpc64-ps3-elf/lib/libc.a(lib_a-strcasecmp.o) (__ctype_ptr__)
/usr/local/ps3dev/ppu/lib/gcc/powerpc64-ps3-elf/7.2.0/../../../../powerpc64-ps3-elf/lib/libc.a(lib_a-dtoa.o)
                              /usr/local/ps3dev/ppu/lib/gcc/powerpc64-ps3-elf/7.2.0/../../../../powerpc64-ps3-elf/lib/libc.a(lib_a-vfprintf.o) (_dtoa_r)
/usr/local/ps3dev/ppu/lib/gcc/powerpc64-ps3-elf/7.2.0/../../../../powerpc64-ps3-elf/lib/libc.a(lib_a-flags.o)
                              /usr/local/ps3dev/ppu/lib/gcc/powerpc64-ps3-elf/7.2.0/../../../../powerpc64-ps3-elf/lib/libc.a(lib_a-fopen.o) (__sflags)
/usr/local/ps3dev/ppu/lib/gcc/powerpc64-ps3-elf/7.2.0/../../../../powerpc64-ps3-elf/lib/libc.a(lib_a-fvwrite.o)
                              /usr/local/ps3dev/ppu/lib/gcc/powerpc64-ps3-elf/7.2.0/../../../../powerpc64-ps3-elf/lib/libc.a(lib_a-puts.o) (__sfvwrite_r)
/usr/local/ps3dev/ppu/lib/gcc/powerpc64-ps3-elf/7.2.0/../../../../powerpc64-ps3-elf/lib/libc.a(lib_a-iswspace.o)
                              /usr/local/ps3dev/ppu/lib/gcc/powerpc64-ps3-elf/7.2.0/../../../../powerpc64-ps3-elf/lib/libc.a(lib_a-svfscanf.o) (iswspace)
/usr/local/ps3dev/ppu/lib/gcc/powerpc64-ps3-elf/7.2.0/../../../../powerpc64-ps3-elf/lib/libc.a(lib_a-locale.o)
                              /usr/local/ps3dev/ppu/lib/gcc/powerpc64-ps3-elf/7.2.0/../../../../powerpc64-ps3-elf/lib/libc.a(lib_a-svfscanf.o) (__locale_mb_cur_max)
/usr/local/ps3dev/ppu/lib/gcc/powerpc64-ps3-elf/7.2.0/../../../../powerpc64-ps3-elf/lib/libc.a(lib_a-lock_internal.o)
                              /usr/local/ps3dev/ppu/lib/gcc/powerpc64-ps3-elf/7.2.0/../../../../powerpc64-ps3-elf/lib/libc.a(lib_a-lock_recursive.o) (__libc_auto_lock_allocate)
/usr/local/ps3dev/ppu/lib/gcc/powerpc64-ps3-elf/7.2.0/../../../../powerpc64-ps3-elf/lib/libc.a(lib_a-mbrtowc.o)
                              /usr/local/ps3dev/ppu/lib/gcc/powerpc64-ps3-elf/7.2.0/../../../../powerpc64-ps3-elf/lib/libc.a(lib_a-svfscanf.o) (_mbrtowc_r)
/usr/local/ps3dev/ppu/lib/gcc/powerpc64-ps3-elf/7.2.0/../../../../powerpc64-ps3-elf/lib/libc.a(lib_a-mbtowc_r.o)
                              /usr/local/ps3dev/ppu/lib/gcc/powerpc64-ps3-elf/7.2.0/../../../../powerpc64-ps3-elf/lib/libc.a(lib_a-mbrtowc.o) (__mbtowc)
/usr/local/ps3dev/ppu/lib/gcc/powerpc64-ps3-elf/7.2.0/../../../../powerpc64-ps3-elf/lib/libc.a(lib_a-memchr.o)
                              /usr/local/ps3dev/ppu/lib/gcc/powerpc64-ps3-elf/7.2.0/../../../../powerpc64-ps3-elf/lib/libc.a(lib_a-vfprintf.o) (memchr)
/usr/local/ps3dev/ppu/lib/gcc/powerpc64-ps3-elf/7.2.0/../../../../powerpc64-ps3-elf/lib/libc.a(lib_a-memmove.o)
                              /usr/local/ps3dev/ppu/lib/gcc/powerpc64-ps3-elf/7.2.0/../../../../powerpc64-ps3-elf/lib/libc.a(lib_a-reallocr.o) (memmove)
/usr/local/ps3dev/ppu/lib/gcc/powerpc64-ps3-elf/7.2.0/../../../../powerpc64-ps3-elf/lib/libc.a(lib_a-mprec.o)
                              /usr/local/ps3dev/ppu/lib/gcc/powerpc64-ps3-elf/7.2.0/../../../../powerpc64-ps3-elf/lib/libc.a(lib_a-dtoa.o) (_Balloc)
/usr/local/ps3dev/ppu/lib/gcc/powerpc64-ps3-elf/7.2.0/../../../../powerpc64-ps3-elf/lib/libc.a(lib_a-sccl.o)
                              /usr/local/ps3dev/ppu/lib/gcc/powerpc64-ps3-elf/7.2.0/../../../../powerpc64-ps3-elf/lib/libc.a(lib_a-svfscanf.o) (__sccl)
/usr/local/ps3dev/ppu/lib/gcc/powerpc64-ps3-elf/7.2.0/../../../../powerpc64-ps3-elf/lib/libc.a(lib_a-sf_nan.o)
                              /usr/local/ps3dev/ppu/lib/gcc/powerpc64-ps3-elf/7.2.0/../../../../powerpc64-ps3-elf/lib/libc.a(lib_a-svfscanf.o) (nanf)
/usr/local/ps3dev/ppu/lib/gcc/powerpc64-ps3-elf/7.2.0/../../../../powerpc64-ps3-elf/lib/libc.a(lib_a-s_fpclassify.o)
                              /usr/local/ps3dev/ppu/lib/gcc/powerpc64-ps3-elf/7.2.0/../../../../powerpc64-ps3-elf/lib/libc.a(lib_a-svfscanf.o) (__fpclassifyd)
/usr/local/ps3dev/ppu/lib/gcc/powerpc64-ps3-elf/7.2.0/../../../../powerpc64-ps3-elf/lib/libc.a(lib_a-sprintf.o)
                              /usr/local/ps3dev/ppu/lib/gcc/powerpc64-ps3-elf/7.2.0/../../../../powerpc64-ps3-elf/lib/libc.a(lib_a-svfscanf.o) (sprintf)
/usr/local/ps3dev/ppu/lib/gcc/powerpc64-ps3-elf/7.2.0/../../../../powerpc64-ps3-elf/lib/libc.a(lib_a-strcmp.o)
                              /usr/local/ps3dev/ppu/lib/gcc/powerpc64-ps3-elf/7.2.0/../../../../powerpc64-ps3-elf/lib/libc.a(lib_a-locale.o) (strcmp)
/usr/local/ps3dev/ppu/lib/gcc/powerpc64-ps3-elf/7.2.0/../../../../powerpc64-ps3-elf/lib/libc.a(lib_a-strtod.o)
                              /usr/local/ps3dev/ppu/lib/gcc/powerpc64-ps3-elf/7.2.0/../../../../powerpc64-ps3-elf/lib/libc.a(lib_a-svfscanf.o) (_strtod_r)
/usr/local/ps3dev/ppu/lib/gcc/powerpc64-ps3-elf/7.2.0/../../../../powerpc64-ps3-elf/lib/libc.a(lib_a-strtoll_r.o)
                              /usr/local/ps3dev/ppu/lib/gcc/powerpc64-ps3-elf/7.2.0/../../../../powerpc64-ps3-elf/lib/libc.a(lib_a-svfscanf.o) (_strtoll_r)
/usr/local/ps3dev/ppu/lib/gcc/powerpc64-ps3-elf/7.2.0/../../../../powerpc64-ps3-elf/lib/libc.a(lib_a-strtol.o)
                              /usr/local/ps3dev/ppu/lib/gcc/powerpc64-ps3-elf/7.2.0/../../../../powerpc64-ps3-elf/lib/libc.a(lib_a-svfscanf.o) (_strtol_r)
/usr/local/ps3dev/ppu/lib/gcc/powerpc64-ps3-elf/7.2.0/../../../../powerpc64-ps3-elf/lib/libc.a(lib_a-strtoull_r.o)
                              /usr/local/ps3dev/ppu/lib/gcc/powerpc64-ps3-elf/7.2.0/../../../../powerpc64-ps3-elf/lib/libc.a(lib_a-svfscanf.o) (_strtoull_r)
/usr/local/ps3dev/ppu/lib/gcc/powerpc64-ps3-elf/7.2.0/../../../../powerpc64-ps3-elf/lib/libc.a(lib_a-strtoul.o)
                              /usr/local/ps3dev/ppu/lib/gcc/powerpc64-ps3-elf/7.2.0/../../../../powerpc64-ps3-elf/lib/libc.a(lib_a-svfscanf.o) (_strtoul_r)
/usr/local/ps3dev/ppu/lib/gcc/powerpc64-ps3-elf/7.2.0/../../../../powerpc64-ps3-elf/lib/libc.a(lib_a-svfiscanf.o)
                              /usr/local/ps3dev/ppu/lib/gcc/powerpc64-ps3-elf/7.2.0/../../../../powerpc64-ps3-elf/lib/libc.a(lib_a-svfscanf.o) (_sungetc_r)
/usr/local/ps3dev/ppu/lib/gcc/powerpc64-ps3-elf/7.2.0/../../../../powerpc64-ps3-elf/lib/libc.a(lib_a-svfprintf.o)
                              /usr/local/ps3dev/ppu/lib/gcc/powerpc64-ps3-elf/7.2.0/../../../../powerpc64-ps3-elf/lib/libc.a(lib_a-sprintf.o) (_svfprintf_r)
/usr/local/ps3dev/ppu/lib/gcc/powerpc64-ps3-elf/7.2.0/../../../../powerpc64-ps3-elf/lib/libc.a(lib_a-ungetc.o)
                              /usr/local/ps3dev/ppu/lib/gcc/powerpc64-ps3-elf/7.2.0/../../../../powerpc64-ps3-elf/lib/libc.a(lib_a-svfiscanf.o) (__submore)
/usr/local/ps3dev/ppu/lib/gcc/powerpc64-ps3-elf/7.2.0/../../../../powerpc64-ps3-elf/lib/libc.a(lib_a-vfiprintf.o)
                              /usr/local/ps3dev/ppu/lib/gcc/powerpc64-ps3-elf/7.2.0/../../../../powerpc64-ps3-elf/lib/libc.a(lib_a-vfprintf.o) (__sprint_r)
/usr/local/ps3dev/ppu/lib/gcc/powerpc64-ps3-elf/7.2.0/../../../../powerpc64-ps3-elf/lib/libc.a(lib_a-abort.o)
                              /usr/local/ps3dev/ppu/lib/gcc/powerpc64-ps3-elf/7.2.0/../../../../powerpc64-ps3-elf/lib/libc.a(lib_a-lock_internal.o) (abort)
/usr/local/ps3dev/ppu/lib/gcc/powerpc64-ps3-elf/7.2.0/../../../../powerpc64-ps3-elf/lib/libc.a(lib_a-__atexit.o)
                              /usr/local/ps3dev/ppu/lib/gcc/powerpc64-ps3-elf/7.2.0/../../../../powerpc64-ps3-elf/lib/libc.a(lib_a-__call_atexit.o) (__atexit_lock)
/usr/local/ps3dev/ppu/lib/gcc/powerpc64-ps3-elf/7.2.0/../../../../powerpc64-ps3-elf/lib/libc.a(lib_a-fputwc.o)
                              /usr/local/ps3dev/ppu/lib/gcc/powerpc64-ps3-elf/7.2.0/../../../../powerpc64-ps3-elf/lib/libc.a(lib_a-vfiprintf.o) (_fputwc_r)
/usr/local/ps3dev/ppu/lib/gcc/powerpc64-ps3-elf/7.2.0/../../../../powerpc64-ps3-elf/lib/libc.a(lib_a-gdtoa-gethex.o)
                              /usr/local/ps3dev/ppu/lib/gcc/powerpc64-ps3-elf/7.2.0/../../../../powerpc64-ps3-elf/lib/libc.a(lib_a-strtod.o) (__gethex)
/usr/local/ps3dev/ppu/lib/gcc/powerpc64-ps3-elf/7.2.0/../../../../powerpc64-ps3-elf/lib/libc.a(lib_a-gdtoa-hexnan.o)
                              /usr/local/ps3dev/ppu/lib/gcc/powerpc64-ps3-elf/7.2.0/../../../../powerpc64-ps3-elf/lib/libc.a(lib_a-strtod.o) (__hexnan)
/usr/local/ps3dev/ppu/lib/gcc/powerpc64-ps3-elf/7.2.0/../../../../powerpc64-ps3-elf/lib/libc.a(lib_a-signal.o)
                              /usr/local/ps3dev/ppu/lib/gcc/powerpc64-ps3-elf/7.2.0/../../../../powerpc64-ps3-elf/lib/libc.a(lib_a-abort.o) (raise)
/usr/local/ps3dev/ppu/lib/gcc/powerpc64-ps3-elf/7.2.0/../../../../powerpc64-ps3-elf/lib/libc.a(lib_a-strncmp.o)
                              /usr/local/ps3dev/ppu/lib/gcc/powerpc64-ps3-elf/7.2.0/../../../../powerpc64-ps3-elf/lib/libc.a(lib_a-strtod.o) (strncmp)
/usr/local/ps3dev/ppu/lib/gcc/powerpc64-ps3-elf/7.2.0/../../../../powerpc64-ps3-elf/lib/libc.a(lib_a-svfiprintf.o)
                              /usr/local/ps3dev/ppu/lib/gcc/powerpc64-ps3-elf/7.2.0/../../../../powerpc64-ps3-elf/lib/libc.a(lib_a-svfprintf.o) (__ssprint_r)
/usr/local/ps3dev/ppu/lib/gcc/powerpc64-ps3-elf/7.2.0/../../../../powerpc64-ps3-elf/lib/libc.a(lib_a-wbuf.o)
                              /usr/local/ps3dev/ppu/lib/gcc/powerpc64-ps3-elf/7.2.0/../../../../powerpc64-ps3-elf/lib/libc.a(lib_a-fputwc.o) (__swbuf_r)
/usr/local/ps3dev/ppu/lib/gcc/powerpc64-ps3-elf/7.2.0/../../../../powerpc64-ps3-elf/lib/libc.a(lib_a-wcrtomb.o)
                              /usr/local/ps3dev/ppu/lib/gcc/powerpc64-ps3-elf/7.2.0/../../../../powerpc64-ps3-elf/lib/libc.a(lib_a-fputwc.o) (_wcrtomb_r)
/usr/local/ps3dev/ppu/lib/gcc/powerpc64-ps3-elf/7.2.0/../../../../powerpc64-ps3-elf/lib/libc.a(lib_a-wctomb_r.o)
                              /usr/local/ps3dev/ppu/lib/gcc/powerpc64-ps3-elf/7.2.0/../../../../powerpc64-ps3-elf/lib/libc.a(lib_a-wcrtomb.o) (__wctomb)
/usr/local/ps3dev/ppu/lib/gcc/powerpc64-ps3-elf/7.2.0/../../../../powerpc64-ps3-elf/lib/libsysbase.a(close.o)
                              /usr/local/ps3dev/ppu/lib/gcc/powerpc64-ps3-elf/7.2.0/../../../../powerpc64-ps3-elf/lib/libc.a(lib_a-stdio.o) (_close_r)
/usr/local/ps3dev/ppu/lib/gcc/powerpc64-ps3-elf/7.2.0/../../../../powerpc64-ps3-elf/lib/libsysbase.a(sbrk.o)
                              /usr/local/ps3dev/ppu/lib/gcc/powerpc64-ps3-elf/7.2.0/../../../../powerpc64-ps3-elf/lib/libc.a(lib_a-freer.o) (_sbrk_r)
/usr/local/ps3dev/ppu/lib/gcc/powerpc64-ps3-elf/7.2.0/../../../../powerpc64-ps3-elf/lib/libsysbase.a(_exit.o)
                              /usr/local/ps3dev/ppu/lib/gcc/powerpc64-ps3-elf/7.2.0/../../../../powerpc64-ps3-elf/lib/libc.a(lib_a-exit.o) (_exit)
/usr/local/ps3dev/ppu/lib/gcc/powerpc64-ps3-elf/7.2.0/../../../../powerpc64-ps3-elf/lib/libsysbase.a(fstat.o)
                              /usr/local/ps3dev/ppu/lib/gcc/powerpc64-ps3-elf/7.2.0/../../../../powerpc64-ps3-elf/lib/libc.a(lib_a-fseek.o) (_fstat_r)
/usr/local/ps3dev/ppu/lib/gcc/powerpc64-ps3-elf/7.2.0/../../../../powerpc64-ps3-elf/lib/libsysbase.a(isatty.o)
                              /usr/local/ps3dev/ppu/lib/gcc/powerpc64-ps3-elf/7.2.0/../../../../powerpc64-ps3-elf/lib/libc.a(lib_a-makebuf.o) (_isatty_r)
/usr/local/ps3dev/ppu/lib/gcc/powerpc64-ps3-elf/7.2.0/../../../../powerpc64-ps3-elf/lib/libsysbase.a(lseek.o)
                              /usr/local/ps3dev/ppu/lib/gcc/powerpc64-ps3-elf/7.2.0/../../../../powerpc64-ps3-elf/lib/libc.a(lib_a-stdio.o) (_lseek_r)
/usr/local/ps3dev/ppu/lib/gcc/powerpc64-ps3-elf/7.2.0/../../../../powerpc64-ps3-elf/lib/libsysbase.a(open.o)
                              /usr/local/ps3dev/ppu/lib/gcc/powerpc64-ps3-elf/7.2.0/../../../../powerpc64-ps3-elf/lib/libc.a(lib_a-fopen.o) (_open_r)
/usr/local/ps3dev/ppu/lib/gcc/powerpc64-ps3-elf/7.2.0/../../../../powerpc64-ps3-elf/lib/libsysbase.a(read.o)
                              /usr/local/ps3dev/ppu/lib/gcc/powerpc64-ps3-elf/7.2.0/../../../../powerpc64-ps3-elf/lib/libc.a(lib_a-stdio.o) (_read_r)
/usr/local/ps3dev/ppu/lib/gcc/powerpc64-ps3-elf/7.2.0/../../../../powerpc64-ps3-elf/lib/libsysbase.a(write.o)
                              /usr/local/ps3dev/ppu/lib/gcc/powerpc64-ps3-elf/7.2.0/../../../../powerpc64-ps3-elf/lib/libc.a(lib_a-stdio.o) (_write_r)
/usr/local/ps3dev/ppu/lib/gcc/powerpc64-ps3-elf/7.2.0/../../../../powerpc64-ps3-elf/lib/libsysbase.a(lock.o)
                              /usr/local/ps3dev/ppu/lib/gcc/powerpc64-ps3-elf/7.2.0/../../../../powerpc64-ps3-elf/lib/libc.a(lib_a-lock_recursive.o) (sys_lwmutex_create)
/usr/local/ps3dev/ppu/lib/gcc/powerpc64-ps3-elf/7.2.0/../../../../powerpc64-ps3-elf/lib/libsysbase.a(getpid.o)
                              /usr/local/ps3dev/ppu/lib/gcc/powerpc64-ps3-elf/7.2.0/../../../../powerpc64-ps3-elf/lib/libc.a(lib_a-signal.o) (_getpid_r)
/usr/local/ps3dev/ppu/lib/gcc/powerpc64-ps3-elf/7.2.0/../../../../powerpc64-ps3-elf/lib/libsysbase.a(kill.o)
                              /usr/local/ps3dev/ppu/lib/gcc/powerpc64-ps3-elf/7.2.0/../../../../powerpc64-ps3-elf/lib/libc.a(lib_a-signal.o) (_kill_r)
/usr/local/ps3dev/ppu/lib/gcc/powerpc64-ps3-elf/7.2.0/../../../../powerpc64-ps3-elf/lib/libsysbase.a(gettod.o)
                              /usr/local/ps3dev/ppu/lib/gcc/powerpc64-ps3-elf/7.2.0/../../../../powerpc64-ps3-elf/lib/libc.a(lib_a-time.o) (_gettimeofday_r)

Allocating common symbols
Common symbol       size              file

fragShader          0x8               main.o
buffers             0x40              main.o
vertexProgram       0x24              main.o
texture_buffer      0x8               main.o
shader              0x8               main.o
texture_offset      0x4               main.o
__hexdig            0x100             /usr/local/ps3dev/ppu/lib/gcc/powerpc64-ps3-elf/7.2.0/../../../../powerpc64-ps3-elf/lib/libc.a(lib_a-gdtoa-gethex.o)
path_buffer         0x100             main.o
context             0x8               main.o
currentBuffer       0x4               main.o
fragmentProgram     0x24              main.o
testSurface         0x3c              main.o
backgroundTexture   0x18              main.o

Memory Configuration

Name             Origin             Length             Attributes
*default*        0x0000000000000000 0xffffffffffffffff

Linker script and memory map

                0x0000000000010000                PROVIDE (__executable_start, 0x10000)
                0x0000000000010200                . = (0x10000 + SIZEOF_HEADERS)

.interp
 *(.interp)

.hash
 *(.hash)

.dynsym
 *(.dynsym)

.dynstr
 *(.dynstr)

.gnu.version
 *(.gnu.version)

.gnu.version_d
 *(.gnu.version_d)

.gnu.version_r
 *(.gnu.version_r)

.rel.dyn
 *(.rel.init)
 *(.rel.text .rel.text.* .rel.gnu.linkonce.t.*)
 *(.rel.fini)
 *(.rel.rodata .rel.rodata.* .rel.gnu.linkonce.r.*)
 *(.rel.data.rel.ro*)
 *(.rel.data .rel.data.* .rel.gnu.linkonce.d.*)
 *(.rel.tdata .rel.tdata.* .rel.gnu.linkonce.td.*)
 *(.rel.tbss .rel.tbss.* .rel.gnu.linkonce.tb.*)
 *(.rel.ctors)
 *(.rel.dtors)
 *(.rel.got)
 *(.rel.sdata .rel.sdata.* .rel.gnu.linkonce.s.*)
 *(.rel.sbss .rel.sbss.* .rel.gnu.linkonce.sb.*)
 *(.rel.sdata2 .rel.sdata2.* .rel.gnu.linkonce.s2.*)
 *(.rel.sbss2 .rel.sbss2.* .rel.gnu.linkonce.sb2.*)
 *(.rel.bss .rel.bss.* .rel.gnu.linkonce.b.*)

.rela.dyn       0x0000000000010200        0x0
 *(.rela.init)
 *(.rela.text .rela.text.* .rela.gnu.linkonce.t.*)
 *(.rela.fini)
 *(.rela.rodata .rela.rodata.* .rela.gnu.linkonce.r.*)
 *(.rela.data .rela.data.* .rela.gnu.linkonce.d.*)
 *(.rela.tdata .rela.tdata.* .rela.gnu.linkonce.td.*)
 *(.rela.tbss .rela.tbss.* .rela.gnu.linkonce.tb.*)
 *(.rela.ctors)
 *(.rela.dtors)
 *(.rela.got)
 *(.rela.toc)
 .rela.toc      0x0000000000000000        0x0 linker stubs
 *(.rela.sdata .rela.sdata.* .rela.gnu.linkonce.s.*)
 *(.rela.sbss .rela.sbss.* .rela.gnu.linkonce.sb.*)
 *(.rela.sdata2 .rela.sdata2.* .rela.gnu.linkonce.s2.*)
 *(.rela.sbss2 .rela.sbss2.* .rela.gnu.linkonce.sb2.*)
 *(.rela.bss .rela.bss.* .rela.gnu.linkonce.b.*)
 .rela.iplt     0x0000000000000000        0x0 linker stubs
 .rela.sys_proc_prx_param
                0x0000000000000000        0x0 linker stubs

.rel.plt
 *(.rel.plt)

.rela.plt
 *(.rela.plt)

.rela.tocbss
 *(.rela.tocbss)

.init           0x0000000000010200       0x2c
 *(.init)
 .init          0x0000000000010200        0xc /usr/local/ps3dev/ppu/lib/gcc/powerpc64-ps3-elf/7.2.0/../../../../powerpc64-ps3-elf/lib/lv2-crti.o
                0x0000000000010200                ._init
 .init          0x000000000001020c        0x8 /usr/local/ps3dev/ppu/lib/gcc/powerpc64-ps3-elf/7.2.0/crtbegin.o
 .init          0x0000000000010214        0x8 /usr/local/ps3dev/ppu/lib/gcc/powerpc64-ps3-elf/7.2.0/crtend.o
 .init          0x000000000001021c       0x10 /usr/local/ps3dev/ppu/lib/gcc/powerpc64-ps3-elf/7.2.0/../../../../powerpc64-ps3-elf/lib/lv2-crtn.o

.text           0x0000000000010230    0x2a9d4
 *(.text .stub .text.* .gnu.linkonce.t.*)
 .text          0x0000000000010230        0x0 /usr/local/ps3dev/ppu/lib/gcc/powerpc64-ps3-elf/7.2.0/../../../../powerpc64-ps3-elf/lib/lv2-crti.o
 .text          0x0000000000010230        0x0 /usr/local/ps3dev/ppu/lib/gcc/powerpc64-ps3-elf/7.2.0/crtbegin.o
 .text.deregister_tm_clones
                0x0000000000010230       0x54 /usr/local/ps3dev/ppu/lib/gcc/powerpc64-ps3-elf/7.2.0/crtbegin.o
 *fill*         0x0000000000010284        0x4 60000000
 .text.register_tm_clones
                0x0000000000010288       0x60 /usr/local/ps3dev/ppu/lib/gcc/powerpc64-ps3-elf/7.2.0/crtbegin.o
 .text.__do_global_dtors_aux
                0x00000000000102e8       0xd4 /usr/local/ps3dev/ppu/lib/gcc/powerpc64-ps3-elf/7.2.0/crtbegin.o
 *fill*         0x00000000000103bc        0x4 60000000
 .text.frame_dummy
                0x00000000000103c0       0x38 /usr/local/ps3dev/ppu/lib/gcc/powerpc64-ps3-elf/7.2.0/crtbegin.o
 .text          0x00000000000103f8       0x58 /usr/local/ps3dev/ppu/lib/gcc/powerpc64-ps3-elf/7.2.0/../../../../powerpc64-ps3-elf/lib/lv2-crt0.o
                0x00000000000103f8                ._start
 .text.startup.__syscalls_init
                0x0000000000010450      0x180 /usr/local/ps3dev/ppu/lib/gcc/powerpc64-ps3-elf/7.2.0/../../../../powerpc64-ps3-elf/lib/lv2-crt0.o
 .text._initialize
                0x00000000000105d0       0x40 /usr/local/ps3dev/ppu/lib/gcc/powerpc64-ps3-elf/7.2.0/../../../../powerpc64-ps3-elf/lib/lv2-crt0.o
 .text          0x0000000000010610        0x0 /usr/local/ps3dev/ppu/lib/gcc/powerpc64-ps3-elf/7.2.0/../../../../powerpc64-ps3-elf/lib/lv2-sprx.o
 .text          0x0000000000010610        0x0 main.o
 .text.load_image_to_RSX
                0x0000000000010610      0x204 main.o
 *fill*         0x0000000000010814        0x4 60000000
 .text.drawFrame
                0x0000000000010818      0x104 main.o
 *fill*         0x000000000001091c        0x4 60000000
 .text.drawImage
                0x0000000000010920      0x11c main.o
 *fill*         0x0000000000010a3c        0x4 60000000
 .text.createTexture
                0x0000000000010a40      0x12c main.o
 *fill*         0x0000000000010b6c        0x4 60000000
 .text.loadShader
                0x0000000000010b70      0x1c0 main.o
 .text.createQuad
                0x0000000000010d30      0x188 main.o
 .text.init_texture
                0x0000000000010eb8       0xcc main.o
 *fill*         0x0000000000010f84        0x4 60000000
 .text.startup.main
                0x0000000000010f88      0x184 main.o
 .text          0x000000000001110c        0x0 rsxutil.o
 *fill*         0x000000000001110c        0x4 60000000
 .text.waitFlip
                0x0000000000011110       0x50 rsxutil.o
 .text.flip     0x0000000000011160       0x7c rsxutil.o
 *fill*         0x00000000000111dc        0x4 60000000
 .text.makeBuffer
                0x00000000000111e0      0x104 rsxutil.o
 *fill*         0x00000000000112e4        0x4 60000000
 .text.getResolution
                0x00000000000112e8       0xb8 rsxutil.o
 .text.initScreen
                0x00000000000113a0      0x20c rsxutil.o
 *fill*         0x00000000000115ac        0x4 60000000
 .text.setRenderTarget
                0x00000000000115b0       0xac rsxutil.o
 .text          0x000000000001165c        0x0 /usr/local/ps3dev/ppu/lib/libgcm_sys.a(sprx.o)
 .text          0x000000000001165c        0x0 /usr/local/ps3dev/ppu/lib/librsx.a(init.o)
 *fill*         0x000000000001165c        0x4 60000000
 .text.rsxInit  0x0000000000011660       0x9c /usr/local/ps3dev/ppu/lib/librsx.a(init.o)
 *fill*         0x00000000000116fc        0x4 60000000
 .text.rsxSetupContextData
                0x0000000000011700       0x48 /usr/local/ps3dev/ppu/lib/librsx.a(init.o)
 .text.rsxSetCurrentBuffer
                0x0000000000011748       0x48 /usr/local/ps3dev/ppu/lib/librsx.a(init.o)
 .text.rsxSetDefaultCommandBuffer
                0x0000000000011790       0x50 /usr/local/ps3dev/ppu/lib/librsx.a(init.o)
 .text.rsxSetUserCallback
                0x00000000000117e0       0x18 /usr/local/ps3dev/ppu/lib/librsx.a(init.o)
 .text.rsxGetCurrentBuffer
                0x00000000000117f8       0x1c /usr/local/ps3dev/ppu/lib/librsx.a(init.o)
 .text          0x0000000000011814        0x0 /usr/local/ps3dev/ppu/lib/librsx.a(buffer.o)
 *fill*         0x0000000000011814        0x4 60000000
 .text.rsxResetCommandBufferUnsafe
                0x0000000000011818       0x80 /usr/local/ps3dev/ppu/lib/librsx.a(buffer.o)
 .text.rsxFlushBufferUnsafe
                0x0000000000011898       0x78 /usr/local/ps3dev/ppu/lib/librsx.a(buffer.o)
 .text.rsxFinishUnsafe
                0x0000000000011910       0x84 /usr/local/ps3dev/ppu/lib/librsx.a(buffer.o)
 *fill*         0x0000000000011994        0x4 60000000
 .text.rsxResetCommandBuffer
                0x0000000000011998       0x80 /usr/local/ps3dev/ppu/lib/librsx.a(buffer.o)
 .text.rsxFlushBuffer
                0x0000000000011a18       0x10 /usr/local/ps3dev/ppu/lib/librsx.a(buffer.o)
 .text.rsxFinish
                0x0000000000011a28       0x84 /usr/local/ps3dev/ppu/lib/librsx.a(buffer.o)
 .text          0x0000000000011aac        0x0 /usr/local/ps3dev/ppu/lib/librsx.a(commands.o)
 *fill*         0x0000000000011aac        0x4 60000000
 .text.rsxSetReturnCommandUnsafe
                0x0000000000011ab0       0x24 /usr/local/ps3dev/ppu/lib/librsx.a(commands.o)
 *fill*         0x0000000000011ad4        0x4 60000000
 .text.rsxSetCallCommandUnsafe
                0x0000000000011ad8       0x24 /usr/local/ps3dev/ppu/lib/librsx.a(commands.o)
 *fill*         0x0000000000011afc        0x4 60000000
 .text.rsxSetJumpCommandUnsafe
                0x0000000000011b00       0x24 /usr/local/ps3dev/ppu/lib/librsx.a(commands.o)
 *fill*         0x0000000000011b24        0x4 60000000
 .text.rsxSetNopCommandUnsafe
                0x0000000000011b28       0x98 /usr/local/ps3dev/ppu/lib/librsx.a(commands.o)
 .text.rsxSetSkipNopUnsafe
                0x0000000000011bc0       0x34 /usr/local/ps3dev/ppu/lib/librsx.a(commands.o)
 *fill*         0x0000000000011bf4        0x4 60000000
 .text.rsxSetClearColorUnsafe
                0x0000000000011bf8       0x2c /usr/local/ps3dev/ppu/lib/librsx.a(commands.o)
 *fill*         0x0000000000011c24        0x4 60000000
 .text.rsxSetClearDepthStencilUnsafe
                0x0000000000011c28       0x2c /usr/local/ps3dev/ppu/lib/librsx.a(commands.o)
 *fill*         0x0000000000011c54        0x4 60000000
 .text.rsxSetReferenceCommandUnsafe
                0x0000000000011c58       0x2c /usr/local/ps3dev/ppu/lib/librsx.a(commands.o)
 *fill*         0x0000000000011c84        0x4 60000000
 .text.rsxSetWriteBackendLabelUnsafe
                0x0000000000011c88       0x58 /usr/local/ps3dev/ppu/lib/librsx.a(commands.o)
 .text.rsxSetWriteTextureLabelUnsafe
                0x0000000000011ce0       0x40 /usr/local/ps3dev/ppu/lib/librsx.a(commands.o)
 .text.rsxSetWaitLabelUnsafe
                0x0000000000011d20       0x40 /usr/local/ps3dev/ppu/lib/librsx.a(commands.o)
 .text.rsxSetWriteCommandLabelUnsafe
                0x0000000000011d60       0x40 /usr/local/ps3dev/ppu/lib/librsx.a(commands.o)
 .text.rsxSetSurfaceUnsafe
                0x0000000000011da0      0x1cc /usr/local/ps3dev/ppu/lib/librsx.a(commands.o)
 *fill*         0x0000000000011f6c        0x4 60000000
 .text.rsxSetColorMaskUnsafe
                0x0000000000011f70       0x2c /usr/local/ps3dev/ppu/lib/librsx.a(commands.o)
 *fill*         0x0000000000011f9c        0x4 60000000
 .text.rsxSetColorMaskMrtUnsafe
                0x0000000000011fa0       0x2c /usr/local/ps3dev/ppu/lib/librsx.a(commands.o)
 *fill*         0x0000000000011fcc        0x4 60000000
 .text.rsxSetShadeModelUnsafe
                0x0000000000011fd0       0x2c /usr/local/ps3dev/ppu/lib/librsx.a(commands.o)
 *fill*         0x0000000000011ffc        0x4 60000000
 .text.rsxSetViewportUnsafe
                0x0000000000012000      0x108 /usr/local/ps3dev/ppu/lib/librsx.a(commands.o)
 .text.rsxSetViewportClipUnsafe
                0x0000000000012108       0x44 /usr/local/ps3dev/ppu/lib/librsx.a(commands.o)
 *fill*         0x000000000001214c        0x4 60000000
 .text.rsxSetUserClipPlaneControlUnsafe
                0x0000000000012150       0x54 /usr/local/ps3dev/ppu/lib/librsx.a(commands.o)
 *fill*         0x00000000000121a4        0x4 60000000
 .text.rsxSetDepthTestEnableUnsafe
                0x00000000000121a8       0x2c /usr/local/ps3dev/ppu/lib/librsx.a(commands.o)
 *fill*         0x00000000000121d4        0x4 60000000
 .text.rsxSetDepthFuncUnsafe
                0x00000000000121d8       0x2c /usr/local/ps3dev/ppu/lib/librsx.a(commands.o)
 *fill*         0x0000000000012204        0x4 60000000
 .text.rsxSetDepthWriteEnableUnsafe
                0x0000000000012208       0x2c /usr/local/ps3dev/ppu/lib/librsx.a(commands.o)
 *fill*         0x0000000000012234        0x4 60000000
 .text.rsxSetDepthFormatUnsafe
                0x0000000000012238       0x34 /usr/local/ps3dev/ppu/lib/librsx.a(commands.o)
 *fill*         0x000000000001226c        0x4 60000000
 .text.rsxSetCullFaceEnableUnsafe
                0x0000000000012270       0x2c /usr/local/ps3dev/ppu/lib/librsx.a(commands.o)
 *fill*         0x000000000001229c        0x4 60000000
 .text.rsxSetCullFaceUnsafe
                0x00000000000122a0       0x2c /usr/local/ps3dev/ppu/lib/librsx.a(commands.o)
 *fill*         0x00000000000122cc        0x4 60000000
 .text.rsxSetFrontFaceUnsafe
                0x00000000000122d0       0x2c /usr/local/ps3dev/ppu/lib/librsx.a(commands.o)
 *fill*         0x00000000000122fc        0x4 60000000
 .text.rsxSetFrontPolygonModeUnsafe
                0x0000000000012300       0x2c /usr/local/ps3dev/ppu/lib/librsx.a(commands.o)
 *fill*         0x000000000001232c        0x4 60000000
 .text.rsxSetBackPolygonModeUnsafe
                0x0000000000012330       0x2c /usr/local/ps3dev/ppu/lib/librsx.a(commands.o)
 *fill*         0x000000000001235c        0x4 60000000
 .text.rsxSetPolygonOffsetFillEnableUnsafe
                0x0000000000012360       0x2c /usr/local/ps3dev/ppu/lib/librsx.a(commands.o)
 *fill*         0x000000000001238c        0x4 60000000
 .text.rsxSetPolygonOffsetUnsafe
                0x0000000000012390       0x40 /usr/local/ps3dev/ppu/lib/librsx.a(commands.o)
 .text.rsxSetPolygonOffsetLineEnableUnsafe
                0x00000000000123d0       0x2c /usr/local/ps3dev/ppu/lib/librsx.a(commands.o)
 *fill*         0x00000000000123fc        0x4 60000000
 .text.rsxClearSurfaceUnsafe
                0x0000000000012400       0x3c /usr/local/ps3dev/ppu/lib/librsx.a(commands.o)
 *fill*         0x000000000001243c        0x4 60000000
 .text.rsxSetCylindricalWrapUnsafe
                0x0000000000012440       0x2c /usr/local/ps3dev/ppu/lib/librsx.a(commands.o)
 *fill*         0x000000000001246c        0x4 60000000
 .text.rsxSetTwoSideLightEnableUnsafe
                0x0000000000012470       0x2c /usr/local/ps3dev/ppu/lib/librsx.a(commands.o)
 *fill*         0x000000000001249c        0x4 60000000
 .text.rsxSetStencilFuncUnsafe
                0x00000000000124a0       0x34 /usr/local/ps3dev/ppu/lib/librsx.a(commands.o)
 *fill*         0x00000000000124d4        0x4 60000000
 .text.rsxSetStencilMaskUnsafe
                0x00000000000124d8       0x2c /usr/local/ps3dev/ppu/lib/librsx.a(commands.o)
 *fill*         0x0000000000012504        0x4 60000000
 .text.rsxSetStencilOpUnsafe
                0x0000000000012508       0x34 /usr/local/ps3dev/ppu/lib/librsx.a(commands.o)
 *fill*         0x000000000001253c        0x4 60000000
 .text.rsxSetStencilTestEnableUnsafe
                0x0000000000012540       0x2c /usr/local/ps3dev/ppu/lib/librsx.a(commands.o)
 *fill*         0x000000000001256c        0x4 60000000
 .text.rsxSetBackStencilFuncUnsafe
                0x0000000000012570       0x34 /usr/local/ps3dev/ppu/lib/librsx.a(commands.o)
 *fill*         0x00000000000125a4        0x4 60000000
 .text.rsxSetBackStencilMaskUnsafe
                0x00000000000125a8       0x2c /usr/local/ps3dev/ppu/lib/librsx.a(commands.o)
 *fill*         0x00000000000125d4        0x4 60000000
 .text.rsxSetBackStencilOpUnsafe
                0x00000000000125d8       0x34 /usr/local/ps3dev/ppu/lib/librsx.a(commands.o)
 *fill*         0x000000000001260c        0x4 60000000
 .text.rsxSetTwoSidedStencilTestEnableUnsafe
                0x0000000000012610       0x2c /usr/local/ps3dev/ppu/lib/librsx.a(commands.o)
 *fill*         0x000000000001263c        0x4 60000000
 .text.rsxSetRenderEnableUnsafe
                0x0000000000012640       0x70 /usr/local/ps3dev/ppu/lib/librsx.a(commands.o)
 .text.rsxSetReportUnsafe
                0x00000000000126b0       0x38 /usr/local/ps3dev/ppu/lib/librsx.a(commands.o)
 .text.rsxSetClearReportUnsafe
                0x00000000000126e8       0x2c /usr/local/ps3dev/ppu/lib/librsx.a(commands.o)
 *fill*         0x0000000000012714        0x4 60000000
 .text.rsxSetZPixelCountEnableUnsafe
                0x0000000000012718       0x2c /usr/local/ps3dev/ppu/lib/librsx.a(commands.o)
 *fill*         0x0000000000012744        0x4 60000000
 .text.rsxSetSCullControlUnsafe
                0x0000000000012748       0x3c /usr/local/ps3dev/ppu/lib/librsx.a(commands.o)
 *fill*         0x0000000000012784        0x4 60000000
 .text.rsxSetZCullLimitUnsafe
                0x0000000000012788       0x34 /usr/local/ps3dev/ppu/lib/librsx.a(commands.o)
 *fill*         0x00000000000127bc        0x4 60000000
 .text.rsxSetZCullStatsEnableUnsafe
                0x00000000000127c0       0x2c /usr/local/ps3dev/ppu/lib/librsx.a(commands.o)
 *fill*         0x00000000000127ec        0x4 60000000
 .text.rsxSetZCullControlUnsafe
                0x00000000000127f0       0x34 /usr/local/ps3dev/ppu/lib/librsx.a(commands.o)
 *fill*         0x0000000000012824        0x4 60000000
 .text.rsxSetClearZCullSurfaceUnsafe
                0x0000000000012828       0x34 /usr/local/ps3dev/ppu/lib/librsx.a(commands.o)
 *fill*         0x000000000001285c        0x4 60000000
 .text.rsxSetZCullEnableUnsafe
                0x0000000000012860       0x34 /usr/local/ps3dev/ppu/lib/librsx.a(commands.o)
 *fill*         0x0000000000012894        0x4 60000000
 .text.rsxSetZCullInvalidateUnsafe
                0x0000000000012898       0x2c /usr/local/ps3dev/ppu/lib/librsx.a(commands.o)
 *fill*         0x00000000000128c4        0x4 60000000
 .text.rsxSetPolygonSmoothEnableUnsafe
                0x00000000000128c8       0x2c /usr/local/ps3dev/ppu/lib/librsx.a(commands.o)
 *fill*         0x00000000000128f4        0x4 60000000
 .text.rsxSetDitherEnableUnsafe
                0x00000000000128f8       0x2c /usr/local/ps3dev/ppu/lib/librsx.a(commands.o)
 *fill*         0x0000000000012924        0x4 60000000
 .text.rsxLoadVertexProgramBlockUnsafe
                0x0000000000012928      0x2ac /usr/local/ps3dev/ppu/lib/librsx.a(commands.o)
 *fill*         0x0000000000012bd4        0x4 60000000
 .text.rsxLoadFragmentProgramLocationUnsafe
                0x0000000000012bd8      0x16c /usr/local/ps3dev/ppu/lib/librsx.a(commands.o)
 *fill*         0x0000000000012d44        0x4 60000000
 .text.rsxUpdateFragmentProgramLocationUnsafe
                0x0000000000012d48       0x38 /usr/local/ps3dev/ppu/lib/librsx.a(commands.o)
 .text.rsxSetFragmentProgramControlUnsafe
                0x0000000000012d80       0x54 /usr/local/ps3dev/ppu/lib/librsx.a(commands.o)
 *fill*         0x0000000000012dd4        0x4 60000000
 .text.rsxLoadVertexProgramParameterBlockUnsafe
                0x0000000000012dd8      0x290 /usr/local/ps3dev/ppu/lib/librsx.a(commands.o)
 .text.rsxLoadVertexProgramUnsafe
                0x0000000000013068       0xec /usr/local/ps3dev/ppu/lib/librsx.a(commands.o)
 *fill*         0x0000000000013154        0x4 60000000
 .text.rsxSetVertexProgramParameterUnsafe
                0x0000000000013158      0x218 /usr/local/ps3dev/ppu/lib/librsx.a(commands.o)
 .text.rsxSetVertexProgramConstantsUnsafe
                0x0000000000013370      0x210 /usr/local/ps3dev/ppu/lib/librsx.a(commands.o)
 .text.rsxSetVertexAttribOutputMaskUnsafe
                0x0000000000013580       0x2c /usr/local/ps3dev/ppu/lib/librsx.a(commands.o)
 *fill*         0x00000000000135ac        0x4 60000000
 .text.rsxSetFragmentProgramGammaEnableUnsafe
                0x00000000000135b0       0x2c /usr/local/ps3dev/ppu/lib/librsx.a(commands.o)
 *fill*         0x00000000000135dc        0x4 60000000
 .text.rsxDrawVertexBeginUnsafe
                0x00000000000135e0       0x2c /usr/local/ps3dev/ppu/lib/librsx.a(commands.o)
 *fill*         0x000000000001360c        0x4 60000000
 .text.rsxDrawVertexEndUnsafe
                0x0000000000013610       0x2c /usr/local/ps3dev/ppu/lib/librsx.a(commands.o)
 *fill*         0x000000000001363c        0x4 60000000
 .text.rsxDrawVertex1fUnsafe
                0x0000000000013640       0x38 /usr/local/ps3dev/ppu/lib/librsx.a(commands.o)
 .text.rsxDrawVertex2fUnsafe
                0x0000000000013678       0x40 /usr/local/ps3dev/ppu/lib/librsx.a(commands.o)
 .text.rsxDrawVertex3fUnsafe
                0x00000000000136b8       0x48 /usr/local/ps3dev/ppu/lib/librsx.a(commands.o)
 .text.rsxDrawVertex4fUnsafe
                0x0000000000013700       0x48 /usr/local/ps3dev/ppu/lib/librsx.a(commands.o)
 .text.rsxDrawVertex4sUnsafe
                0x0000000000013748       0x5c /usr/local/ps3dev/ppu/lib/librsx.a(commands.o)
 *fill*         0x00000000000137a4        0x4 60000000
 .text.rsxDrawVertexScaled4sUnsafe
                0x00000000000137a8       0x5c /usr/local/ps3dev/ppu/lib/librsx.a(commands.o)
 *fill*         0x0000000000013804        0x4 60000000
 .text.rsxDrawVertex2sUnsafe
                0x0000000000013808       0x44 /usr/local/ps3dev/ppu/lib/librsx.a(commands.o)
 *fill*         0x000000000001384c        0x4 60000000
 .text.rsxDrawVertex4ubUnsafe
                0x0000000000013850       0x34 /usr/local/ps3dev/ppu/lib/librsx.a(commands.o)
 *fill*         0x0000000000013884        0x4 60000000
 .text.rsxSetFrequencyDividerOperationUnsafe
                0x0000000000013888       0x2c /usr/local/ps3dev/ppu/lib/librsx.a(commands.o)
 *fill*         0x00000000000138b4        0x4 60000000
 .text.rsxInvalidateVertexCacheUnsafe
                0x00000000000138b8       0x44 /usr/local/ps3dev/ppu/lib/librsx.a(commands.o)
 *fill*         0x00000000000138fc        0x4 60000000
 .text.rsxInvalidateTextureCacheUnsafe
                0x0000000000013900       0x2c /usr/local/ps3dev/ppu/lib/librsx.a(commands.o)
 *fill*         0x000000000001392c        0x4 60000000
 .text.rsxLoadTextureUnsafe
                0x0000000000013930       0xc0 /usr/local/ps3dev/ppu/lib/librsx.a(commands.o)
 .text.rsxLoadVertexTextureUnsafe
                0x00000000000139f0       0x8c /usr/local/ps3dev/ppu/lib/librsx.a(commands.o)
 *fill*         0x0000000000013a7c        0x4 60000000
 .text.rsxTextureControlUnsafe
                0x0000000000013a80       0x4c /usr/local/ps3dev/ppu/lib/librsx.a(commands.o)
 *fill*         0x0000000000013acc        0x4 60000000
 .text.rsxVertexTextureControlUnsafe
                0x0000000000013ad0       0x44 /usr/local/ps3dev/ppu/lib/librsx.a(commands.o)
 *fill*         0x0000000000013b14        0x4 60000000
 .text.rsxTextureFilterUnsafe
                0x0000000000013b18       0x44 /usr/local/ps3dev/ppu/lib/librsx.a(commands.o)
 *fill*         0x0000000000013b5c        0x4 60000000
 .text.rsxVertexTextureFilterUnsafe
                0x0000000000013b60       0x30 /usr/local/ps3dev/ppu/lib/librsx.a(commands.o)
 .text.rsxTextureWrapModeUnsafe
                0x0000000000013b90       0x58 /usr/local/ps3dev/ppu/lib/librsx.a(commands.o)
 .text.rsxVertexTextureWrapModeUnsafe
                0x0000000000013be8       0x38 /usr/local/ps3dev/ppu/lib/librsx.a(commands.o)
 .text.rsxTextureBorderColorUnsafe
                0x0000000000013c20       0x30 /usr/local/ps3dev/ppu/lib/librsx.a(commands.o)
 .text.rsxVertexTextureBorderColorUnsafe
                0x0000000000013c50       0x30 /usr/local/ps3dev/ppu/lib/librsx.a(commands.o)
 .text.rsxTextureOptimizationUnsafe
                0x0000000000013c80       0x44 /usr/local/ps3dev/ppu/lib/librsx.a(commands.o)
 *fill*         0x0000000000013cc4        0x4 60000000
 .text.rsxTextureAnisoSpreadUnsafe
                0x0000000000013cc8       0x5c /usr/local/ps3dev/ppu/lib/librsx.a(commands.o)
 *fill*         0x0000000000013d24        0x4 60000000
 .text.rsxSetZMinMaxControlUnsafe
                0x0000000000013d28       0x3c /usr/local/ps3dev/ppu/lib/librsx.a(commands.o)
 *fill*         0x0000000000013d64        0x4 60000000
 .text.rsxSetDepthBoundsTestEnableUnsafe
                0x0000000000013d68       0x2c /usr/local/ps3dev/ppu/lib/librsx.a(commands.o)
 *fill*         0x0000000000013d94        0x4 60000000
 .text.rsxSetDepthBoundsUnsafe
                0x0000000000013d98       0x40 /usr/local/ps3dev/ppu/lib/librsx.a(commands.o)
 .text.rsxBindVertexArrayAttribUnsafe
                0x0000000000013dd8       0x60 /usr/local/ps3dev/ppu/lib/librsx.a(commands.o)
 .text.rsxDrawVertexArrayUnsafe
                0x0000000000013e38      0x1e4 /usr/local/ps3dev/ppu/lib/librsx.a(commands.o)
 *fill*         0x000000000001401c        0x4 60000000
 .text.rsxDrawInlineVertexArrayUnsafe
                0x0000000000014020      0x1a0 /usr/local/ps3dev/ppu/lib/librsx.a(commands.o)
 .text.rsxDrawIndexArrayUnsafe
                0x00000000000141c0      0x23c /usr/local/ps3dev/ppu/lib/librsx.a(commands.o)
 *fill*         0x00000000000143fc        0x4 60000000
 .text.rsxDrawInlineIndexArray16Unsafe
                0x0000000000014400      0x208 /usr/local/ps3dev/ppu/lib/librsx.a(commands.o)
 .text.rsxDrawInlineIndexArray32Unsafe
                0x0000000000014608      0x1a8 /usr/local/ps3dev/ppu/lib/librsx.a(commands.o)
 .text.rsxSetRestartIndexEnableUnsafe
                0x00000000000147b0       0x2c /usr/local/ps3dev/ppu/lib/librsx.a(commands.o)
 *fill*         0x00000000000147dc        0x4 60000000
 .text.rsxSetRestartIndexUnsafe
                0x00000000000147e0       0x2c /usr/local/ps3dev/ppu/lib/librsx.a(commands.o)
 *fill*         0x000000000001480c        0x4 60000000
 .text.rsxSetScissorUnsafe
                0x0000000000014810       0x40 /usr/local/ps3dev/ppu/lib/librsx.a(commands.o)
 .text.rsxSetAntialiasingControlUnsafe
                0x0000000000014850       0x44 /usr/local/ps3dev/ppu/lib/librsx.a(commands.o)
 *fill*         0x0000000000014894        0x4 60000000
 .text.rsxInlineTransferUnsafe
                0x0000000000014898      0x18c /usr/local/ps3dev/ppu/lib/librsx.a(commands.o)
 *fill*         0x0000000000014a24        0x4 60000000
 .text.rsxSetFragmentProgramParameterUnsafe
                0x0000000000014a28      0x5d8 /usr/local/ps3dev/ppu/lib/librsx.a(commands.o)
 .text.rsxSetAlphaFuncUnsafe
                0x0000000000015000       0x30 /usr/local/ps3dev/ppu/lib/librsx.a(commands.o)
 .text.rsxSetAlphaTestEnableUnsafe
                0x0000000000015030       0x2c /usr/local/ps3dev/ppu/lib/librsx.a(commands.o)
 *fill*         0x000000000001505c        0x4 60000000
 .text.rsxSetBlendFuncUnsafe
                0x0000000000015060       0x40 /usr/local/ps3dev/ppu/lib/librsx.a(commands.o)
 .text.rsxSetBlendEquationUnsafe
                0x00000000000150a0       0x34 /usr/local/ps3dev/ppu/lib/librsx.a(commands.o)
 *fill*         0x00000000000150d4        0x4 60000000
 .text.rsxSetBlendColorUnsafe
                0x00000000000150d8       0x3c /usr/local/ps3dev/ppu/lib/librsx.a(commands.o)
 *fill*         0x0000000000015114        0x4 60000000
 .text.rsxSetBlendEnableUnsafe
                0x0000000000015118       0x2c /usr/local/ps3dev/ppu/lib/librsx.a(commands.o)
 *fill*         0x0000000000015144        0x4 60000000
 .text.rsxSetBlendOptimizationUnsafe
                0x0000000000015148       0x2c /usr/local/ps3dev/ppu/lib/librsx.a(commands.o)
 *fill*         0x0000000000015174        0x4 60000000
 .text.rsxSetBlendEnableMrtUnsafe
                0x0000000000015178       0x40 /usr/local/ps3dev/ppu/lib/librsx.a(commands.o)
 .text.rsxSetLogicOpUnsafe
                0x00000000000151b8       0x2c /usr/local/ps3dev/ppu/lib/librsx.a(commands.o)
 *fill*         0x00000000000151e4        0x4 60000000
 .text.rsxSetLogicOpEnableUnsafe
                0x00000000000151e8       0x2c /usr/local/ps3dev/ppu/lib/librsx.a(commands.o)
 *fill*         0x0000000000015214        0x4 60000000
 .text.rsxSetFogModeUnsafe
                0x0000000000015218       0x2c /usr/local/ps3dev/ppu/lib/librsx.a(commands.o)
 *fill*         0x0000000000015244        0x4 60000000
 .text.rsxSetFogParamsUnsafe
                0x0000000000015248       0x40 /usr/local/ps3dev/ppu/lib/librsx.a(commands.o)
 .text.rsxSetTransformBranchBitsUnsafe
                0x0000000000015288       0x2c /usr/local/ps3dev/ppu/lib/librsx.a(commands.o)
 *fill*         0x00000000000152b4        0x4 60000000
 .text.rsxSetPointSpriteControlUnsafe
                0x00000000000152b8       0x48 /usr/local/ps3dev/ppu/lib/librsx.a(commands.o)
 .text.rsxSetPointSizeUnsafe
                0x0000000000015300       0x34 /usr/local/ps3dev/ppu/lib/librsx.a(commands.o)
 *fill*         0x0000000000015334        0x4 60000000
 .text.rsxSetTransferDataUnsafe
                0x0000000000015338      0x1a4 /usr/local/ps3dev/ppu/lib/librsx.a(commands.o)
 *fill*         0x00000000000154dc        0x4 60000000
 .text.rsxSetTransferDataModeUnsafe
                0x00000000000154e0       0x70 /usr/local/ps3dev/ppu/lib/librsx.a(commands.o)
 .text.rsxSetTransferDataOffsetUnsafe
                0x0000000000015550       0x5c /usr/local/ps3dev/ppu/lib/librsx.a(commands.o)
 *fill*         0x00000000000155ac        0x4 60000000
 .text.rsxSetTransferDataFormatUnsafe
                0x00000000000155b0       0x44 /usr/local/ps3dev/ppu/lib/librsx.a(commands.o)
 *fill*         0x00000000000155f4        0x4 60000000
 .text.rsxSetTransferImageUnsafe
                0x00000000000155f8      0x4ac /usr/local/ps3dev/ppu/lib/librsx.a(commands.o)
 *fill*         0x0000000000015aa4        0x4 60000000
 .text.rsxSetTransferScaleModeUnsafe
                0x0000000000015aa8       0xe8 /usr/local/ps3dev/ppu/lib/librsx.a(commands.o)
 .text.rsxSetTransferScaleSurfaceUnsafe
                0x0000000000015b90      0x140 /usr/local/ps3dev/ppu/lib/librsx.a(commands.o)
 .text.rsxSetTransferScaleSwizzleUnsafe
                0x0000000000015cd0      0x140 /usr/local/ps3dev/ppu/lib/librsx.a(commands.o)
 .text.rsxSetTimeStampUnsafe
                0x0000000000015e10       0x34 /usr/local/ps3dev/ppu/lib/librsx.a(commands.o)
 *fill*         0x0000000000015e44        0x4 60000000
 .text.rsxSetWaitForIdleUnsafe
                0x0000000000015e48       0x2c /usr/local/ps3dev/ppu/lib/librsx.a(commands.o)
 *fill*         0x0000000000015e74        0x4 60000000
 .text.rsxContextCallback
                0x0000000000015e78       0x50 /usr/local/ps3dev/ppu/lib/librsx.a(commands.o)
 .text.rsxSetReturnCommand
                0x0000000000015ec8       0x90 /usr/local/ps3dev/ppu/lib/librsx.a(commands.o)
 .text.rsxSetCallCommand
                0x0000000000015f58       0x9c /usr/local/ps3dev/ppu/lib/librsx.a(commands.o)
 *fill*         0x0000000000015ff4        0x4 60000000
 .text.rsxSetJumpCommand
                0x0000000000015ff8       0x9c /usr/local/ps3dev/ppu/lib/librsx.a(commands.o)
 *fill*         0x0000000000016094        0x4 60000000
 .text.rsxSetNopCommand
                0x0000000000016098      0x118 /usr/local/ps3dev/ppu/lib/librsx.a(commands.o)
 .text.rsxSetSkipNop
                0x00000000000161b0       0xc0 /usr/local/ps3dev/ppu/lib/librsx.a(commands.o)
 .text.rsxSetClearColor
                0x0000000000016270       0xa4 /usr/local/ps3dev/ppu/lib/librsx.a(commands.o)
 *fill*         0x0000000000016314        0x4 60000000
 .text.rsxSetClearDepthStencil
                0x0000000000016318       0xa4 /usr/local/ps3dev/ppu/lib/librsx.a(commands.o)
 *fill*         0x00000000000163bc        0x4 60000000
 .text.rsxSetReferenceCommand
                0x00000000000163c0       0xa4 /usr/local/ps3dev/ppu/lib/librsx.a(commands.o)
 *fill*         0x0000000000016464        0x4 60000000
 .text.rsxSetWriteBackendLabel
                0x0000000000016468       0xd8 /usr/local/ps3dev/ppu/lib/librsx.a(commands.o)
 .text.rsxSetWriteTextureLabel
                0x0000000000016540       0xbc /usr/local/ps3dev/ppu/lib/librsx.a(commands.o)
 *fill*         0x00000000000165fc        0x4 60000000
 .text.rsxSetWaitLabel
                0x0000000000016600       0xbc /usr/local/ps3dev/ppu/lib/librsx.a(commands.o)
 *fill*         0x00000000000166bc        0x4 60000000
 .text.rsxSetWriteCommandLabel
                0x00000000000166c0       0xbc /usr/local/ps3dev/ppu/lib/librsx.a(commands.o)
 *fill*         0x000000000001677c        0x4 60000000
 .text.rsxSetSurface
                0x0000000000016780      0x254 /usr/local/ps3dev/ppu/lib/librsx.a(commands.o)
 *fill*         0x00000000000169d4        0x4 60000000
 .text.rsxSetColorMask
                0x00000000000169d8       0xa4 /usr/local/ps3dev/ppu/lib/librsx.a(commands.o)
 *fill*         0x0000000000016a7c        0x4 60000000
 .text.rsxSetColorMaskMrt
                0x0000000000016a80       0xa4 /usr/local/ps3dev/ppu/lib/librsx.a(commands.o)
 *fill*         0x0000000000016b24        0x4 60000000
 .text.rsxSetShadeModel
                0x0000000000016b28       0xa4 /usr/local/ps3dev/ppu/lib/librsx.a(commands.o)
 *fill*         0x0000000000016bcc        0x4 60000000
 .text.rsxSetViewport
                0x0000000000016bd0      0x1e8 /usr/local/ps3dev/ppu/lib/librsx.a(commands.o)
 .text.rsxSetViewportClip
                0x0000000000016db8       0xcc /usr/local/ps3dev/ppu/lib/librsx.a(commands.o)
 *fill*         0x0000000000016e84        0x4 60000000
 .text.rsxSetUserClipPlaneControl
                0x0000000000016e88       0xf4 /usr/local/ps3dev/ppu/lib/librsx.a(commands.o)
 *fill*         0x0000000000016f7c        0x4 60000000
 .text.rsxSetDepthTestEnable
                0x0000000000016f80       0xa4 /usr/local/ps3dev/ppu/lib/librsx.a(commands.o)
 *fill*         0x0000000000017024        0x4 60000000
 .text.rsxSetDepthFunc
                0x0000000000017028       0xa4 /usr/local/ps3dev/ppu/lib/librsx.a(commands.o)
 *fill*         0x00000000000170cc        0x4 60000000
 .text.rsxSetDepthWriteEnable
                0x00000000000170d0       0xa4 /usr/local/ps3dev/ppu/lib/librsx.a(commands.o)
 *fill*         0x0000000000017174        0x4 60000000
 .text.rsxSetDepthFormat
                0x0000000000017178       0xac /usr/local/ps3dev/ppu/lib/librsx.a(commands.o)
 *fill*         0x0000000000017224        0x4 60000000
 .text.rsxSetCullFaceEnable
                0x0000000000017228       0xa4 /usr/local/ps3dev/ppu/lib/librsx.a(commands.o)
 *fill*         0x00000000000172cc        0x4 60000000
 .text.rsxSetCullFace
                0x00000000000172d0       0xa4 /usr/local/ps3dev/ppu/lib/librsx.a(commands.o)
 *fill*         0x0000000000017374        0x4 60000000
 .text.rsxSetFrontFace
                0x0000000000017378       0xa4 /usr/local/ps3dev/ppu/lib/librsx.a(commands.o)
 *fill*         0x000000000001741c        0x4 60000000
 .text.rsxSetFrontPolygonMode
                0x0000000000017420       0xa4 /usr/local/ps3dev/ppu/lib/librsx.a(commands.o)
 *fill*         0x00000000000174c4        0x4 60000000
 .text.rsxSetBackPolygonMode
                0x00000000000174c8       0xa4 /usr/local/ps3dev/ppu/lib/librsx.a(commands.o)
 *fill*         0x000000000001756c        0x4 60000000
 .text.rsxSetPolygonOffsetFillEnable
                0x0000000000017570       0xa4 /usr/local/ps3dev/ppu/lib/librsx.a(commands.o)
 *fill*         0x0000000000017614        0x4 60000000
 .text.rsxSetPolygonOffset
                0x0000000000017618       0xc0 /usr/local/ps3dev/ppu/lib/librsx.a(commands.o)
 .text.rsxSetPolygonOffsetLineEnable
                0x00000000000176d8       0xa4 /usr/local/ps3dev/ppu/lib/librsx.a(commands.o)
 *fill*         0x000000000001777c        0x4 60000000
 .text.rsxClearSurface
                0x0000000000017780       0xb4 /usr/local/ps3dev/ppu/lib/librsx.a(commands.o)
 *fill*         0x0000000000017834        0x4 60000000
 .text.rsxSetCylindricalWrap
                0x0000000000017838       0xa4 /usr/local/ps3dev/ppu/lib/librsx.a(commands.o)
 *fill*         0x00000000000178dc        0x4 60000000
 .text.rsxSetTwoSideLightEnable
                0x00000000000178e0       0xa4 /usr/local/ps3dev/ppu/lib/librsx.a(commands.o)
 *fill*         0x0000000000017984        0x4 60000000
 .text.rsxSetStencilFunc
                0x0000000000017988       0xbc /usr/local/ps3dev/ppu/lib/librsx.a(commands.o)
 *fill*         0x0000000000017a44        0x4 60000000
 .text.rsxSetStencilMask
                0x0000000000017a48       0xa4 /usr/local/ps3dev/ppu/lib/librsx.a(commands.o)
 *fill*         0x0000000000017aec        0x4 60000000
 .text.rsxSetStencilOp
                0x0000000000017af0       0xbc /usr/local/ps3dev/ppu/lib/librsx.a(commands.o)
 *fill*         0x0000000000017bac        0x4 60000000
 .text.rsxSetStencilTestEnable
                0x0000000000017bb0       0xa4 /usr/local/ps3dev/ppu/lib/librsx.a(commands.o)
 *fill*         0x0000000000017c54        0x4 60000000
 .text.rsxSetBackStencilFunc
                0x0000000000017c58       0xbc /usr/local/ps3dev/ppu/lib/librsx.a(commands.o)
 *fill*         0x0000000000017d14        0x4 60000000
 .text.rsxSetBackStencilMask
                0x0000000000017d18       0xa4 /usr/local/ps3dev/ppu/lib/librsx.a(commands.o)
 *fill*         0x0000000000017dbc        0x4 60000000
 .text.rsxSetBackStencilOp
                0x0000000000017dc0       0xbc /usr/local/ps3dev/ppu/lib/librsx.a(commands.o)
 *fill*         0x0000000000017e7c        0x4 60000000
 .text.rsxSetTwoSidedStencilTestEnable
                0x0000000000017e80       0xa4 /usr/local/ps3dev/ppu/lib/librsx.a(commands.o)
 *fill*         0x0000000000017f24        0x4 60000000
 .text.rsxSetRenderEnable
                0x0000000000017f28      0x124 /usr/local/ps3dev/ppu/lib/librsx.a(commands.o)
 *fill*         0x000000000001804c        0x4 60000000
 .text.rsxSetReport
                0x0000000000018050       0xc0 /usr/local/ps3dev/ppu/lib/librsx.a(commands.o)
 .text.rsxSetClearReport
                0x0000000000018110       0xa4 /usr/local/ps3dev/ppu/lib/librsx.a(commands.o)
 *fill*         0x00000000000181b4        0x4 60000000
 .text.rsxSetZPixelCountEnable
                0x00000000000181b8       0xa4 /usr/local/ps3dev/ppu/lib/librsx.a(commands.o)
 *fill*         0x000000000001825c        0x4 60000000
 .text.rsxSetSCullControl
                0x0000000000018260       0xc4 /usr/local/ps3dev/ppu/lib/librsx.a(commands.o)
 *fill*         0x0000000000018324        0x4 60000000
 .text.rsxSetZCullLimit
                0x0000000000018328       0xb4 /usr/local/ps3dev/ppu/lib/librsx.a(commands.o)
 *fill*         0x00000000000183dc        0x4 60000000
 .text.rsxSetZCullStatsEnable
                0x00000000000183e0       0xa4 /usr/local/ps3dev/ppu/lib/librsx.a(commands.o)
 *fill*         0x0000000000018484        0x4 60000000
 .text.rsxSetZCullControl
                0x0000000000018488       0xb4 /usr/local/ps3dev/ppu/lib/librsx.a(commands.o)
 *fill*         0x000000000001853c        0x4 60000000
 .text.rsxSetClearZCullSurface
                0x0000000000018540       0xb4 /usr/local/ps3dev/ppu/lib/librsx.a(commands.o)
 *fill*         0x00000000000185f4        0x4 60000000
 .text.rsxSetZCullEnable
                0x00000000000185f8       0xb4 /usr/local/ps3dev/ppu/lib/librsx.a(commands.o)
 *fill*         0x00000000000186ac        0x4 60000000
 .text.rsxSetZCullInvalidate
                0x00000000000186b0       0x98 /usr/local/ps3dev/ppu/lib/librsx.a(commands.o)
 .text.rsxSetPolygonSmoothEnable
                0x0000000000018748       0xa4 /usr/local/ps3dev/ppu/lib/librsx.a(commands.o)
 *fill*         0x00000000000187ec        0x4 60000000
 .text.rsxSetDitherEnable
                0x00000000000187f0       0xa4 /usr/local/ps3dev/ppu/lib/librsx.a(commands.o)
 *fill*         0x0000000000018894        0x4 60000000
 .text.rsxLoadVertexProgramBlock
                0x0000000000018898      0x384 /usr/local/ps3dev/ppu/lib/librsx.a(commands.o)
 *fill*         0x0000000000018c1c        0x4 60000000
 .text.rsxLoadFragmentProgramLocation
                0x0000000000018c20      0x228 /usr/local/ps3dev/ppu/lib/librsx.a(commands.o)
 .text.rsxUpdateFragmentProgramLocation
                0x0000000000018e48       0xbc /usr/local/ps3dev/ppu/lib/librsx.a(commands.o)
 *fill*         0x0000000000018f04        0x4 60000000
 .text.rsxSetFragmentProgramControl
                0x0000000000018f08       0xd4 /usr/local/ps3dev/ppu/lib/librsx.a(commands.o)
 *fill*         0x0000000000018fdc        0x4 60000000
 .text.rsxLoadVertexProgramParameterBlock
                0x0000000000018fe0      0x320 /usr/local/ps3dev/ppu/lib/librsx.a(commands.o)
 .text.rsxLoadVertexProgram
                0x0000000000019300       0xec /usr/local/ps3dev/ppu/lib/librsx.a(commands.o)
 *fill*         0x00000000000193ec        0x4 60000000
 .text.rsxSetVertexProgramParameter
                0x00000000000193f0      0x218 /usr/local/ps3dev/ppu/lib/librsx.a(commands.o)
 .text.rsxSetVertexProgramConstants
                0x0000000000019608      0x29c /usr/local/ps3dev/ppu/lib/librsx.a(commands.o)
 *fill*         0x00000000000198a4        0x4 60000000
 .text.rsxSetVertexAttribOutputMask
                0x00000000000198a8       0xa4 /usr/local/ps3dev/ppu/lib/librsx.a(commands.o)
 *fill*         0x000000000001994c        0x4 60000000
 .text.rsxSetFragmentProgramGammaEnable
                0x0000000000019950       0xa4 /usr/local/ps3dev/ppu/lib/librsx.a(commands.o)
 *fill*         0x00000000000199f4        0x4 60000000
 .text.rsxDrawVertexBegin
                0x00000000000199f8       0xa4 /usr/local/ps3dev/ppu/lib/librsx.a(commands.o)
 *fill*         0x0000000000019a9c        0x4 60000000
 .text.rsxDrawVertexEnd
                0x0000000000019aa0       0x98 /usr/local/ps3dev/ppu/lib/librsx.a(commands.o)
 .text.rsxDrawVertex1f
                0x0000000000019b38       0xc0 /usr/local/ps3dev/ppu/lib/librsx.a(commands.o)
 .text.rsxDrawVertex2f
                0x0000000000019bf8       0xbc /usr/local/ps3dev/ppu/lib/librsx.a(commands.o)
 *fill*         0x0000000000019cb4        0x4 60000000
 .text.rsxDrawVertex3f
                0x0000000000019cb8       0xbc /usr/local/ps3dev/ppu/lib/librsx.a(commands.o)
 *fill*         0x0000000000019d74        0x4 60000000
 .text.rsxDrawVertex4f
                0x0000000000019d78       0xbc /usr/local/ps3dev/ppu/lib/librsx.a(commands.o)
 *fill*         0x0000000000019e34        0x4 60000000
 .text.rsxDrawVertex4s
                0x0000000000019e38       0xdc /usr/local/ps3dev/ppu/lib/librsx.a(commands.o)
 *fill*         0x0000000000019f14        0x4 60000000
 .text.rsxDrawVertexScaled4s
                0x0000000000019f18       0xdc /usr/local/ps3dev/ppu/lib/librsx.a(commands.o)
 *fill*         0x0000000000019ff4        0x4 60000000
 .text.rsxDrawVertex2s
                0x0000000000019ff8       0xc4 /usr/local/ps3dev/ppu/lib/librsx.a(commands.o)
 *fill*         0x000000000001a0bc        0x4 60000000
 .text.rsxDrawVertex4ub
                0x000000000001a0c0       0xb4 /usr/local/ps3dev/ppu/lib/librsx.a(commands.o)
 *fill*         0x000000000001a174        0x4 60000000
 .text.rsxSetFrequencyDividerOperation
                0x000000000001a178       0xa4 /usr/local/ps3dev/ppu/lib/librsx.a(commands.o)
 *fill*         0x000000000001a21c        0x4 60000000
 .text.rsxInvalidateVertexCache
                0x000000000001a220       0xb0 /usr/local/ps3dev/ppu/lib/librsx.a(commands.o)
 .text.rsxInvalidateTextureCache
                0x000000000001a2d0       0xa4 /usr/local/ps3dev/ppu/lib/librsx.a(commands.o)
 *fill*         0x000000000001a374        0x4 60000000
 .text.rsxLoadTexture
                0x000000000001a378      0x144 /usr/local/ps3dev/ppu/lib/librsx.a(commands.o)
 *fill*         0x000000000001a4bc        0x4 60000000
 .text.rsxLoadVertexTexture
                0x000000000001a4c0      0x134 /usr/local/ps3dev/ppu/lib/librsx.a(commands.o)
 *fill*         0x000000000001a5f4        0x4 60000000
 .text.rsxTextureControl
                0x000000000001a5f8       0xe4 /usr/local/ps3dev/ppu/lib/librsx.a(commands.o)
 *fill*         0x000000000001a6dc        0x4 60000000
 .text.rsxVertexTextureControl
                0x000000000001a6e0       0xd4 /usr/local/ps3dev/ppu/lib/librsx.a(commands.o)
 *fill*         0x000000000001a7b4        0x4 60000000
 .text.rsxTextureFilter
                0x000000000001a7b8       0xdc /usr/local/ps3dev/ppu/lib/librsx.a(commands.o)
 *fill*         0x000000000001a894        0x4 60000000
 .text.rsxVertexTextureFilter
                0x000000000001a898       0xb4 /usr/local/ps3dev/ppu/lib/librsx.a(commands.o)
 *fill*         0x000000000001a94c        0x4 60000000
 .text.rsxTextureWrapMode
                0x000000000001a950      0x104 /usr/local/ps3dev/ppu/lib/librsx.a(commands.o)
 *fill*         0x000000000001aa54        0x4 60000000
 .text.rsxVertexTextureWrapMode
                0x000000000001aa58       0xc4 /usr/local/ps3dev/ppu/lib/librsx.a(commands.o)
 *fill*         0x000000000001ab1c        0x4 60000000
 .text.rsxTextureBorderColor
                0x000000000001ab20       0xb4 /usr/local/ps3dev/ppu/lib/librsx.a(commands.o)
 *fill*         0x000000000001abd4        0x4 60000000
 .text.rsxVertexTextureBorderColor
                0x000000000001abd8       0xb4 /usr/local/ps3dev/ppu/lib/librsx.a(commands.o)
 *fill*         0x000000000001ac8c        0x4 60000000
 .text.rsxTextureOptimization
                0x000000000001ac90       0xd4 /usr/local/ps3dev/ppu/lib/librsx.a(commands.o)
 *fill*         0x000000000001ad64        0x4 60000000
 .text.rsxTextureAnisoSpread
                0x000000000001ad68       0xe0 /usr/local/ps3dev/ppu/lib/librsx.a(commands.o)
 .text.rsxSetZMinMaxControl
                0x000000000001ae48       0xc4 /usr/local/ps3dev/ppu/lib/librsx.a(commands.o)
 *fill*         0x000000000001af0c        0x4 60000000
 .text.rsxSetDepthBoundsTestEnable
                0x000000000001af10       0xa4 /usr/local/ps3dev/ppu/lib/librsx.a(commands.o)
 *fill*         0x000000000001afb4        0x4 60000000
 .text.rsxSetDepthBounds
                0x000000000001afb8       0xc0 /usr/local/ps3dev/ppu/lib/librsx.a(commands.o)
 .text.rsxBindVertexArrayAttrib
                0x000000000001b078      0x10c /usr/local/ps3dev/ppu/lib/librsx.a(commands.o)
 *fill*         0x000000000001b184        0x4 60000000
 .text.rsxDrawVertexArray
                0x000000000001b188      0x2ec /usr/local/ps3dev/ppu/lib/librsx.a(commands.o)
 *fill*         0x000000000001b474        0x4 60000000
 .text.rsxDrawInlineVertexArray
                0x000000000001b478      0x294 /usr/local/ps3dev/ppu/lib/librsx.a(commands.o)
 *fill*         0x000000000001b70c        0x4 60000000
 .text.rsxDrawIndexArray
                0x000000000001b710      0x398 /usr/local/ps3dev/ppu/lib/librsx.a(commands.o)
 .text.rsxDrawInlineIndexArray16
                0x000000000001baa8      0x334 /usr/local/ps3dev/ppu/lib/librsx.a(commands.o)
 *fill*         0x000000000001bddc        0x4 60000000
 .text.rsxDrawInlineIndexArray32
                0x000000000001bde0      0x29c /usr/local/ps3dev/ppu/lib/librsx.a(commands.o)
 *fill*         0x000000000001c07c        0x4 60000000
 .text.rsxSetRestartIndexEnable
                0x000000000001c080       0xa4 /usr/local/ps3dev/ppu/lib/librsx.a(commands.o)
 *fill*         0x000000000001c124        0x4 60000000
 .text.rsxSetRestartIndex
                0x000000000001c128       0xa4 /usr/local/ps3dev/ppu/lib/librsx.a(commands.o)
 *fill*         0x000000000001c1cc        0x4 60000000
 .text.rsxSetScissor
                0x000000000001c1d0       0xd4 /usr/local/ps3dev/ppu/lib/librsx.a(commands.o)
 *fill*         0x000000000001c2a4        0x4 60000000
 .text.rsxSetAntialiasingControl
                0x000000000001c2a8       0xd4 /usr/local/ps3dev/ppu/lib/librsx.a(commands.o)
 *fill*         0x000000000001c37c        0x4 60000000
 .text.rsxInlineTransfer
                0x000000000001c380      0x23c /usr/local/ps3dev/ppu/lib/librsx.a(commands.o)
 *fill*         0x000000000001c5bc        0x4 60000000
 .text.rsxSetFragmentProgramParameter
                0x000000000001c5c0      0x5d8 /usr/local/ps3dev/ppu/lib/librsx.a(commands.o)
 .text.rsxSetAlphaFunc
                0x000000000001cb98       0xb4 /usr/local/ps3dev/ppu/lib/librsx.a(commands.o)
 *fill*         0x000000000001cc4c        0x4 60000000
 .text.rsxSetAlphaTestEnable
                0x000000000001cc50       0xa4 /usr/local/ps3dev/ppu/lib/librsx.a(commands.o)
 *fill*         0x000000000001ccf4        0x4 60000000
 .text.rsxSetBlendFunc
                0x000000000001ccf8       0xd4 /usr/local/ps3dev/ppu/lib/librsx.a(commands.o)
 *fill*         0x000000000001cdcc        0x4 60000000
 .text.rsxSetBlendEquation
                0x000000000001cdd0       0xb4 /usr/local/ps3dev/ppu/lib/librsx.a(commands.o)
 *fill*         0x000000000001ce84        0x4 60000000
 .text.rsxSetBlendColor
                0x000000000001ce88       0xbc /usr/local/ps3dev/ppu/lib/librsx.a(commands.o)
 *fill*         0x000000000001cf44        0x4 60000000
 .text.rsxSetBlendEnable
                0x000000000001cf48       0xa4 /usr/local/ps3dev/ppu/lib/librsx.a(commands.o)
 *fill*         0x000000000001cfec        0x4 60000000
 .text.rsxSetBlendOptimization
                0x000000000001cff0       0xa4 /usr/local/ps3dev/ppu/lib/librsx.a(commands.o)
 *fill*         0x000000000001d094        0x4 60000000
 .text.rsxSetBlendEnableMrt
                0x000000000001d098       0xcc /usr/local/ps3dev/ppu/lib/librsx.a(commands.o)
 *fill*         0x000000000001d164        0x4 60000000
 .text.rsxSetLogicOp
                0x000000000001d168       0xa4 /usr/local/ps3dev/ppu/lib/librsx.a(commands.o)
 *fill*         0x000000000001d20c        0x4 60000000
 .text.rsxSetLogicOpEnable
                0x000000000001d210       0xa4 /usr/local/ps3dev/ppu/lib/librsx.a(commands.o)
 *fill*         0x000000000001d2b4        0x4 60000000
 .text.rsxSetFogMode
                0x000000000001d2b8       0xa4 /usr/local/ps3dev/ppu/lib/librsx.a(commands.o)
 *fill*         0x000000000001d35c        0x4 60000000
 .text.rsxSetFogParams
                0x000000000001d360       0xc0 /usr/local/ps3dev/ppu/lib/librsx.a(commands.o)
 .text.rsxSetTransformBranchBits
                0x000000000001d420       0xa4 /usr/local/ps3dev/ppu/lib/librsx.a(commands.o)
 *fill*         0x000000000001d4c4        0x4 60000000
 .text.rsxSetPointSpriteControl
                0x000000000001d4c8       0xd4 /usr/local/ps3dev/ppu/lib/librsx.a(commands.o)
 *fill*         0x000000000001d59c        0x4 60000000
 .text.rsxSetPointSize
                0x000000000001d5a0       0xac /usr/local/ps3dev/ppu/lib/librsx.a(commands.o)
 *fill*         0x000000000001d64c        0x4 60000000
 .text.rsxSetTransferData
                0x000000000001d650      0x244 /usr/local/ps3dev/ppu/lib/librsx.a(commands.o)
 *fill*         0x000000000001d894        0x4 60000000
 .text.rsxSetConvertSwizzleFormatUnsafe
                0x000000000001d898      0x7a8 /usr/local/ps3dev/ppu/lib/librsx.a(commands.o)
 .text.rsxSetTransferDataMode
                0x000000000001e040       0xec /usr/local/ps3dev/ppu/lib/librsx.a(commands.o)
 *fill*         0x000000000001e12c        0x4 60000000
 .text.rsxSetTransferDataOffset
                0x000000000001e130      0x12c /usr/local/ps3dev/ppu/lib/librsx.a(commands.o)
 *fill*         0x000000000001e25c        0x4 60000000
 .text.rsxSetTransferDataFormat
                0x000000000001e260       0xe4 /usr/local/ps3dev/ppu/lib/librsx.a(commands.o)
 *fill*         0x000000000001e344        0x4 60000000
 .text.rsxSetTransferImage
                0x000000000001e348      0x43c /usr/local/ps3dev/ppu/lib/librsx.a(commands.o)
 *fill*         0x000000000001e784        0x4 60000000
 .text.rsxSetTransferScaleMode
                0x000000000001e788      0x178 /usr/local/ps3dev/ppu/lib/librsx.a(commands.o)
 .text.rsxSetTransferScaleSurface
                0x000000000001e900      0x1bc /usr/local/ps3dev/ppu/lib/librsx.a(commands.o)
 *fill*         0x000000000001eabc        0x4 60000000
 .text.rsxSetTransferScaleSwizzle
                0x000000000001eac0      0x1bc /usr/local/ps3dev/ppu/lib/librsx.a(commands.o)
 *fill*         0x000000000001ec7c        0x4 60000000
 .text.rsxSetConvertSwizzleFormat
                0x000000000001ec80      0x750 /usr/local/ps3dev/ppu/lib/librsx.a(commands.o)
 .text.rsxSetTimeStamp
                0x000000000001f3d0       0xac /usr/local/ps3dev/ppu/lib/librsx.a(commands.o)
 *fill*         0x000000000001f47c        0x4 60000000
 .text.rsxSetWaitForIdle
                0x000000000001f480       0x98 /usr/local/ps3dev/ppu/lib/librsx.a(commands.o)
 .text          0x000000000001f518        0x0 /usr/local/ps3dev/ppu/lib/librsx.a(mm.o)
 .text.rsxHeapInit
                0x000000000001f518       0x80 /usr/local/ps3dev/ppu/lib/librsx.a(mm.o)
 .text.rsxMemalign
                0x000000000001f598       0x58 /usr/local/ps3dev/ppu/lib/librsx.a(mm.o)
 .text.rsxMalloc
                0x000000000001f5f0       0x58 /usr/local/ps3dev/ppu/lib/librsx.a(mm.o)
 .text.rsxFree  0x000000000001f648       0x48 /usr/local/ps3dev/ppu/lib/librsx.a(mm.o)
 .text          0x000000000001f690        0x0 /usr/local/ps3dev/ppu/lib/librsx.a(vertex_program.o)
 .text.rsxVertexProgramGetUCode
                0x000000000001f690       0x28 /usr/local/ps3dev/ppu/lib/librsx.a(vertex_program.o)
 .text.rsxVertexProgramGetNumConst
                0x000000000001f6b8       0x14 /usr/local/ps3dev/ppu/lib/librsx.a(vertex_program.o)
 *fill*         0x000000000001f6cc        0x4 60000000
 .text.rsxVertexProgramGetNumAttrib
                0x000000000001f6d0       0x14 /usr/local/ps3dev/ppu/lib/librsx.a(vertex_program.o)
 *fill*         0x000000000001f6e4        0x4 60000000
 .text.rsxVertexProgramGetConsts
                0x000000000001f6e8       0x30 /usr/local/ps3dev/ppu/lib/librsx.a(vertex_program.o)
 .text.rsxVertexProgramGetConst
                0x000000000001f718       0x74 /usr/local/ps3dev/ppu/lib/librsx.a(vertex_program.o)
 *fill*         0x000000000001f78c        0x4 60000000
 .text.rsxVertexProgramGetAttribs
                0x000000000001f790       0x30 /usr/local/ps3dev/ppu/lib/librsx.a(vertex_program.o)
 .text.rsxVertexProgramGetAttrib
                0x000000000001f7c0       0x30 /usr/local/ps3dev/ppu/lib/librsx.a(vertex_program.o)
 .text          0x000000000001f7f0        0x0 /usr/local/ps3dev/ppu/lib/librsx.a(fragment_program.o)
 .text.rsxFragmentProgramGetUCode
                0x000000000001f7f0       0x28 /usr/local/ps3dev/ppu/lib/librsx.a(fragment_program.o)
 .text.rsxFragmentProgramGetNumConst
                0x000000000001f818       0x14 /usr/local/ps3dev/ppu/lib/librsx.a(fragment_program.o)
 *fill*         0x000000000001f82c        0x4 60000000
 .text.rsxFragmentProgramGetConsts
                0x000000000001f830       0x30 /usr/local/ps3dev/ppu/lib/librsx.a(fragment_program.o)
 .text.rsxFragmentProgramGetConst
                0x000000000001f860       0x74 /usr/local/ps3dev/ppu/lib/librsx.a(fragment_program.o)
 *fill*         0x000000000001f8d4        0x4 60000000
 .text.rsxFragmentProgramGetNumAttrib
                0x000000000001f8d8       0x14 /usr/local/ps3dev/ppu/lib/librsx.a(fragment_program.o)
 *fill*         0x000000000001f8ec        0x4 60000000
 .text.rsxFragmentProgramGetAttribs
                0x000000000001f8f0       0x30 /usr/local/ps3dev/ppu/lib/librsx.a(fragment_program.o)
 .text.rsxFragmentProgramGetAttrib
                0x000000000001f920       0x30 /usr/local/ps3dev/ppu/lib/librsx.a(fragment_program.o)
 .text.rsxFragmentProgramGetConstOffsetTable
                0x000000000001f950       0x14 /usr/local/ps3dev/ppu/lib/librsx.a(fragment_program.o)
 .text          0x000000000001f964        0x0 /usr/local/ps3dev/ppu/lib/librsx.a(rsx_internal.o)
 *fill*         0x000000000001f964        0x4 60000000
 .text.__rsxGetAttrs
                0x000000000001f968       0x18 /usr/local/ps3dev/ppu/lib/librsx.a(rsx_internal.o)
 .text.__rsxGetAttr
                0x000000000001f980       0xcc /usr/local/ps3dev/ppu/lib/librsx.a(rsx_internal.o)
 *fill*         0x000000000001fa4c        0x4 60000000
 .text.__rsxGetConsts
                0x000000000001fa50       0x18 /usr/local/ps3dev/ppu/lib/librsx.a(rsx_internal.o)
 .text.__rsxGetConstIndex
                0x000000000001fa68       0xbc /usr/local/ps3dev/ppu/lib/librsx.a(rsx_internal.o)
 .text          0x000000000001fb24        0x0 /usr/local/ps3dev/ppu/lib/libsysutil.a(sprx.o)
 .text          0x000000000001fb24        0x0 /usr/local/ps3dev/ppu/lib/libio.a(sprx.o)
 .text          0x000000000001fb24        0x0 /usr/local/ps3dev/ppu/lib/librt.a(sbrk.o)
 *fill*         0x000000000001fb24        0x4 60000000
 .text.startup.sbrk_init
                0x000000000001fb28       0xb8 /usr/local/ps3dev/ppu/lib/librt.a(sbrk.o)
 .text.sbrk_deinit
                0x000000000001fbe0       0xc8 /usr/local/ps3dev/ppu/lib/librt.a(sbrk.o)
 .text.__librt_sbrk_r
                0x000000000001fca8      0x2f4 /usr/local/ps3dev/ppu/lib/librt.a(sbrk.o)
 .text          0x000000000001ff9c        0x0 /usr/local/ps3dev/ppu/lib/librt.a(exit.o)
 *fill*         0x000000000001ff9c        0x4 60000000
 .text.__librt_exit
                0x000000000001ffa0       0x30 /usr/local/ps3dev/ppu/lib/librt.a(exit.o)
 .text          0x000000000001ffd0        0x0 /usr/local/ps3dev/ppu/lib/librt.a(close.o)
 .text.__librt_close_r
                0x000000000001ffd0       0x88 /usr/local/ps3dev/ppu/lib/librt.a(close.o)
 .text          0x0000000000020058        0x0 /usr/local/ps3dev/ppu/lib/librt.a(lseek.o)
 .text.__librt_lseek_r
                0x0000000000020058       0x8c /usr/local/ps3dev/ppu/lib/librt.a(lseek.o)
 *fill*         0x00000000000200e4        0x4 60000000
 .text.__librt_lseek64_r
                0x00000000000200e8       0x10 /usr/local/ps3dev/ppu/lib/librt.a(lseek.o)
 .text          0x00000000000200f8        0x0 /usr/local/ps3dev/ppu/lib/librt.a(read.o)
 .text.__librt_read_r
                0x00000000000200f8      0x10c /usr/local/ps3dev/ppu/lib/librt.a(read.o)
 .text          0x0000000000020204        0x0 /usr/local/ps3dev/ppu/lib/librt.a(open.o)
 *fill*         0x0000000000020204        0x4 60000000
 .text.__librt_open_r
                0x0000000000020208      0x180 /usr/local/ps3dev/ppu/lib/librt.a(open.o)
 .text          0x0000000000020388        0x0 /usr/local/ps3dev/ppu/lib/librt.a(sleep.o)
 .text.__librt_usleep_r
                0x0000000000020388       0x50 /usr/local/ps3dev/ppu/lib/librt.a(sleep.o)
 .text.__librt_sleep_r
                0x00000000000203d8       0x6c /usr/local/ps3dev/ppu/lib/librt.a(sleep.o)
 .text          0x0000000000020444        0x0 /usr/local/ps3dev/ppu/lib/librt.a(write.o)
 *fill*         0x0000000000020444        0x4 60000000
 .text.__librt_write_r
                0x0000000000020448      0x104 /usr/local/ps3dev/ppu/lib/librt.a(write.o)
 .text          0x000000000002054c        0x0 /usr/local/ps3dev/ppu/lib/librt.a(fstat.o)
 *fill*         0x000000000002054c        0x4 60000000
 .text.__librt_fstat_r
                0x0000000000020550       0xd0 /usr/local/ps3dev/ppu/lib/librt.a(fstat.o)
 .text.__librt_fstat64_r
                0x0000000000020620       0x10 /usr/local/ps3dev/ppu/lib/librt.a(fstat.o)
 .text.__librt_stat_r
                0x0000000000020630       0xd0 /usr/local/ps3dev/ppu/lib/librt.a(fstat.o)
 .text.__librt_stat64_r
                0x0000000000020700       0x10 /usr/local/ps3dev/ppu/lib/librt.a(fstat.o)
 .text          0x0000000000020710        0x0 /usr/local/ps3dev/ppu/lib/librt.a(socket.o)
 .text.accept   0x0000000000020710       0xe0 /usr/local/ps3dev/ppu/lib/librt.a(socket.o)
 .text.bind     0x00000000000207f0       0x44 /usr/local/ps3dev/ppu/lib/librt.a(socket.o)
 *fill*         0x0000000000020834        0x4 60000000
 .text.connect  0x0000000000020838       0x44 /usr/local/ps3dev/ppu/lib/librt.a(socket.o)
 *fill*         0x000000000002087c        0x4 60000000
 .text.listen   0x0000000000020880       0x44 /usr/local/ps3dev/ppu/lib/librt.a(socket.o)
 *fill*         0x00000000000208c4        0x4 60000000
 .text.socket   0x00000000000208c8       0x5c /usr/local/ps3dev/ppu/lib/librt.a(socket.o)
 *fill*         0x0000000000020924        0x4 60000000
 .text.send     0x0000000000020928       0x4c /usr/local/ps3dev/ppu/lib/librt.a(socket.o)
 *fill*         0x0000000000020974        0x4 60000000
 .text.sendto   0x0000000000020978       0x44 /usr/local/ps3dev/ppu/lib/librt.a(socket.o)
 *fill*         0x00000000000209bc        0x4 60000000
 .text.recv     0x00000000000209c0       0x4c /usr/local/ps3dev/ppu/lib/librt.a(socket.o)
 *fill*         0x0000000000020a0c        0x4 60000000
 .text.recvfrom
                0x0000000000020a10       0xd8 /usr/local/ps3dev/ppu/lib/librt.a(socket.o)
 .text.shutdown
                0x0000000000020ae8       0x44 /usr/local/ps3dev/ppu/lib/librt.a(socket.o)
 *fill*         0x0000000000020b2c        0x4 60000000
 .text.inet_aton
                0x0000000000020b30       0xbc /usr/local/ps3dev/ppu/lib/librt.a(socket.o)
 *fill*         0x0000000000020bec        0x4 60000000
 .text.inet_pton
                0x0000000000020bf0       0x48 /usr/local/ps3dev/ppu/lib/librt.a(socket.o)
 .text.select   0x0000000000020c38       0x3c /usr/local/ps3dev/ppu/lib/librt.a(socket.o)
 *fill*         0x0000000000020c74        0x4 60000000
 .text.closesocket
                0x0000000000020c78       0x44 /usr/local/ps3dev/ppu/lib/librt.a(socket.o)
 .text          0x0000000000020cbc        0x0 /usr/local/ps3dev/ppu/lib/librt.a(lock.o)
 *fill*         0x0000000000020cbc        0x4 60000000
 .text.__librt_sys_lwmutex_create_r
                0x0000000000020cc0       0x38 /usr/local/ps3dev/ppu/lib/librt.a(lock.o)
 .text.__librt_sys_lwmutex_destroy_r
                0x0000000000020cf8       0x34 /usr/local/ps3dev/ppu/lib/librt.a(lock.o)
 *fill*         0x0000000000020d2c        0x4 60000000
 .text.__librt_sys_lwmutex_lock_r
                0x0000000000020d30       0x38 /usr/local/ps3dev/ppu/lib/librt.a(lock.o)
 .text.__librt_sys_lwmutex_trylock_r
                0x0000000000020d68       0x34 /usr/local/ps3dev/ppu/lib/librt.a(lock.o)
 *fill*         0x0000000000020d9c        0x4 60000000
 .text.__librt_sys_lwmutex_unlock_r
                0x0000000000020da0       0x34 /usr/local/ps3dev/ppu/lib/librt.a(lock.o)
 .text          0x0000000000020dd4        0x0 /usr/local/ps3dev/ppu/lib/librt.a(dirent.o)
 *fill*         0x0000000000020dd4        0x4 60000000
 .text.readdir_i
                0x0000000000020dd8      0x10c /usr/local/ps3dev/ppu/lib/librt.a(dirent.o)
 *fill*         0x0000000000020ee4        0x4 60000000
 .text.__librt_opendir_r
                0x0000000000020ee8      0x114 /usr/local/ps3dev/ppu/lib/librt.a(dirent.o)
 *fill*         0x0000000000020ffc        0x4 60000000
 .text.__librt_readdir_r
                0x0000000000021000       0x84 /usr/local/ps3dev/ppu/lib/librt.a(dirent.o)
 *fill*         0x0000000000021084        0x4 60000000
 .text.__librt_readdir_r_r
                0x0000000000021088       0x58 /usr/local/ps3dev/ppu/lib/librt.a(dirent.o)
 .text.__librt_closedir_r
                0x00000000000210e0       0x84 /usr/local/ps3dev/ppu/lib/librt.a(dirent.o)
 *fill*         0x0000000000021164        0x4 60000000
 .text.__librt_telldir_r
                0x0000000000021168       0x24 /usr/local/ps3dev/ppu/lib/librt.a(dirent.o)
 *fill*         0x000000000002118c        0x4 60000000
 .text.__librt_rewinddir_r
                0x0000000000021190       0x18 /usr/local/ps3dev/ppu/lib/librt.a(dirent.o)
 .text.__librt_seekdir_r
                0x00000000000211a8       0x18 /usr/local/ps3dev/ppu/lib/librt.a(dirent.o)
 .text          0x00000000000211c0        0x0 /usr/local/ps3dev/ppu/lib/librt.a(mkdir.o)
 .text.__librt_mkdir_r
                0x00000000000211c0       0x60 /usr/local/ps3dev/ppu/lib/librt.a(mkdir.o)
 .text          0x0000000000021220        0x0 /usr/local/ps3dev/ppu/lib/librt.a(times.o)
 .text.__librt_times_r
                0x0000000000021220       0x1c /usr/local/ps3dev/ppu/lib/librt.a(times.o)
 .text          0x000000000002123c        0x0 /usr/local/ps3dev/ppu/lib/librt.a(umask.o)
 *fill*         0x000000000002123c        0x4 60000000
 .text.__librt_umask_r
                0x0000000000021240       0x20 /usr/local/ps3dev/ppu/lib/librt.a(umask.o)
 .text          0x0000000000021260        0x0 /usr/local/ps3dev/ppu/lib/librt.a(lv2errno.o)
 .text.lv2error
                0x0000000000021260      0x434 /usr/local/ps3dev/ppu/lib/librt.a(lv2errno.o)
 *fill*         0x0000000000021694        0x4 60000000
 .text.lv2errno
                0x0000000000021698       0x68 /usr/local/ps3dev/ppu/lib/librt.a(lv2errno.o)
 .text.lv2errno_r
                0x0000000000021700       0x58 /usr/local/ps3dev/ppu/lib/librt.a(lv2errno.o)
 .text          0x0000000000021758        0x0 /usr/local/ps3dev/ppu/lib/librt.a(heap.o)
 .text.__heap_block_split.isra.2
                0x0000000000021758      0x104 /usr/local/ps3dev/ppu/lib/librt.a(heap.o)
 *fill*         0x000000000002185c        0x4 60000000
 .text.heapInit
                0x0000000000021860      0x128 /usr/local/ps3dev/ppu/lib/librt.a(heap.o)
 .text.heapAllocateAligned
                0x0000000000021988      0x230 /usr/local/ps3dev/ppu/lib/librt.a(heap.o)
 .text.heapAllocate
                0x0000000000021bb8       0x14 /usr/local/ps3dev/ppu/lib/librt.a(heap.o)
 *fill*         0x0000000000021bcc        0x4 60000000
 .text.heapFree
                0x0000000000021bd0      0x1fc /usr/local/ps3dev/ppu/lib/librt.a(heap.o)
 .text          0x0000000000021dcc        0x0 /usr/local/ps3dev/ppu/lib/librt.a(chmod.o)
 *fill*         0x0000000000021dcc        0x4 60000000
 .text.__librt_chmod_r
                0x0000000000021dd0       0x54 /usr/local/ps3dev/ppu/lib/librt.a(chmod.o)
 .text          0x0000000000021e24        0x0 /usr/local/ps3dev/ppu/lib/librt.a(rename.o)
 *fill*         0x0000000000021e24        0x4 60000000
 .text.__librt_rename_r
                0x0000000000021e28       0x54 /usr/local/ps3dev/ppu/lib/librt.a(rename.o)
 .text          0x0000000000021e7c        0x0 /usr/local/ps3dev/ppu/lib/librt.a(rmdir.o)
 *fill*         0x0000000000021e7c        0x4 60000000
 .text.__librt_rmdir_r
                0x0000000000021e80       0x50 /usr/local/ps3dev/ppu/lib/librt.a(rmdir.o)
 .text          0x0000000000021ed0        0x0 /usr/local/ps3dev/ppu/lib/librt.a(isatty.o)
 .text.__librt_isatty_r
                0x0000000000021ed0       0x2c /usr/local/ps3dev/ppu/lib/librt.a(isatty.o)
 .text          0x0000000000021efc        0x0 /usr/local/ps3dev/ppu/lib/librt.a(gettod.o)
 *fill*         0x0000000000021efc        0x4 60000000
 .text.__librt_gettod_r
                0x0000000000021f00       0xb8 /usr/local/ps3dev/ppu/lib/librt.a(gettod.o)
 .text          0x0000000000021fb8        0x0 /usr/local/ps3dev/ppu/lib/librt.a(settod.o)
 .text.__librt_settod_r
                0x0000000000021fb8       0x58 /usr/local/ps3dev/ppu/lib/librt.a(settod.o)
 .text          0x0000000000022010        0x0 /usr/local/ps3dev/ppu/lib/librt.a(unlink.o)
 .text.__librt_unlink_r
                0x0000000000022010       0x50 /usr/local/ps3dev/ppu/lib/librt.a(unlink.o)
 .text          0x0000000000022060        0x0 /usr/local/ps3dev/ppu/lib/librt.a(link.o)
 .text.__librt_link_r
                0x0000000000022060       0x54 /usr/local/ps3dev/ppu/lib/librt.a(link.o)
 .text          0x00000000000220b4        0x0 /usr/local/ps3dev/ppu/lib/librt.a(truncate.o)
 *fill*         0x00000000000220b4        0x4 60000000
 .text.__librt_truncate_r
                0x00000000000220b8       0x54 /usr/local/ps3dev/ppu/lib/librt.a(truncate.o)
 *fill*         0x000000000002210c        0x4 60000000
 .text.__librt_ftruncate_r
                0x0000000000022110       0x54 /usr/local/ps3dev/ppu/lib/librt.a(truncate.o)
 .text          0x0000000000022164        0x0 /usr/local/ps3dev/ppu/lib/librt.a(fsync.o)
 *fill*         0x0000000000022164        0x4 60000000
 .text.__librt_fsync_r
                0x0000000000022168       0x50 /usr/local/ps3dev/ppu/lib/librt.a(fsync.o)
 .text          0x00000000000221b8        0x0 /usr/local/ps3dev/ppu/lib/librt.a(utime.o)
 .text.__librt_utime_r
                0x00000000000221b8       0xbc /usr/local/ps3dev/ppu/lib/librt.a(utime.o)
 .text          0x0000000000022274        0x0 /usr/local/ps3dev/ppu/lib/librt.a(globfile.o)
 *fill*         0x0000000000022274        0x4 60000000
 .text.resolve_path
                0x0000000000022278      0x188 /usr/local/ps3dev/ppu/lib/librt.a(globfile.o)
 .text.flattenDirectory.constprop.0
                0x0000000000022400      0x2d0 /usr/local/ps3dev/ppu/lib/librt.a(globfile.o)
 .text.startup.__glob_file_init
                0x00000000000226d0       0x3c /usr/local/ps3dev/ppu/lib/librt.a(globfile.o)
 *fill*         0x000000000002270c        0x4 60000000
 .text.__full_path
                0x0000000000022710      0x12c /usr/local/ps3dev/ppu/lib/librt.a(globfile.o)
 *fill*         0x000000000002283c        0x4 60000000
 .text.__librt_chdir_r
                0x0000000000022840       0xbc /usr/local/ps3dev/ppu/lib/librt.a(globfile.o)
 *fill*         0x00000000000228fc        0x4 60000000
 .text.__librt_getcwd_r
                0x0000000000022900       0xc0 /usr/local/ps3dev/ppu/lib/librt.a(globfile.o)
 .text          0x00000000000229c0        0x0 /usr/local/ps3dev/ppu/lib/liblv2.a(sprx.o)
 .text          0x00000000000229c0        0x0 /usr/local/ps3dev/ppu/lib/gcc/powerpc64-ps3-elf/7.2.0/../../../../powerpc64-ps3-elf/lib/libsysbase.a(syscalls.o)
 .text          0x00000000000229c0        0x0 /usr/local/ps3dev/ppu/lib/gcc/powerpc64-ps3-elf/7.2.0/../../../../powerpc64-ps3-elf/lib/libsysbase.a(sleep.o)
 .text.usleep   0x00000000000229c0       0x80 /usr/local/ps3dev/ppu/lib/gcc/powerpc64-ps3-elf/7.2.0/../../../../powerpc64-ps3-elf/lib/libsysbase.a(sleep.o)
 .text.sleep    0x0000000000022a40       0x84 /usr/local/ps3dev/ppu/lib/gcc/powerpc64-ps3-elf/7.2.0/../../../../powerpc64-ps3-elf/lib/libsysbase.a(sleep.o)
 .text          0x0000000000022ac4        0x0 /usr/local/ps3dev/ppu/lib/gcc/powerpc64-ps3-elf/7.2.0/../../../../powerpc64-ps3-elf/lib/libc.a(lib_a-calloc.o)
 *fill*         0x0000000000022ac4        0x4 60000000
 .text.calloc   0x0000000000022ac8       0x58 /usr/local/ps3dev/ppu/lib/gcc/powerpc64-ps3-elf/7.2.0/../../../../powerpc64-ps3-elf/lib/libc.a(lib_a-calloc.o)
 .text          0x0000000000022b20        0x0 /usr/local/ps3dev/ppu/lib/gcc/powerpc64-ps3-elf/7.2.0/../../../../powerpc64-ps3-elf/lib/libc.a(lib_a-callocr.o)
 .text._calloc_r
                0x0000000000022b20       0xdc /usr/local/ps3dev/ppu/lib/gcc/powerpc64-ps3-elf/7.2.0/../../../../powerpc64-ps3-elf/lib/libc.a(lib_a-callocr.o)
 .text          0x0000000000022bfc        0x0 /usr/local/ps3dev/ppu/lib/gcc/powerpc64-ps3-elf/7.2.0/../../../../powerpc64-ps3-elf/lib/libc.a(lib_a-errno.o)
 *fill*         0x0000000000022bfc        0x4 60000000
 .text.__errno  0x0000000000022c00       0x30 /usr/local/ps3dev/ppu/lib/gcc/powerpc64-ps3-elf/7.2.0/../../../../powerpc64-ps3-elf/lib/libc.a(lib_a-errno.o)
 .text          0x0000000000022c30        0x0 /usr/local/ps3dev/ppu/lib/gcc/powerpc64-ps3-elf/7.2.0/../../../../powerpc64-ps3-elf/lib/libc.a(lib_a-exit.o)
 .text.exit     0x0000000000022c30       0x68 /usr/local/ps3dev/ppu/lib/gcc/powerpc64-ps3-elf/7.2.0/../../../../powerpc64-ps3-elf/lib/libc.a(lib_a-exit.o)
 .text          0x0000000000022c98        0x0 /usr/local/ps3dev/ppu/lib/gcc/powerpc64-ps3-elf/7.2.0/../../../../powerpc64-ps3-elf/lib/libc.a(lib_a-fclose.o)
 .text._fclose_r
                0x0000000000022c98      0x1e8 /usr/local/ps3dev/ppu/lib/gcc/powerpc64-ps3-elf/7.2.0/../../../../powerpc64-ps3-elf/lib/libc.a(lib_a-fclose.o)
 .text.fclose   0x0000000000022e80       0x40 /usr/local/ps3dev/ppu/lib/gcc/powerpc64-ps3-elf/7.2.0/../../../../powerpc64-ps3-elf/lib/libc.a(lib_a-fclose.o)
 .text          0x0000000000022ec0        0x0 /usr/local/ps3dev/ppu/lib/gcc/powerpc64-ps3-elf/7.2.0/../../../../powerpc64-ps3-elf/lib/libc.a(lib_a-fflush.o)
 .text.__sflush_r
                0x0000000000022ec0      0x3d0 /usr/local/ps3dev/ppu/lib/gcc/powerpc64-ps3-elf/7.2.0/../../../../powerpc64-ps3-elf/lib/libc.a(lib_a-fflush.o)
 .text._fflush_r
                0x0000000000023290      0x124 /usr/local/ps3dev/ppu/lib/gcc/powerpc64-ps3-elf/7.2.0/../../../../powerpc64-ps3-elf/lib/libc.a(lib_a-fflush.o)
 *fill*         0x00000000000233b4        0x4 60000000
 .text.fflush   0x00000000000233b8       0x70 /usr/local/ps3dev/ppu/lib/gcc/powerpc64-ps3-elf/7.2.0/../../../../powerpc64-ps3-elf/lib/libc.a(lib_a-fflush.o)
 .text          0x0000000000023428        0x0 /usr/local/ps3dev/ppu/lib/gcc/powerpc64-ps3-elf/7.2.0/../../../../powerpc64-ps3-elf/lib/libc.a(lib_a-findfp.o)
 .text._cleanup_r
                0x0000000000023428       0x34 /usr/local/ps3dev/ppu/lib/gcc/powerpc64-ps3-elf/7.2.0/../../../../powerpc64-ps3-elf/lib/libc.a(lib_a-findfp.o)
 *fill*         0x000000000002345c        0x4 60000000
 .text.__fp_lock
                0x0000000000023460       0x50 /usr/local/ps3dev/ppu/lib/gcc/powerpc64-ps3-elf/7.2.0/../../../../powerpc64-ps3-elf/lib/libc.a(lib_a-findfp.o)
 .text.__fp_unlock
                0x00000000000234b0       0x50 /usr/local/ps3dev/ppu/lib/gcc/powerpc64-ps3-elf/7.2.0/../../../../powerpc64-ps3-elf/lib/libc.a(lib_a-findfp.o)
 .text.std.isra.0
                0x0000000000023500       0x9c /usr/local/ps3dev/ppu/lib/gcc/powerpc64-ps3-elf/7.2.0/../../../../powerpc64-ps3-elf/lib/libc.a(lib_a-findfp.o)
 *fill*         0x000000000002359c        0x4 60000000
 .text.__sfmoreglue
                0x00000000000235a0       0x88 /usr/local/ps3dev/ppu/lib/gcc/powerpc64-ps3-elf/7.2.0/../../../../powerpc64-ps3-elf/lib/libc.a(lib_a-findfp.o)
 .text._cleanup
                0x0000000000023628       0x3c /usr/local/ps3dev/ppu/lib/gcc/powerpc64-ps3-elf/7.2.0/../../../../powerpc64-ps3-elf/lib/libc.a(lib_a-findfp.o)
 *fill*         0x0000000000023664        0x4 60000000
 .text.__sinit  0x0000000000023668       0xbc /usr/local/ps3dev/ppu/lib/gcc/powerpc64-ps3-elf/7.2.0/../../../../powerpc64-ps3-elf/lib/libc.a(lib_a-findfp.o)
 *fill*         0x0000000000023724        0x4 60000000
 .text.__sfp    0x0000000000023728      0x190 /usr/local/ps3dev/ppu/lib/gcc/powerpc64-ps3-elf/7.2.0/../../../../powerpc64-ps3-elf/lib/libc.a(lib_a-findfp.o)
 .text.__sfp_lock_acquire
                0x00000000000238b8       0x34 /usr/local/ps3dev/ppu/lib/gcc/powerpc64-ps3-elf/7.2.0/../../../../powerpc64-ps3-elf/lib/libc.a(lib_a-findfp.o)
 *fill*         0x00000000000238ec        0x4 60000000
 .text.__sfp_lock_release
                0x00000000000238f0       0x34 /usr/local/ps3dev/ppu/lib/gcc/powerpc64-ps3-elf/7.2.0/../../../../powerpc64-ps3-elf/lib/libc.a(lib_a-findfp.o)
 *fill*         0x0000000000023924        0x4 60000000
 .text.__sinit_lock_acquire
                0x0000000000023928       0x34 /usr/local/ps3dev/ppu/lib/gcc/powerpc64-ps3-elf/7.2.0/../../../../powerpc64-ps3-elf/lib/libc.a(lib_a-findfp.o)
 *fill*         0x000000000002395c        0x4 60000000
 .text.__sinit_lock_release
                0x0000000000023960       0x34 /usr/local/ps3dev/ppu/lib/gcc/powerpc64-ps3-elf/7.2.0/../../../../powerpc64-ps3-elf/lib/libc.a(lib_a-findfp.o)
 *fill*         0x0000000000023994        0x4 60000000
 .text.__fp_lock_all
                0x0000000000023998       0x48 /usr/local/ps3dev/ppu/lib/gcc/powerpc64-ps3-elf/7.2.0/../../../../powerpc64-ps3-elf/lib/libc.a(lib_a-findfp.o)
 .text.__fp_unlock_all
                0x00000000000239e0       0x48 /usr/local/ps3dev/ppu/lib/gcc/powerpc64-ps3-elf/7.2.0/../../../../powerpc64-ps3-elf/lib/libc.a(lib_a-findfp.o)
 .text          0x0000000000023a28        0x0 /usr/local/ps3dev/ppu/lib/gcc/powerpc64-ps3-elf/7.2.0/../../../../powerpc64-ps3-elf/lib/libc.a(lib_a-fopen.o)
 .text._fopen_r
                0x0000000000023a28      0x1cc /usr/local/ps3dev/ppu/lib/gcc/powerpc64-ps3-elf/7.2.0/../../../../powerpc64-ps3-elf/lib/libc.a(lib_a-fopen.o)
 *fill*         0x0000000000023bf4        0x4 60000000
 .text.fopen    0x0000000000023bf8       0x50 /usr/local/ps3dev/ppu/lib/gcc/powerpc64-ps3-elf/7.2.0/../../../../powerpc64-ps3-elf/lib/libc.a(lib_a-fopen.o)
 .text          0x0000000000023c48        0x0 /usr/local/ps3dev/ppu/lib/gcc/powerpc64-ps3-elf/7.2.0/../../../../powerpc64-ps3-elf/lib/libc.a(lib_a-fread.o)
 .text._fread_r
                0x0000000000023c48      0x39c /usr/local/ps3dev/ppu/lib/gcc/powerpc64-ps3-elf/7.2.0/../../../../powerpc64-ps3-elf/lib/libc.a(lib_a-fread.o)
 *fill*         0x0000000000023fe4        0x4 60000000
 .text.fread    0x0000000000023fe8       0x70 /usr/local/ps3dev/ppu/lib/gcc/powerpc64-ps3-elf/7.2.0/../../../../powerpc64-ps3-elf/lib/libc.a(lib_a-fread.o)
 .text          0x0000000000024058        0x0 /usr/local/ps3dev/ppu/lib/gcc/powerpc64-ps3-elf/7.2.0/../../../../powerpc64-ps3-elf/lib/libc.a(lib_a-freer.o)
 .text._malloc_trim_r
                0x0000000000024058      0x15c /usr/local/ps3dev/ppu/lib/gcc/powerpc64-ps3-elf/7.2.0/../../../../powerpc64-ps3-elf/lib/libc.a(lib_a-freer.o)
 *fill*         0x00000000000241b4        0x4 60000000
 .text._free_r  0x00000000000241b8      0x3b0 /usr/local/ps3dev/ppu/lib/gcc/powerpc64-ps3-elf/7.2.0/../../../../powerpc64-ps3-elf/lib/libc.a(lib_a-freer.o)
 .text          0x0000000000024568        0x0 /usr/local/ps3dev/ppu/lib/gcc/powerpc64-ps3-elf/7.2.0/../../../../powerpc64-ps3-elf/lib/libc.a(lib_a-fseek.o)
 .text._fseek_r
                0x0000000000024568      0x6c4 /usr/local/ps3dev/ppu/lib/gcc/powerpc64-ps3-elf/7.2.0/../../../../powerpc64-ps3-elf/lib/libc.a(lib_a-fseek.o)
 *fill*         0x0000000000024c2c        0x4 60000000
 .text.fseek    0x0000000000024c30       0x60 /usr/local/ps3dev/ppu/lib/gcc/powerpc64-ps3-elf/7.2.0/../../../../powerpc64-ps3-elf/lib/libc.a(lib_a-fseek.o)
 .text          0x0000000000024c90        0x0 /usr/local/ps3dev/ppu/lib/gcc/powerpc64-ps3-elf/7.2.0/../../../../powerpc64-ps3-elf/lib/libc.a(lib_a-ftell.o)
 .text._ftell_r
                0x0000000000024c90      0x248 /usr/local/ps3dev/ppu/lib/gcc/powerpc64-ps3-elf/7.2.0/../../../../powerpc64-ps3-elf/lib/libc.a(lib_a-ftell.o)
 .text.ftell    0x0000000000024ed8       0x40 /usr/local/ps3dev/ppu/lib/gcc/powerpc64-ps3-elf/7.2.0/../../../../powerpc64-ps3-elf/lib/libc.a(lib_a-ftell.o)
 .text          0x0000000000024f18        0x0 /usr/local/ps3dev/ppu/lib/gcc/powerpc64-ps3-elf/7.2.0/../../../../powerpc64-ps3-elf/lib/libc.a(lib_a-fwalk.o)
 .text._fwalk   0x0000000000024f18      0x100 /usr/local/ps3dev/ppu/lib/gcc/powerpc64-ps3-elf/7.2.0/../../../../powerpc64-ps3-elf/lib/libc.a(lib_a-fwalk.o)
 .text._fwalk_reent
                0x0000000000025018      0x110 /usr/local/ps3dev/ppu/lib/gcc/powerpc64-ps3-elf/7.2.0/../../../../powerpc64-ps3-elf/lib/libc.a(lib_a-fwalk.o)
 .text          0x0000000000025128        0x0 /usr/local/ps3dev/ppu/lib/gcc/powerpc64-ps3-elf/7.2.0/../../../../powerpc64-ps3-elf/lib/libc.a(lib_a-getreent.o)
 .text.__getreent
                0x0000000000025128      0x1b4 /usr/local/ps3dev/ppu/lib/gcc/powerpc64-ps3-elf/7.2.0/../../../../powerpc64-ps3-elf/lib/libc.a(lib_a-getreent.o)
 .text          0x00000000000252dc        0x0 /usr/local/ps3dev/ppu/lib/gcc/powerpc64-ps3-elf/7.2.0/../../../../powerpc64-ps3-elf/lib/libc.a(lib_a-impure.o)
 .text          0x00000000000252dc        0x0 /usr/local/ps3dev/ppu/lib/gcc/powerpc64-ps3-elf/7.2.0/../../../../powerpc64-ps3-elf/lib/libc.a(lib_a-lock_recursive.o)
 *fill*         0x00000000000252dc        0x4 60000000
 .text.__libc_lock_init_recursive
                0x00000000000252e0       0x34 /usr/local/ps3dev/ppu/lib/gcc/powerpc64-ps3-elf/7.2.0/../../../../powerpc64-ps3-elf/lib/libc.a(lib_a-lock_recursive.o)
 *fill*         0x0000000000025314        0x4 60000000
 .text.__libc_lock_close_recursive
                0x0000000000025318       0x30 /usr/local/ps3dev/ppu/lib/gcc/powerpc64-ps3-elf/7.2.0/../../../../powerpc64-ps3-elf/lib/libc.a(lib_a-lock_recursive.o)
 .text.__libc_lock_acquire_recursive
                0x0000000000025348       0x58 /usr/local/ps3dev/ppu/lib/gcc/powerpc64-ps3-elf/7.2.0/../../../../powerpc64-ps3-elf/lib/libc.a(lib_a-lock_recursive.o)
 .text.__libc_lock_try_acquire_recursive
                0x00000000000253a0       0x54 /usr/local/ps3dev/ppu/lib/gcc/powerpc64-ps3-elf/7.2.0/../../../../powerpc64-ps3-elf/lib/libc.a(lib_a-lock_recursive.o)
 *fill*         0x00000000000253f4        0x4 60000000
 .text.__libc_lock_release_recursive
                0x00000000000253f8       0x54 /usr/local/ps3dev/ppu/lib/gcc/powerpc64-ps3-elf/7.2.0/../../../../powerpc64-ps3-elf/lib/libc.a(lib_a-lock_recursive.o)
 .text          0x000000000002544c        0x0 /usr/local/ps3dev/ppu/lib/gcc/powerpc64-ps3-elf/7.2.0/../../../../powerpc64-ps3-elf/lib/libc.a(lib_a-makebuf.o)
 *fill*         0x000000000002544c        0x4 60000000
 .text.__smakebuf_r
                0x0000000000025450      0x1f4 /usr/local/ps3dev/ppu/lib/gcc/powerpc64-ps3-elf/7.2.0/../../../../powerpc64-ps3-elf/lib/libc.a(lib_a-makebuf.o)
 .text          0x0000000000025644        0x0 /usr/local/ps3dev/ppu/lib/gcc/powerpc64-ps3-elf/7.2.0/../../../../powerpc64-ps3-elf/lib/libc.a(lib_a-malign.o)
 *fill*         0x0000000000025644        0x4 60000000
 .text.memalign
                0x0000000000025648       0x58 /usr/local/ps3dev/ppu/lib/gcc/powerpc64-ps3-elf/7.2.0/../../../../powerpc64-ps3-elf/lib/libc.a(lib_a-malign.o)
 .text          0x00000000000256a0        0x0 /usr/local/ps3dev/ppu/lib/gcc/powerpc64-ps3-elf/7.2.0/../../../../powerpc64-ps3-elf/lib/libc.a(lib_a-malignr.o)
 .text._memalign_r
                0x00000000000256a0      0x224 /usr/local/ps3dev/ppu/lib/gcc/powerpc64-ps3-elf/7.2.0/../../../../powerpc64-ps3-elf/lib/libc.a(lib_a-malignr.o)
 .text          0x00000000000258c4        0x0 /usr/local/ps3dev/ppu/lib/gcc/powerpc64-ps3-elf/7.2.0/../../../../powerpc64-ps3-elf/lib/libc.a(lib_a-malloc.o)
 *fill*         0x00000000000258c4        0x4 60000000
 .text.malloc   0x00000000000258c8       0x48 /usr/local/ps3dev/ppu/lib/gcc/powerpc64-ps3-elf/7.2.0/../../../../powerpc64-ps3-elf/lib/libc.a(lib_a-malloc.o)
 .text.free     0x0000000000025910       0x48 /usr/local/ps3dev/ppu/lib/gcc/powerpc64-ps3-elf/7.2.0/../../../../powerpc64-ps3-elf/lib/libc.a(lib_a-malloc.o)
 .text          0x0000000000025958        0x0 /usr/local/ps3dev/ppu/lib/gcc/powerpc64-ps3-elf/7.2.0/../../../../powerpc64-ps3-elf/lib/libc.a(lib_a-mallocr.o)
 .text._malloc_r
                0x0000000000025958      0x9e4 /usr/local/ps3dev/ppu/lib/gcc/powerpc64-ps3-elf/7.2.0/../../../../powerpc64-ps3-elf/lib/libc.a(lib_a-mallocr.o)
 .text          0x000000000002633c        0x0 /usr/local/ps3dev/ppu/lib/gcc/powerpc64-ps3-elf/7.2.0/../../../../powerpc64-ps3-elf/lib/libc.a(lib_a-memcpy.o)
 *fill*         0x000000000002633c        0x4 60000000
 .text.memcpy   0x0000000000026340      0x11c /usr/local/ps3dev/ppu/lib/gcc/powerpc64-ps3-elf/7.2.0/../../../../powerpc64-ps3-elf/lib/libc.a(lib_a-memcpy.o)
 .text          0x000000000002645c        0x0 /usr/local/ps3dev/ppu/lib/gcc/powerpc64-ps3-elf/7.2.0/../../../../powerpc64-ps3-elf/lib/libc.a(lib_a-memset.o)
 *fill*         0x000000000002645c        0x4 60000000
 .text.memset   0x0000000000026460      0x138 /usr/local/ps3dev/ppu/lib/gcc/powerpc64-ps3-elf/7.2.0/../../../../powerpc64-ps3-elf/lib/libc.a(lib_a-memset.o)
 .text          0x0000000000026598        0x0 /usr/local/ps3dev/ppu/lib/gcc/powerpc64-ps3-elf/7.2.0/../../../../powerpc64-ps3-elf/lib/libc.a(lib_a-mlock.o)
 .text.__malloc_lock
                0x0000000000026598       0x34 /usr/local/ps3dev/ppu/lib/gcc/powerpc64-ps3-elf/7.2.0/../../../../powerpc64-ps3-elf/lib/libc.a(lib_a-mlock.o)
 *fill*         0x00000000000265cc        0x4 60000000
 .text.__malloc_unlock
                0x00000000000265d0       0x34 /usr/local/ps3dev/ppu/lib/gcc/powerpc64-ps3-elf/7.2.0/../../../../powerpc64-ps3-elf/lib/libc.a(lib_a-mlock.o)
 .text          0x0000000000026604        0x0 /usr/local/ps3dev/ppu/lib/gcc/powerpc64-ps3-elf/7.2.0/../../../../powerpc64-ps3-elf/lib/libc.a(lib_a-printf.o)
 *fill*         0x0000000000026604        0x4 60000000
 .text._printf_r
                0x0000000000026608       0x54 /usr/local/ps3dev/ppu/lib/gcc/powerpc64-ps3-elf/7.2.0/../../../../powerpc64-ps3-elf/lib/libc.a(lib_a-printf.o)
 *fill*         0x000000000002665c        0x4 60000000
 .text.printf   0x0000000000026660       0x6c /usr/local/ps3dev/ppu/lib/gcc/powerpc64-ps3-elf/7.2.0/../../../../powerpc64-ps3-elf/lib/libc.a(lib_a-printf.o)
 .text          0x00000000000266cc        0x0 /usr/local/ps3dev/ppu/lib/gcc/powerpc64-ps3-elf/7.2.0/../../../../powerpc64-ps3-elf/lib/libc.a(lib_a-puts.o)
 *fill*         0x00000000000266cc        0x4 60000000
 .text._puts_r  0x00000000000266d0       0xfc /usr/local/ps3dev/ppu/lib/gcc/powerpc64-ps3-elf/7.2.0/../../../../powerpc64-ps3-elf/lib/libc.a(lib_a-puts.o)
 *fill*         0x00000000000267cc        0x4 60000000
 .text.puts     0x00000000000267d0       0x40 /usr/local/ps3dev/ppu/lib/gcc/powerpc64-ps3-elf/7.2.0/../../../../powerpc64-ps3-elf/lib/libc.a(lib_a-puts.o)
 .text          0x0000000000026810        0x0 /usr/local/ps3dev/ppu/lib/gcc/powerpc64-ps3-elf/7.2.0/../../../../powerpc64-ps3-elf/lib/libc.a(lib_a-realloc.o)
 .text.realloc  0x0000000000026810       0x58 /usr/local/ps3dev/ppu/lib/gcc/powerpc64-ps3-elf/7.2.0/../../../../powerpc64-ps3-elf/lib/libc.a(lib_a-realloc.o)
 .text          0x0000000000026868        0x0 /usr/local/ps3dev/ppu/lib/gcc/powerpc64-ps3-elf/7.2.0/../../../../powerpc64-ps3-elf/lib/libc.a(lib_a-reallocr.o)
 .text._realloc_r
                0x0000000000026868      0x6c4 /usr/local/ps3dev/ppu/lib/gcc/powerpc64-ps3-elf/7.2.0/../../../../powerpc64-ps3-elf/lib/libc.a(lib_a-reallocr.o)
 .text          0x0000000000026f2c        0x0 /usr/local/ps3dev/ppu/lib/gcc/powerpc64-ps3-elf/7.2.0/../../../../powerpc64-ps3-elf/lib/libc.a(lib_a-refill.o)
 *fill*         0x0000000000026f2c        0x4 60000000
 .text.lflush   0x0000000000026f30       0x50 /usr/local/ps3dev/ppu/lib/gcc/powerpc64-ps3-elf/7.2.0/../../../../powerpc64-ps3-elf/lib/libc.a(lib_a-refill.o)
 .text.__srefill_r
                0x0000000000026f80      0x30c /usr/local/ps3dev/ppu/lib/gcc/powerpc64-ps3-elf/7.2.0/../../../../powerpc64-ps3-elf/lib/libc.a(lib_a-refill.o)
 .text          0x000000000002728c        0x0 /usr/local/ps3dev/ppu/lib/gcc/powerpc64-ps3-elf/7.2.0/../../../../powerpc64-ps3-elf/lib/libc.a(lib_a-rewind.o)
 *fill*         0x000000000002728c        0x4 60000000
 .text._rewind_r
                0x0000000000027290       0x50 /usr/local/ps3dev/ppu/lib/gcc/powerpc64-ps3-elf/7.2.0/../../../../powerpc64-ps3-elf/lib/libc.a(lib_a-rewind.o)
 .text.rewind   0x00000000000272e0       0x5c /usr/local/ps3dev/ppu/lib/gcc/powerpc64-ps3-elf/7.2.0/../../../../powerpc64-ps3-elf/lib/libc.a(lib_a-rewind.o)
 .text          0x000000000002733c        0x0 /usr/local/ps3dev/ppu/lib/gcc/powerpc64-ps3-elf/7.2.0/../../../../powerpc64-ps3-elf/lib/libc.a(lib_a-sscanf.o)
 *fill*         0x000000000002733c        0x4 60000000
 .text.sscanf   0x0000000000027340       0xa8 /usr/local/ps3dev/ppu/lib/gcc/powerpc64-ps3-elf/7.2.0/../../../../powerpc64-ps3-elf/lib/libc.a(lib_a-sscanf.o)
 .text._sscanf_r
                0x00000000000273e8       0xa8 /usr/local/ps3dev/ppu/lib/gcc/powerpc64-ps3-elf/7.2.0/../../../../powerpc64-ps3-elf/lib/libc.a(lib_a-sscanf.o)
 .text          0x0000000000027490        0x0 /usr/local/ps3dev/ppu/lib/gcc/powerpc64-ps3-elf/7.2.0/../../../../powerpc64-ps3-elf/lib/libc.a(lib_a-stdio.o)
 .text.__sread  0x0000000000027490       0x7c /usr/local/ps3dev/ppu/lib/gcc/powerpc64-ps3-elf/7.2.0/../../../../powerpc64-ps3-elf/lib/libc.a(lib_a-stdio.o)
 *fill*         0x000000000002750c        0x4 60000000
 .text.__seofread
                0x0000000000027510       0x14 /usr/local/ps3dev/ppu/lib/gcc/powerpc64-ps3-elf/7.2.0/../../../../powerpc64-ps3-elf/lib/libc.a(lib_a-stdio.o)
 *fill*         0x0000000000027524        0x4 60000000
 .text.__swrite
                0x0000000000027528       0xb0 /usr/local/ps3dev/ppu/lib/gcc/powerpc64-ps3-elf/7.2.0/../../../../powerpc64-ps3-elf/lib/libc.a(lib_a-stdio.o)
 .text.__sseek  0x00000000000275d8       0x78 /usr/local/ps3dev/ppu/lib/gcc/powerpc64-ps3-elf/7.2.0/../../../../powerpc64-ps3-elf/lib/libc.a(lib_a-stdio.o)
 .text.__sclose
                0x0000000000027650       0x38 /usr/local/ps3dev/ppu/lib/gcc/powerpc64-ps3-elf/7.2.0/../../../../powerpc64-ps3-elf/lib/libc.a(lib_a-stdio.o)
 .text          0x0000000000027688        0x0 /usr/local/ps3dev/ppu/lib/gcc/powerpc64-ps3-elf/7.2.0/../../../../powerpc64-ps3-elf/lib/libc.a(lib_a-strcasecmp.o)
 .text.strcasecmp
                0x0000000000027688       0x8c /usr/local/ps3dev/ppu/lib/gcc/powerpc64-ps3-elf/7.2.0/../../../../powerpc64-ps3-elf/lib/libc.a(lib_a-strcasecmp.o)
 .text          0x0000000000027714        0x0 /usr/local/ps3dev/ppu/lib/gcc/powerpc64-ps3-elf/7.2.0/../../../../powerpc64-ps3-elf/lib/libc.a(lib_a-strchr.o)
 *fill*         0x0000000000027714        0x4 60000000
 .text.strchr   0x0000000000027718      0x1c0 /usr/local/ps3dev/ppu/lib/gcc/powerpc64-ps3-elf/7.2.0/../../../../powerpc64-ps3-elf/lib/libc.a(lib_a-strchr.o)
 .text          0x00000000000278d8        0x0 /usr/local/ps3dev/ppu/lib/gcc/powerpc64-ps3-elf/7.2.0/../../../../powerpc64-ps3-elf/lib/libc.a(lib_a-strcpy.o)
 .text.strcpy   0x00000000000278d8       0xc0 /usr/local/ps3dev/ppu/lib/gcc/powerpc64-ps3-elf/7.2.0/../../../../powerpc64-ps3-elf/lib/libc.a(lib_a-strcpy.o)
 .text          0x0000000000027998        0x0 /usr/local/ps3dev/ppu/lib/gcc/powerpc64-ps3-elf/7.2.0/../../../../powerpc64-ps3-elf/lib/libc.a(lib_a-strdup.o)
 .text.strdup   0x0000000000027998       0x48 /usr/local/ps3dev/ppu/lib/gcc/powerpc64-ps3-elf/7.2.0/../../../../powerpc64-ps3-elf/lib/libc.a(lib_a-strdup.o)
 .text          0x00000000000279e0        0x0 /usr/local/ps3dev/ppu/lib/gcc/powerpc64-ps3-elf/7.2.0/../../../../powerpc64-ps3-elf/lib/libc.a(lib_a-strdup_r.o)
 .text._strdup_r
                0x00000000000279e0       0x88 /usr/local/ps3dev/ppu/lib/gcc/powerpc64-ps3-elf/7.2.0/../../../../powerpc64-ps3-elf/lib/libc.a(lib_a-strdup_r.o)
 .text          0x0000000000027a68        0x0 /usr/local/ps3dev/ppu/lib/gcc/powerpc64-ps3-elf/7.2.0/../../../../powerpc64-ps3-elf/lib/libc.a(lib_a-strlen.o)
 .text.strlen   0x0000000000027a68       0xc4 /usr/local/ps3dev/ppu/lib/gcc/powerpc64-ps3-elf/7.2.0/../../../../powerpc64-ps3-elf/lib/libc.a(lib_a-strlen.o)
 .text          0x0000000000027b2c        0x0 /usr/local/ps3dev/ppu/lib/gcc/powerpc64-ps3-elf/7.2.0/../../../../powerpc64-ps3-elf/lib/libc.a(lib_a-strncat.o)
 *fill*         0x0000000000027b2c        0x4 60000000
 .text.strncat  0x0000000000027b30       0xe0 /usr/local/ps3dev/ppu/lib/gcc/powerpc64-ps3-elf/7.2.0/../../../../powerpc64-ps3-elf/lib/libc.a(lib_a-strncat.o)
 .text          0x0000000000027c10        0x0 /usr/local/ps3dev/ppu/lib/gcc/powerpc64-ps3-elf/7.2.0/../../../../powerpc64-ps3-elf/lib/libc.a(lib_a-strncpy.o)
 .text.strncpy  0x0000000000027c10      0x118 /usr/local/ps3dev/ppu/lib/gcc/powerpc64-ps3-elf/7.2.0/../../../../powerpc64-ps3-elf/lib/libc.a(lib_a-strncpy.o)
 .text          0x0000000000027d28        0x0 /usr/local/ps3dev/ppu/lib/gcc/powerpc64-ps3-elf/7.2.0/../../../../powerpc64-ps3-elf/lib/libc.a(lib_a-svfscanf.o)
 .text.__ssvfscanf_r
                0x0000000000027d28     0x1864 /usr/local/ps3dev/ppu/lib/gcc/powerpc64-ps3-elf/7.2.0/../../../../powerpc64-ps3-elf/lib/libc.a(lib_a-svfscanf.o)
 .text          0x000000000002958c        0x0 /usr/local/ps3dev/ppu/lib/gcc/powerpc64-ps3-elf/7.2.0/../../../../powerpc64-ps3-elf/lib/libc.a(lib_a-time.o)
 *fill*         0x000000000002958c        0x4 60000000
 .text.time     0x0000000000029590       0x6c /usr/local/ps3dev/ppu/lib/gcc/powerpc64-ps3-elf/7.2.0/../../../../powerpc64-ps3-elf/lib/libc.a(lib_a-time.o)
 .text          0x00000000000295fc        0x0 /usr/local/ps3dev/ppu/lib/gcc/powerpc64-ps3-elf/7.2.0/../../../../powerpc64-ps3-elf/lib/libc.a(lib_a-vfprintf.o)
 *fill*         0x00000000000295fc        0x4 60000000
 .text._vfprintf_r
                0x0000000000029600     0x2300 /usr/local/ps3dev/ppu/lib/gcc/powerpc64-ps3-elf/7.2.0/../../../../powerpc64-ps3-elf/lib/libc.a(lib_a-vfprintf.o)
 .text.vfprintf
                0x000000000002b900       0x60 /usr/local/ps3dev/ppu/lib/gcc/powerpc64-ps3-elf/7.2.0/../../../../powerpc64-ps3-elf/lib/libc.a(lib_a-vfprintf.o)
 .text          0x000000000002b960        0x0 /usr/local/ps3dev/ppu/lib/gcc/powerpc64-ps3-elf/7.2.0/../../../../powerpc64-ps3-elf/lib/libc.a(lib_a-wsetup.o)
 .text.__swsetup_r
                0x000000000002b960      0x1f0 /usr/local/ps3dev/ppu/lib/gcc/powerpc64-ps3-elf/7.2.0/../../../../powerpc64-ps3-elf/lib/libc.a(lib_a-wsetup.o)
 .text          0x000000000002bb50        0x0 /usr/local/ps3dev/ppu/lib/gcc/powerpc64-ps3-elf/7.2.0/../../../../powerpc64-ps3-elf/lib/libc.a(lib_a-__call_atexit.o)
 .text.__call_exitprocs
                0x000000000002bb50      0x24c /usr/local/ps3dev/ppu/lib/gcc/powerpc64-ps3-elf/7.2.0/../../../../powerpc64-ps3-elf/lib/libc.a(lib_a-__call_atexit.o)
 .text          0x000000000002bd9c        0x0 /usr/local/ps3dev/ppu/lib/gcc/powerpc64-ps3-elf/7.2.0/../../../../powerpc64-ps3-elf/lib/libc.a(lib_a-ctype_.o)
 .text          0x000000000002bd9c        0x0 /usr/local/ps3dev/ppu/lib/gcc/powerpc64-ps3-elf/7.2.0/../../../../powerpc64-ps3-elf/lib/libc.a(lib_a-dtoa.o)
 *fill*         0x000000000002bd9c        0x4 60000000
 .text.quorem   0x000000000002bda0      0x26c /usr/local/ps3dev/ppu/lib/gcc/powerpc64-ps3-elf/7.2.0/../../../../powerpc64-ps3-elf/lib/libc.a(lib_a-dtoa.o)
 *fill*         0x000000000002c00c        0x4 60000000
 .text._dtoa_r  0x000000000002c010     0x1478 /usr/local/ps3dev/ppu/lib/gcc/powerpc64-ps3-elf/7.2.0/../../../../powerpc64-ps3-elf/lib/libc.a(lib_a-dtoa.o)
 .text          0x000000000002d488        0x0 /usr/local/ps3dev/ppu/lib/gcc/powerpc64-ps3-elf/7.2.0/../../../../powerpc64-ps3-elf/lib/libc.a(lib_a-flags.o)
 .text.__sflags
                0x000000000002d488       0xbc /usr/local/ps3dev/ppu/lib/gcc/powerpc64-ps3-elf/7.2.0/../../../../powerpc64-ps3-elf/lib/libc.a(lib_a-flags.o)
 .text          0x000000000002d544        0x0 /usr/local/ps3dev/ppu/lib/gcc/powerpc64-ps3-elf/7.2.0/../../../../powerpc64-ps3-elf/lib/libc.a(lib_a-fvwrite.o)
 *fill*         0x000000000002d544        0x4 60000000
 .text.__sfvwrite_r
                0x000000000002d548      0x688 /usr/local/ps3dev/ppu/lib/gcc/powerpc64-ps3-elf/7.2.0/../../../../powerpc64-ps3-elf/lib/libc.a(lib_a-fvwrite.o)
 .text          0x000000000002dbd0        0x0 /usr/local/ps3dev/ppu/lib/gcc/powerpc64-ps3-elf/7.2.0/../../../../powerpc64-ps3-elf/lib/libc.a(lib_a-iswspace.o)
 .text.iswspace
                0x000000000002dbd0       0x3c /usr/local/ps3dev/ppu/lib/gcc/powerpc64-ps3-elf/7.2.0/../../../../powerpc64-ps3-elf/lib/libc.a(lib_a-iswspace.o)
 .text          0x000000000002dc0c        0x0 /usr/local/ps3dev/ppu/lib/gcc/powerpc64-ps3-elf/7.2.0/../../../../powerpc64-ps3-elf/lib/libc.a(lib_a-locale.o)
 *fill*         0x000000000002dc0c        0x4 60000000
 .text._setlocale_r
                0x000000000002dc10       0xb4 /usr/local/ps3dev/ppu/lib/gcc/powerpc64-ps3-elf/7.2.0/../../../../powerpc64-ps3-elf/lib/libc.a(lib_a-locale.o)
 *fill*         0x000000000002dcc4        0x4 60000000
 .text.__locale_charset
                0x000000000002dcc8       0x14 /usr/local/ps3dev/ppu/lib/gcc/powerpc64-ps3-elf/7.2.0/../../../../powerpc64-ps3-elf/lib/libc.a(lib_a-locale.o)
 *fill*         0x000000000002dcdc        0x4 60000000
 .text.__locale_mb_cur_max
                0x000000000002dce0       0x1c /usr/local/ps3dev/ppu/lib/gcc/powerpc64-ps3-elf/7.2.0/../../../../powerpc64-ps3-elf/lib/libc.a(lib_a-locale.o)
 *fill*         0x000000000002dcfc        0x4 60000000
 .text.__locale_msgcharset
                0x000000000002dd00       0x14 /usr/local/ps3dev/ppu/lib/gcc/powerpc64-ps3-elf/7.2.0/../../../../powerpc64-ps3-elf/lib/libc.a(lib_a-locale.o)
 *fill*         0x000000000002dd14        0x4 60000000
 .text.__locale_cjk_lang
                0x000000000002dd18       0x14 /usr/local/ps3dev/ppu/lib/gcc/powerpc64-ps3-elf/7.2.0/../../../../powerpc64-ps3-elf/lib/libc.a(lib_a-locale.o)
 *fill*         0x000000000002dd2c        0x4 60000000
 .text._localeconv_r
                0x000000000002dd30       0x14 /usr/local/ps3dev/ppu/lib/gcc/powerpc64-ps3-elf/7.2.0/../../../../powerpc64-ps3-elf/lib/libc.a(lib_a-locale.o)
 *fill*         0x000000000002dd44        0x4 60000000
 .text.setlocale
                0x000000000002dd48       0x50 /usr/local/ps3dev/ppu/lib/gcc/powerpc64-ps3-elf/7.2.0/../../../../powerpc64-ps3-elf/lib/libc.a(lib_a-locale.o)
 .text.localeconv
                0x000000000002dd98       0x34 /usr/local/ps3dev/ppu/lib/gcc/powerpc64-ps3-elf/7.2.0/../../../../powerpc64-ps3-elf/lib/libc.a(lib_a-locale.o)
 .text          0x000000000002ddcc        0x0 /usr/local/ps3dev/ppu/lib/gcc/powerpc64-ps3-elf/7.2.0/../../../../powerpc64-ps3-elf/lib/libc.a(lib_a-lock_internal.o)
 *fill*         0x000000000002ddcc        0x4 60000000
 .text.startup.init_metalock
                0x000000000002ddd0       0x48 /usr/local/ps3dev/ppu/lib/gcc/powerpc64-ps3-elf/7.2.0/../../../../powerpc64-ps3-elf/lib/libc.a(lib_a-lock_internal.o)
 .text.__libc_auto_lock_allocate
                0x000000000002de18       0x9c /usr/local/ps3dev/ppu/lib/gcc/powerpc64-ps3-elf/7.2.0/../../../../powerpc64-ps3-elf/lib/libc.a(lib_a-lock_internal.o)
 .text          0x000000000002deb4        0x0 /usr/local/ps3dev/ppu/lib/gcc/powerpc64-ps3-elf/7.2.0/../../../../powerpc64-ps3-elf/lib/libc.a(lib_a-mbrtowc.o)
 *fill*         0x000000000002deb4        0x4 60000000
 .text._mbrtowc_r
                0x000000000002deb8      0x128 /usr/local/ps3dev/ppu/lib/gcc/powerpc64-ps3-elf/7.2.0/../../../../powerpc64-ps3-elf/lib/libc.a(lib_a-mbrtowc.o)
 .text.mbrtowc  0x000000000002dfe0      0x164 /usr/local/ps3dev/ppu/lib/gcc/powerpc64-ps3-elf/7.2.0/../../../../powerpc64-ps3-elf/lib/libc.a(lib_a-mbrtowc.o)
 .text          0x000000000002e144        0x0 /usr/local/ps3dev/ppu/lib/gcc/powerpc64-ps3-elf/7.2.0/../../../../powerpc64-ps3-elf/lib/libc.a(lib_a-mbtowc_r.o)
 *fill*         0x000000000002e144        0x4 60000000
 .text.__ascii_mbtowc
                0x000000000002e148       0x64 /usr/local/ps3dev/ppu/lib/gcc/powerpc64-ps3-elf/7.2.0/../../../../powerpc64-ps3-elf/lib/libc.a(lib_a-mbtowc_r.o)
 *fill*         0x000000000002e1ac        0x4 60000000
 .text._mbtowc_r
                0x000000000002e1b0       0x98 /usr/local/ps3dev/ppu/lib/gcc/powerpc64-ps3-elf/7.2.0/../../../../powerpc64-ps3-elf/lib/libc.a(lib_a-mbtowc_r.o)
 .text          0x000000000002e248        0x0 /usr/local/ps3dev/ppu/lib/gcc/powerpc64-ps3-elf/7.2.0/../../../../powerpc64-ps3-elf/lib/libc.a(lib_a-memchr.o)
 .text.memchr   0x000000000002e248      0x130 /usr/local/ps3dev/ppu/lib/gcc/powerpc64-ps3-elf/7.2.0/../../../../powerpc64-ps3-elf/lib/libc.a(lib_a-memchr.o)
 .text          0x000000000002e378        0x0 /usr/local/ps3dev/ppu/lib/gcc/powerpc64-ps3-elf/7.2.0/../../../../powerpc64-ps3-elf/lib/libc.a(lib_a-memmove.o)
 .text.memmove  0x000000000002e378      0x154 /usr/local/ps3dev/ppu/lib/gcc/powerpc64-ps3-elf/7.2.0/../../../../powerpc64-ps3-elf/lib/libc.a(lib_a-memmove.o)
 .text          0x000000000002e4cc        0x0 /usr/local/ps3dev/ppu/lib/gcc/powerpc64-ps3-elf/7.2.0/../../../../powerpc64-ps3-elf/lib/libc.a(lib_a-mprec.o)
 *fill*         0x000000000002e4cc        0x4 60000000
 .text._Balloc  0x000000000002e4d0       0xfc /usr/local/ps3dev/ppu/lib/gcc/powerpc64-ps3-elf/7.2.0/../../../../powerpc64-ps3-elf/lib/libc.a(lib_a-mprec.o)
 *fill*         0x000000000002e5cc        0x4 60000000
 .text._Bfree   0x000000000002e5d0       0x34 /usr/local/ps3dev/ppu/lib/gcc/powerpc64-ps3-elf/7.2.0/../../../../powerpc64-ps3-elf/lib/libc.a(lib_a-mprec.o)
 *fill*         0x000000000002e604        0x4 60000000
 .text.__multadd
                0x000000000002e608      0x164 /usr/local/ps3dev/ppu/lib/gcc/powerpc64-ps3-elf/7.2.0/../../../../powerpc64-ps3-elf/lib/libc.a(lib_a-mprec.o)
 *fill*         0x000000000002e76c        0x4 60000000
 .text.__s2b    0x000000000002e770      0x174 /usr/local/ps3dev/ppu/lib/gcc/powerpc64-ps3-elf/7.2.0/../../../../powerpc64-ps3-elf/lib/libc.a(lib_a-mprec.o)
 *fill*         0x000000000002e8e4        0x4 60000000
 .text.__hi0bits
                0x000000000002e8e8       0x9c /usr/local/ps3dev/ppu/lib/gcc/powerpc64-ps3-elf/7.2.0/../../../../powerpc64-ps3-elf/lib/libc.a(lib_a-mprec.o)
 *fill*         0x000000000002e984        0x4 60000000
 .text.__lo0bits
                0x000000000002e988       0xf4 /usr/local/ps3dev/ppu/lib/gcc/powerpc64-ps3-elf/7.2.0/../../../../powerpc64-ps3-elf/lib/libc.a(lib_a-mprec.o)
 *fill*         0x000000000002ea7c        0x4 60000000
 .text.__i2b    0x000000000002ea80       0x48 /usr/local/ps3dev/ppu/lib/gcc/powerpc64-ps3-elf/7.2.0/../../../../powerpc64-ps3-elf/lib/libc.a(lib_a-mprec.o)
 .text.__multiply
                0x000000000002eac8      0x2a8 /usr/local/ps3dev/ppu/lib/gcc/powerpc64-ps3-elf/7.2.0/../../../../powerpc64-ps3-elf/lib/libc.a(lib_a-mprec.o)
 .text.__pow5mult
                0x000000000002ed70      0x19c /usr/local/ps3dev/ppu/lib/gcc/powerpc64-ps3-elf/7.2.0/../../../../powerpc64-ps3-elf/lib/libc.a(lib_a-mprec.o)
 *fill*         0x000000000002ef0c        0x4 60000000
 .text.__lshift
                0x000000000002ef10      0x1c0 /usr/local/ps3dev/ppu/lib/gcc/powerpc64-ps3-elf/7.2.0/../../../../powerpc64-ps3-elf/lib/libc.a(lib_a-mprec.o)
 .text.__mcmp   0x000000000002f0d0       0x70 /usr/local/ps3dev/ppu/lib/gcc/powerpc64-ps3-elf/7.2.0/../../../../powerpc64-ps3-elf/lib/libc.a(lib_a-mprec.o)
 .text.__mdiff  0x000000000002f140      0x244 /usr/local/ps3dev/ppu/lib/gcc/powerpc64-ps3-elf/7.2.0/../../../../powerpc64-ps3-elf/lib/libc.a(lib_a-mprec.o)
 *fill*         0x000000000002f384        0x4 60000000
 .text.__ulp    0x000000000002f388       0x88 /usr/local/ps3dev/ppu/lib/gcc/powerpc64-ps3-elf/7.2.0/../../../../powerpc64-ps3-elf/lib/libc.a(lib_a-mprec.o)
 .text.__b2d    0x000000000002f410      0x1a4 /usr/local/ps3dev/ppu/lib/gcc/powerpc64-ps3-elf/7.2.0/../../../../powerpc64-ps3-elf/lib/libc.a(lib_a-mprec.o)
 *fill*         0x000000000002f5b4        0x4 60000000
 .text.__d2b    0x000000000002f5b8      0x1ac /usr/local/ps3dev/ppu/lib/gcc/powerpc64-ps3-elf/7.2.0/../../../../powerpc64-ps3-elf/lib/libc.a(lib_a-mprec.o)
 *fill*         0x000000000002f764        0x4 60000000
 .text.__ratio  0x000000000002f768       0xe8 /usr/local/ps3dev/ppu/lib/gcc/powerpc64-ps3-elf/7.2.0/../../../../powerpc64-ps3-elf/lib/libc.a(lib_a-mprec.o)
 .text._mprec_log10
                0x000000000002f850       0x54 /usr/local/ps3dev/ppu/lib/gcc/powerpc64-ps3-elf/7.2.0/../../../../powerpc64-ps3-elf/lib/libc.a(lib_a-mprec.o)
 *fill*         0x000000000002f8a4        0x4 60000000
 .text.__copybits
                0x000000000002f8a8       0xa0 /usr/local/ps3dev/ppu/lib/gcc/powerpc64-ps3-elf/7.2.0/../../../../powerpc64-ps3-elf/lib/libc.a(lib_a-mprec.o)
 .text.__any_on
                0x000000000002f948       0xac /usr/local/ps3dev/ppu/lib/gcc/powerpc64-ps3-elf/7.2.0/../../../../powerpc64-ps3-elf/lib/libc.a(lib_a-mprec.o)
 .text          0x000000000002f9f4        0x0 /usr/local/ps3dev/ppu/lib/gcc/powerpc64-ps3-elf/7.2.0/../../../../powerpc64-ps3-elf/lib/libc.a(lib_a-sccl.o)
 *fill*         0x000000000002f9f4        0x4 60000000
 .text.__sccl   0x000000000002f9f8      0x120 /usr/local/ps3dev/ppu/lib/gcc/powerpc64-ps3-elf/7.2.0/../../../../powerpc64-ps3-elf/lib/libc.a(lib_a-sccl.o)
 .text          0x000000000002fb18        0x0 /usr/local/ps3dev/ppu/lib/gcc/powerpc64-ps3-elf/7.2.0/../../../../powerpc64-ps3-elf/lib/libc.a(lib_a-sf_nan.o)
 .text.nanf     0x000000000002fb18       0x18 /usr/local/ps3dev/ppu/lib/gcc/powerpc64-ps3-elf/7.2.0/../../../../powerpc64-ps3-elf/lib/libc.a(lib_a-sf_nan.o)
 .text          0x000000000002fb30        0x0 /usr/local/ps3dev/ppu/lib/gcc/powerpc64-ps3-elf/7.2.0/../../../../powerpc64-ps3-elf/lib/libc.a(lib_a-s_fpclassify.o)
 .text.__fpclassifyd
                0x000000000002fb30       0xb8 /usr/local/ps3dev/ppu/lib/gcc/powerpc64-ps3-elf/7.2.0/../../../../powerpc64-ps3-elf/lib/libc.a(lib_a-s_fpclassify.o)
 .text          0x000000000002fbe8        0x0 /usr/local/ps3dev/ppu/lib/gcc/powerpc64-ps3-elf/7.2.0/../../../../powerpc64-ps3-elf/lib/libc.a(lib_a-sprintf.o)
 .text._sprintf_r
                0x000000000002fbe8       0x84 /usr/local/ps3dev/ppu/lib/gcc/powerpc64-ps3-elf/7.2.0/../../../../powerpc64-ps3-elf/lib/libc.a(lib_a-sprintf.o)
 *fill*         0x000000000002fc6c        0x4 60000000
 .text.sprintf  0x000000000002fc70       0xa0 /usr/local/ps3dev/ppu/lib/gcc/powerpc64-ps3-elf/7.2.0/../../../../powerpc64-ps3-elf/lib/libc.a(lib_a-sprintf.o)
 .text          0x000000000002fd10        0x0 /usr/local/ps3dev/ppu/lib/gcc/powerpc64-ps3-elf/7.2.0/../../../../powerpc64-ps3-elf/lib/libc.a(lib_a-strcmp.o)
 .text.strcmp   0x000000000002fd10       0xf4 /usr/local/ps3dev/ppu/lib/gcc/powerpc64-ps3-elf/7.2.0/../../../../powerpc64-ps3-elf/lib/libc.a(lib_a-strcmp.o)
 .text          0x000000000002fe04        0x0 /usr/local/ps3dev/ppu/lib/gcc/powerpc64-ps3-elf/7.2.0/../../../../powerpc64-ps3-elf/lib/libc.a(lib_a-strtod.o)
 *fill*         0x000000000002fe04        0x4 60000000
 .text._strtod_r
                0x000000000002fe08     0x1630 /usr/local/ps3dev/ppu/lib/gcc/powerpc64-ps3-elf/7.2.0/../../../../powerpc64-ps3-elf/lib/libc.a(lib_a-strtod.o)
 .text.strtod   0x0000000000031438       0x50 /usr/local/ps3dev/ppu/lib/gcc/powerpc64-ps3-elf/7.2.0/../../../../powerpc64-ps3-elf/lib/libc.a(lib_a-strtod.o)
 .text.strtof   0x0000000000031488       0x98 /usr/local/ps3dev/ppu/lib/gcc/powerpc64-ps3-elf/7.2.0/../../../../powerpc64-ps3-elf/lib/libc.a(lib_a-strtod.o)
 .text          0x0000000000031520        0x0 /usr/local/ps3dev/ppu/lib/gcc/powerpc64-ps3-elf/7.2.0/../../../../powerpc64-ps3-elf/lib/libc.a(lib_a-strtoll_r.o)
 .text._strtoll_r
                0x0000000000031520      0x264 /usr/local/ps3dev/ppu/lib/gcc/powerpc64-ps3-elf/7.2.0/../../../../powerpc64-ps3-elf/lib/libc.a(lib_a-strtoll_r.o)
 .text          0x0000000000031784        0x0 /usr/local/ps3dev/ppu/lib/gcc/powerpc64-ps3-elf/7.2.0/../../../../powerpc64-ps3-elf/lib/libc.a(lib_a-strtol.o)
 *fill*         0x0000000000031784        0x4 60000000
 .text._strtol_r
                0x0000000000031788      0x264 /usr/local/ps3dev/ppu/lib/gcc/powerpc64-ps3-elf/7.2.0/../../../../powerpc64-ps3-elf/lib/libc.a(lib_a-strtol.o)
 *fill*         0x00000000000319ec        0x4 60000000
 .text.strtol   0x00000000000319f0       0x60 /usr/local/ps3dev/ppu/lib/gcc/powerpc64-ps3-elf/7.2.0/../../../../powerpc64-ps3-elf/lib/libc.a(lib_a-strtol.o)
 .text          0x0000000000031a50        0x0 /usr/local/ps3dev/ppu/lib/gcc/powerpc64-ps3-elf/7.2.0/../../../../powerpc64-ps3-elf/lib/libc.a(lib_a-strtoull_r.o)
 .text._strtoull_r
                0x0000000000031a50      0x268 /usr/local/ps3dev/ppu/lib/gcc/powerpc64-ps3-elf/7.2.0/../../../../powerpc64-ps3-elf/lib/libc.a(lib_a-strtoull_r.o)
 .text          0x0000000000031cb8        0x0 /usr/local/ps3dev/ppu/lib/gcc/powerpc64-ps3-elf/7.2.0/../../../../powerpc64-ps3-elf/lib/libc.a(lib_a-strtoul.o)
 .text._strtoul_r
                0x0000000000031cb8      0x268 /usr/local/ps3dev/ppu/lib/gcc/powerpc64-ps3-elf/7.2.0/../../../../powerpc64-ps3-elf/lib/libc.a(lib_a-strtoul.o)
 .text.strtoul  0x0000000000031f20       0x60 /usr/local/ps3dev/ppu/lib/gcc/powerpc64-ps3-elf/7.2.0/../../../../powerpc64-ps3-elf/lib/libc.a(lib_a-strtoul.o)
 .text          0x0000000000031f80        0x0 /usr/local/ps3dev/ppu/lib/gcc/powerpc64-ps3-elf/7.2.0/../../../../powerpc64-ps3-elf/lib/libc.a(lib_a-svfiscanf.o)
 .text._sungetc_r
                0x0000000000031f80      0x154 /usr/local/ps3dev/ppu/lib/gcc/powerpc64-ps3-elf/7.2.0/../../../../powerpc64-ps3-elf/lib/libc.a(lib_a-svfiscanf.o)
 *fill*         0x00000000000320d4        0x4 60000000
 .text.__ssrefill_r
                0x00000000000320d8       0xa0 /usr/local/ps3dev/ppu/lib/gcc/powerpc64-ps3-elf/7.2.0/../../../../powerpc64-ps3-elf/lib/libc.a(lib_a-svfiscanf.o)
 .text._sfread_r
                0x0000000000032178      0x130 /usr/local/ps3dev/ppu/lib/gcc/powerpc64-ps3-elf/7.2.0/../../../../powerpc64-ps3-elf/lib/libc.a(lib_a-svfiscanf.o)
 .text.__ssvfiscanf_r
                0x00000000000322a8     0x118c /usr/local/ps3dev/ppu/lib/gcc/powerpc64-ps3-elf/7.2.0/../../../../powerpc64-ps3-elf/lib/libc.a(lib_a-svfiscanf.o)
 .text          0x0000000000033434        0x0 /usr/local/ps3dev/ppu/lib/gcc/powerpc64-ps3-elf/7.2.0/../../../../powerpc64-ps3-elf/lib/libc.a(lib_a-svfprintf.o)
 *fill*         0x0000000000033434        0x4 60000000
 .text._svfprintf_r
                0x0000000000033438     0x21c4 /usr/local/ps3dev/ppu/lib/gcc/powerpc64-ps3-elf/7.2.0/../../../../powerpc64-ps3-elf/lib/libc.a(lib_a-svfprintf.o)
 .text          0x00000000000355fc        0x0 /usr/local/ps3dev/ppu/lib/gcc/powerpc64-ps3-elf/7.2.0/../../../../powerpc64-ps3-elf/lib/libc.a(lib_a-ungetc.o)
 *fill*         0x00000000000355fc        0x4 60000000
 .text.__submore
                0x0000000000035600      0x128 /usr/local/ps3dev/ppu/lib/gcc/powerpc64-ps3-elf/7.2.0/../../../../powerpc64-ps3-elf/lib/libc.a(lib_a-ungetc.o)
 .text._ungetc_r
                0x0000000000035728      0x2a8 /usr/local/ps3dev/ppu/lib/gcc/powerpc64-ps3-elf/7.2.0/../../../../powerpc64-ps3-elf/lib/libc.a(lib_a-ungetc.o)
 .text.ungetc   0x00000000000359d0       0x50 /usr/local/ps3dev/ppu/lib/gcc/powerpc64-ps3-elf/7.2.0/../../../../powerpc64-ps3-elf/lib/libc.a(lib_a-ungetc.o)
 .text          0x0000000000035a20        0x0 /usr/local/ps3dev/ppu/lib/gcc/powerpc64-ps3-elf/7.2.0/../../../../powerpc64-ps3-elf/lib/libc.a(lib_a-vfiprintf.o)
 .text.__sprint_r.part.0
                0x0000000000035a20      0x160 /usr/local/ps3dev/ppu/lib/gcc/powerpc64-ps3-elf/7.2.0/../../../../powerpc64-ps3-elf/lib/libc.a(lib_a-vfiprintf.o)
 .text.__sprint_r
                0x0000000000035b80       0x28 /usr/local/ps3dev/ppu/lib/gcc/powerpc64-ps3-elf/7.2.0/../../../../powerpc64-ps3-elf/lib/libc.a(lib_a-vfiprintf.o)
 .text._vfiprintf_r
                0x0000000000035ba8     0x1500 /usr/local/ps3dev/ppu/lib/gcc/powerpc64-ps3-elf/7.2.0/../../../../powerpc64-ps3-elf/lib/libc.a(lib_a-vfiprintf.o)
 .text.vfiprintf
                0x00000000000370a8       0x60 /usr/local/ps3dev/ppu/lib/gcc/powerpc64-ps3-elf/7.2.0/../../../../powerpc64-ps3-elf/lib/libc.a(lib_a-vfiprintf.o)
 .text          0x0000000000037108        0x0 /usr/local/ps3dev/ppu/lib/gcc/powerpc64-ps3-elf/7.2.0/../../../../powerpc64-ps3-elf/lib/libc.a(lib_a-abort.o)
 .text.abort    0x0000000000037108       0x30 /usr/local/ps3dev/ppu/lib/gcc/powerpc64-ps3-elf/7.2.0/../../../../powerpc64-ps3-elf/lib/libc.a(lib_a-abort.o)
 .text          0x0000000000037138        0x0 /usr/local/ps3dev/ppu/lib/gcc/powerpc64-ps3-elf/7.2.0/../../../../powerpc64-ps3-elf/lib/libc.a(lib_a-__atexit.o)
 .text.__register_exitproc
                0x0000000000037138      0x184 /usr/local/ps3dev/ppu/lib/gcc/powerpc64-ps3-elf/7.2.0/../../../../powerpc64-ps3-elf/lib/libc.a(lib_a-__atexit.o)
 .text          0x00000000000372bc        0x0 /usr/local/ps3dev/ppu/lib/gcc/powerpc64-ps3-elf/7.2.0/../../../../powerpc64-ps3-elf/lib/libc.a(lib_a-fputwc.o)
 *fill*         0x00000000000372bc        0x4 60000000
 .text._fputwc_r
                0x00000000000372c0      0x238 /usr/local/ps3dev/ppu/lib/gcc/powerpc64-ps3-elf/7.2.0/../../../../powerpc64-ps3-elf/lib/libc.a(lib_a-fputwc.o)
 .text.fputwc   0x00000000000374f8       0xac /usr/local/ps3dev/ppu/lib/gcc/powerpc64-ps3-elf/7.2.0/../../../../powerpc64-ps3-elf/lib/libc.a(lib_a-fputwc.o)
 .text          0x00000000000375a4        0x0 /usr/local/ps3dev/ppu/lib/gcc/powerpc64-ps3-elf/7.2.0/../../../../powerpc64-ps3-elf/lib/libc.a(lib_a-gdtoa-gethex.o)
 *fill*         0x00000000000375a4        0x4 60000000
 .text.rshift   0x00000000000375a8      0x184 /usr/local/ps3dev/ppu/lib/gcc/powerpc64-ps3-elf/7.2.0/../../../../powerpc64-ps3-elf/lib/libc.a(lib_a-gdtoa-gethex.o)
 *fill*         0x000000000003772c        0x4 60000000
 .text.__hexdig_init
                0x0000000000037730       0xa0 /usr/local/ps3dev/ppu/lib/gcc/powerpc64-ps3-elf/7.2.0/../../../../powerpc64-ps3-elf/lib/libc.a(lib_a-gdtoa-gethex.o)
 .text.__gethex
                0x00000000000377d0      0x950 /usr/local/ps3dev/ppu/lib/gcc/powerpc64-ps3-elf/7.2.0/../../../../powerpc64-ps3-elf/lib/libc.a(lib_a-gdtoa-gethex.o)
 .text          0x0000000000038120        0x0 /usr/local/ps3dev/ppu/lib/gcc/powerpc64-ps3-elf/7.2.0/../../../../powerpc64-ps3-elf/lib/libc.a(lib_a-gdtoa-hexnan.o)
 .text.__hexnan
                0x0000000000038120      0x384 /usr/local/ps3dev/ppu/lib/gcc/powerpc64-ps3-elf/7.2.0/../../../../powerpc64-ps3-elf/lib/libc.a(lib_a-gdtoa-hexnan.o)
 .text          0x00000000000384a4        0x0 /usr/local/ps3dev/ppu/lib/gcc/powerpc64-ps3-elf/7.2.0/../../../../powerpc64-ps3-elf/lib/libc.a(lib_a-signal.o)
 *fill*         0x00000000000384a4        0x4 60000000
 .text._init_signal_r.part.0
                0x00000000000384a8       0x74 /usr/local/ps3dev/ppu/lib/gcc/powerpc64-ps3-elf/7.2.0/../../../../powerpc64-ps3-elf/lib/libc.a(lib_a-signal.o)
 *fill*         0x000000000003851c        0x4 60000000
 .text._init_signal_r
                0x0000000000038520       0x28 /usr/local/ps3dev/ppu/lib/gcc/powerpc64-ps3-elf/7.2.0/../../../../powerpc64-ps3-elf/lib/libc.a(lib_a-signal.o)
 .text._signal_r
                0x0000000000038548       0x98 /usr/local/ps3dev/ppu/lib/gcc/powerpc64-ps3-elf/7.2.0/../../../../powerpc64-ps3-elf/lib/libc.a(lib_a-signal.o)
 .text._raise_r
                0x00000000000385e0      0x13c /usr/local/ps3dev/ppu/lib/gcc/powerpc64-ps3-elf/7.2.0/../../../../powerpc64-ps3-elf/lib/libc.a(lib_a-signal.o)
 *fill*         0x000000000003871c        0x4 60000000
 .text.__sigtramp_r
                0x0000000000038720       0xfc /usr/local/ps3dev/ppu/lib/gcc/powerpc64-ps3-elf/7.2.0/../../../../powerpc64-ps3-elf/lib/libc.a(lib_a-signal.o)
 *fill*         0x000000000003881c        0x4 60000000
 .text.raise    0x0000000000038820       0x40 /usr/local/ps3dev/ppu/lib/gcc/powerpc64-ps3-elf/7.2.0/../../../../powerpc64-ps3-elf/lib/libc.a(lib_a-signal.o)
 .text.signal   0x0000000000038860       0xbc /usr/local/ps3dev/ppu/lib/gcc/powerpc64-ps3-elf/7.2.0/../../../../powerpc64-ps3-elf/lib/libc.a(lib_a-signal.o)
 *fill*         0x000000000003891c        0x4 60000000
 .text._init_signal
                0x0000000000038920       0x54 /usr/local/ps3dev/ppu/lib/gcc/powerpc64-ps3-elf/7.2.0/../../../../powerpc64-ps3-elf/lib/libc.a(lib_a-signal.o)
 *fill*         0x0000000000038974        0x4 60000000
 .text.__sigtramp
                0x0000000000038978       0x40 /usr/local/ps3dev/ppu/lib/gcc/powerpc64-ps3-elf/7.2.0/../../../../powerpc64-ps3-elf/lib/libc.a(lib_a-signal.o)
 .text          0x00000000000389b8        0x0 /usr/local/ps3dev/ppu/lib/gcc/powerpc64-ps3-elf/7.2.0/../../../../powerpc64-ps3-elf/lib/libc.a(lib_a-strncmp.o)
 .text.strncmp  0x00000000000389b8      0x12c /usr/local/ps3dev/ppu/lib/gcc/powerpc64-ps3-elf/7.2.0/../../../../powerpc64-ps3-elf/lib/libc.a(lib_a-strncmp.o)
 .text          0x0000000000038ae4        0x0 /usr/local/ps3dev/ppu/lib/gcc/powerpc64-ps3-elf/7.2.0/../../../../powerpc64-ps3-elf/lib/libc.a(lib_a-svfiprintf.o)
 *fill*         0x0000000000038ae4        0x4 60000000
 .text.__ssprint_r
                0x0000000000038ae8      0x2b4 /usr/local/ps3dev/ppu/lib/gcc/powerpc64-ps3-elf/7.2.0/../../../../powerpc64-ps3-elf/lib/libc.a(lib_a-svfiprintf.o)
 *fill*         0x0000000000038d9c        0x4 60000000
 .text._svfiprintf_r
                0x0000000000038da0     0x1148 /usr/local/ps3dev/ppu/lib/gcc/powerpc64-ps3-elf/7.2.0/../../../../powerpc64-ps3-elf/lib/libc.a(lib_a-svfiprintf.o)
 .text          0x0000000000039ee8        0x0 /usr/local/ps3dev/ppu/lib/gcc/powerpc64-ps3-elf/7.2.0/../../../../powerpc64-ps3-elf/lib/libc.a(lib_a-wbuf.o)
 .text.__swbuf_r
                0x0000000000039ee8      0x200 /usr/local/ps3dev/ppu/lib/gcc/powerpc64-ps3-elf/7.2.0/../../../../powerpc64-ps3-elf/lib/libc.a(lib_a-wbuf.o)
 .text.__swbuf  0x000000000003a0e8       0x50 /usr/local/ps3dev/ppu/lib/gcc/powerpc64-ps3-elf/7.2.0/../../../../powerpc64-ps3-elf/lib/libc.a(lib_a-wbuf.o)
 .text          0x000000000003a138        0x0 /usr/local/ps3dev/ppu/lib/gcc/powerpc64-ps3-elf/7.2.0/../../../../powerpc64-ps3-elf/lib/libc.a(lib_a-wcrtomb.o)
 .text._wcrtomb_r
                0x000000000003a138      0x11c /usr/local/ps3dev/ppu/lib/gcc/powerpc64-ps3-elf/7.2.0/../../../../powerpc64-ps3-elf/lib/libc.a(lib_a-wcrtomb.o)
 *fill*         0x000000000003a254        0x4 60000000
 .text.wcrtomb  0x000000000003a258      0x150 /usr/local/ps3dev/ppu/lib/gcc/powerpc64-ps3-elf/7.2.0/../../../../powerpc64-ps3-elf/lib/libc.a(lib_a-wcrtomb.o)
 .text          0x000000000003a3a8        0x0 /usr/local/ps3dev/ppu/lib/gcc/powerpc64-ps3-elf/7.2.0/../../../../powerpc64-ps3-elf/lib/libc.a(lib_a-wctomb_r.o)
 .text.__ascii_wctomb
                0x000000000003a3a8       0x44 /usr/local/ps3dev/ppu/lib/gcc/powerpc64-ps3-elf/7.2.0/../../../../powerpc64-ps3-elf/lib/libc.a(lib_a-wctomb_r.o)
 *fill*         0x000000000003a3ec        0x4 60000000
 .text._wctomb_r
                0x000000000003a3f0       0x90 /usr/local/ps3dev/ppu/lib/gcc/powerpc64-ps3-elf/7.2.0/../../../../powerpc64-ps3-elf/lib/libc.a(lib_a-wctomb_r.o)
 .text          0x000000000003a480        0x0 /usr/local/ps3dev/ppu/lib/gcc/powerpc64-ps3-elf/7.2.0/../../../../powerpc64-ps3-elf/lib/libsysbase.a(close.o)
 .text._close_r
                0x000000000003a480       0x68 /usr/local/ps3dev/ppu/lib/gcc/powerpc64-ps3-elf/7.2.0/../../../../powerpc64-ps3-elf/lib/libsysbase.a(close.o)
 .text          0x000000000003a4e8        0x0 /usr/local/ps3dev/ppu/lib/gcc/powerpc64-ps3-elf/7.2.0/../../../../powerpc64-ps3-elf/lib/libsysbase.a(sbrk.o)
 .text._sbrk_r  0x000000000003a4e8       0x68 /usr/local/ps3dev/ppu/lib/gcc/powerpc64-ps3-elf/7.2.0/../../../../powerpc64-ps3-elf/lib/libsysbase.a(sbrk.o)
 .text          0x000000000003a550        0x0 /usr/local/ps3dev/ppu/lib/gcc/powerpc64-ps3-elf/7.2.0/../../../../powerpc64-ps3-elf/lib/libsysbase.a(_exit.o)
 .text._exit    0x000000000003a550       0x4c /usr/local/ps3dev/ppu/lib/gcc/powerpc64-ps3-elf/7.2.0/../../../../powerpc64-ps3-elf/lib/libsysbase.a(_exit.o)
 .text          0x000000000003a59c        0x0 /usr/local/ps3dev/ppu/lib/gcc/powerpc64-ps3-elf/7.2.0/../../../../powerpc64-ps3-elf/lib/libsysbase.a(fstat.o)
 *fill*         0x000000000003a59c        0x4 60000000
 .text._fstat_r
                0x000000000003a5a0       0x68 /usr/local/ps3dev/ppu/lib/gcc/powerpc64-ps3-elf/7.2.0/../../../../powerpc64-ps3-elf/lib/libsysbase.a(fstat.o)
 .text          0x000000000003a608        0x0 /usr/local/ps3dev/ppu/lib/gcc/powerpc64-ps3-elf/7.2.0/../../../../powerpc64-ps3-elf/lib/libsysbase.a(isatty.o)
 .text._isatty_r
                0x000000000003a608       0x68 /usr/local/ps3dev/ppu/lib/gcc/powerpc64-ps3-elf/7.2.0/../../../../powerpc64-ps3-elf/lib/libsysbase.a(isatty.o)
 .text          0x000000000003a670        0x0 /usr/local/ps3dev/ppu/lib/gcc/powerpc64-ps3-elf/7.2.0/../../../../powerpc64-ps3-elf/lib/libsysbase.a(lseek.o)
 .text._lseek_r
                0x000000000003a670       0x68 /usr/local/ps3dev/ppu/lib/gcc/powerpc64-ps3-elf/7.2.0/../../../../powerpc64-ps3-elf/lib/libsysbase.a(lseek.o)
 .text          0x000000000003a6d8        0x0 /usr/local/ps3dev/ppu/lib/gcc/powerpc64-ps3-elf/7.2.0/../../../../powerpc64-ps3-elf/lib/libsysbase.a(open.o)
 .text._open_r  0x000000000003a6d8       0x68 /usr/local/ps3dev/ppu/lib/gcc/powerpc64-ps3-elf/7.2.0/../../../../powerpc64-ps3-elf/lib/libsysbase.a(open.o)
 .text          0x000000000003a740        0x0 /usr/local/ps3dev/ppu/lib/gcc/powerpc64-ps3-elf/7.2.0/../../../../powerpc64-ps3-elf/lib/libsysbase.a(read.o)
 .text._read_r  0x000000000003a740       0x68 /usr/local/ps3dev/ppu/lib/gcc/powerpc64-ps3-elf/7.2.0/../../../../powerpc64-ps3-elf/lib/libsysbase.a(read.o)
 .text          0x000000000003a7a8        0x0 /usr/local/ps3dev/ppu/lib/gcc/powerpc64-ps3-elf/7.2.0/../../../../powerpc64-ps3-elf/lib/libsysbase.a(write.o)
 .text._write_r
                0x000000000003a7a8       0x68 /usr/local/ps3dev/ppu/lib/gcc/powerpc64-ps3-elf/7.2.0/../../../../powerpc64-ps3-elf/lib/libsysbase.a(write.o)
 .text          0x000000000003a810        0x0 /usr/local/ps3dev/ppu/lib/gcc/powerpc64-ps3-elf/7.2.0/../../../../powerpc64-ps3-elf/lib/libsysbase.a(lock.o)
 .text.sys_lwmutex_create
                0x000000000003a810       0x90 /usr/local/ps3dev/ppu/lib/gcc/powerpc64-ps3-elf/7.2.0/../../../../powerpc64-ps3-elf/lib/libsysbase.a(lock.o)
 .text.sys_lwmutex_destroy
                0x000000000003a8a0       0x80 /usr/local/ps3dev/ppu/lib/gcc/powerpc64-ps3-elf/7.2.0/../../../../powerpc64-ps3-elf/lib/libsysbase.a(lock.o)
 .text.sys_lwmutex_lock
                0x000000000003a920       0x90 /usr/local/ps3dev/ppu/lib/gcc/powerpc64-ps3-elf/7.2.0/../../../../powerpc64-ps3-elf/lib/libsysbase.a(lock.o)
 .text.sys_lwmutex_trylock
                0x000000000003a9b0       0x80 /usr/local/ps3dev/ppu/lib/gcc/powerpc64-ps3-elf/7.2.0/../../../../powerpc64-ps3-elf/lib/libsysbase.a(lock.o)
 .text.sys_lwmutex_unlock
                0x000000000003aa30       0x80 /usr/local/ps3dev/ppu/lib/gcc/powerpc64-ps3-elf/7.2.0/../../../../powerpc64-ps3-elf/lib/libsysbase.a(lock.o)
 .text          0x000000000003aab0        0x0 /usr/local/ps3dev/ppu/lib/gcc/powerpc64-ps3-elf/7.2.0/../../../../powerpc64-ps3-elf/lib/libsysbase.a(getpid.o)
 .text._getpid_r
                0x000000000003aab0       0x68 /usr/local/ps3dev/ppu/lib/gcc/powerpc64-ps3-elf/7.2.0/../../../../powerpc64-ps3-elf/lib/libsysbase.a(getpid.o)
 .text          0x000000000003ab18        0x0 /usr/local/ps3dev/ppu/lib/gcc/powerpc64-ps3-elf/7.2.0/../../../../powerpc64-ps3-elf/lib/libsysbase.a(kill.o)
 .text._kill_r  0x000000000003ab18       0x1c /usr/local/ps3dev/ppu/lib/gcc/powerpc64-ps3-elf/7.2.0/../../../../powerpc64-ps3-elf/lib/libsysbase.a(kill.o)
 .text          0x000000000003ab34        0x0 /usr/local/ps3dev/ppu/lib/gcc/powerpc64-ps3-elf/7.2.0/../../../../powerpc64-ps3-elf/lib/libsysbase.a(gettod.o)
 *fill*         0x000000000003ab34        0x4 60000000
 .text._gettimeofday_r
                0x000000000003ab38       0x68 /usr/local/ps3dev/ppu/lib/gcc/powerpc64-ps3-elf/7.2.0/../../../../powerpc64-ps3-elf/lib/libsysbase.a(gettod.o)
 .text          0x000000000003aba0        0x0 /usr/local/ps3dev/ppu/lib/gcc/powerpc64-ps3-elf/7.2.0/crtend.o
 .text.__do_global_ctors_aux
                0x000000000003aba0       0x64 /usr/local/ps3dev/ppu/lib/gcc/powerpc64-ps3-elf/7.2.0/crtend.o
 .text          0x000000000003ac04        0x0 /usr/local/ps3dev/ppu/lib/gcc/powerpc64-ps3-elf/7.2.0/../../../../powerpc64-ps3-elf/lib/lv2-crtn.o
 *(.text.*personality*)
 *(.gnu.warning)
 *(.sfpr .glink)
 .sfpr          0x0000000000000000        0x0 linker stubs
 *fill*         0x000000000003ac04        0x0 60000000
 .glink         0x0000000000000000        0x0 linker stubs

.fini           0x000000000003ac04       0x2c
 *(.fini)
 .fini          0x000000000003ac04        0xc /usr/local/ps3dev/ppu/lib/gcc/powerpc64-ps3-elf/7.2.0/../../../../powerpc64-ps3-elf/lib/lv2-crti.o
                0x000000000003ac04                ._fini
 .fini          0x000000000003ac10        0x8 /usr/local/ps3dev/ppu/lib/gcc/powerpc64-ps3-elf/7.2.0/crtbegin.o
 .fini          0x000000000003ac18        0x8 /usr/local/ps3dev/ppu/lib/librt.a(sbrk.o)
 .fini          0x000000000003ac20       0x10 /usr/local/ps3dev/ppu/lib/gcc/powerpc64-ps3-elf/7.2.0/../../../../powerpc64-ps3-elf/lib/lv2-crtn.o

.sceStub.text   0x000000000003ac30     0x5440
 *(.sceStub.text)
 .sceStub.text  0x000000000003ac30     0x1640 /usr/local/ps3dev/ppu/lib/libgcm_sys.a(sprx.o)
                0x000000000003ac30                __gcmInitBodyEx
                0x000000000003ac70                __gcmSetDisplayBuffer
                0x000000000003acb0                __gcmGetControlRegister
                0x000000000003acf0                __gcmAddressToOffset
                0x000000000003ad30                __gcmGetConfiguration
                0x000000000003ad70                __gcmGetCurrentField
                0x000000000003adb0                __gcmSetFlipMode
                0x000000000003adf0                __gcmGetFlipStatus
                0x000000000003ae30                __gcmGetLastFlipTime
                0x000000000003ae70                __gcmGetVBlankCount
                0x000000000003aeb0                __gcmSetWaitFlip
                0x000000000003aef0                __gcmSetFlipStatus
                0x000000000003af30                __gcmResetFlipStatus
                0x000000000003af70                __gcmSetFlip
                0x000000000003afb0                __gcmSetFlipImmediate
                0x000000000003aff0                __gcmFunc15
                0x000000000003b030                __gcmFunc3
                0x000000000003b070                __gcmFunc1
                0x000000000003b0b0                __gcmFunc2
                0x000000000003b0f0                __gcmFunc4
                0x000000000003b130                __gcmFunc12
                0x000000000003b170                __gcmFunc13
                0x000000000003b1b0                __gcmGetReport
                0x000000000003b1f0                __gcmSetTile
                0x000000000003b230                __gcmBindTile
                0x000000000003b270                __gcmUnbindTile
                0x000000000003b2b0                __gcmSetZcull
                0x000000000003b330                __gcmBindZcull
                0x000000000003b3b0                __gcmUnbindZcull
                0x000000000003b3f0                __gcmGetTimeStamp
                0x000000000003b430                __gcmSetVBlankFrequency
                0x000000000003b470                __gcmSetSecondVFrequency
                0x000000000003b4b0                __gcmSetDebugOutputLevel
                0x000000000003b4f0                __gcmGetLabelAddress
                0x000000000003b530                __gcmSetVBlankHandlerEx
                0x000000000003b570                __gcmSetFlipHandlerEx
                0x000000000003b5b0                __gcmSetSecondVHandlerEx
                0x000000000003b5f0                __gcmSetGraphicsHandlerEx
                0x000000000003b630                __gcmTerminate
                0x000000000003b670                __gcmMapMainMemory
                0x000000000003b6b0                __gcmMapEaIoAddress
                0x000000000003b6f0                __gcmUnmapEaIoAddress
                0x000000000003b730                __gcmUnmapIoAddress
                0x000000000003b770                __gcmIoOffsetToAddressEx
                0x000000000003b7b0                __gcmSetDefaultCommandBuffer
                0x000000000003b7f0                __gcmSetTileInfo
                0x000000000003b830                __gcmGetTiledPitchSize
                0x000000000003b870                __gcmSetInvalidateTile
                0x000000000003b8b0                __gcmSetUserCommandEx
                0x000000000003b8f0                __gcmSetUserHandlerEx
                0x000000000003b930                __gcmSetQueueHandlerEx
                0x000000000003b970                __gcmSetPrepareFlip
                0x000000000003b9b0                __gcmGetOffsetTable
                0x000000000003b9f0                __gcmGetLastSecondVTime
                0x000000000003ba30                __gcmSortRemapEaIoAddress
                0x000000000003ba70                __gcmGetDisplayBufferByFlipIndex
                0x000000000003bab0                __gcmGetDefaultCommandWordSize
                0x000000000003baf0                __gcmGetDefaultSegmentWordSize
                0x000000000003bb30                __gcmSetDefaultCommandBufferAndSegmentWordSize
                0x000000000003bb70                __gcmGetDisplayInfo
                0x000000000003bbb0                __gcmDumpGraphicsError
                0x000000000003bbf0                __gcmFunc38
                0x000000000003bc30                __gcmGetCurrentDisplayBufferId
                0x000000000003bc70                __gcmGetMaxIoMapSize
                0x000000000003bcb0                __gcmGetNotifyDataAddress
                0x000000000003bcf0                __gcmGetReportDataAddress
                0x000000000003bd30                __gcmGetReportDataAddressLocation
                0x000000000003bd70                __gcmGetReportDataLocation
                0x000000000003bdb0                __gcmGetTileInfo
                0x000000000003bdf0                __gcmGetTimeStampLocation
                0x000000000003be30                __gcmGetZcullInfo
                0x000000000003be70                __gcmInitCursor
                0x000000000003beb0                __gcmInitDefaultFifoMode
                0x000000000003bef0                __gcmInitSystemMode
                0x000000000003bf30                __gcmMapEaIoAddressWithFlags
                0x000000000003bf70                __gcmMapLocalMemory
                0x000000000003bfb0                __gcmReserveIoMapSize
                0x000000000003bff0                __gcmSetCursorDisable
                0x000000000003c030                __gcmSetCursorEnable
                0x000000000003c070                __gcmSetCursorImageOffset
                0x000000000003c0b0                __gcmSetCursorPosition
                0x000000000003c0f0                __gcmSetDefaultFifoSize
                0x000000000003c130                __gcmSetFlipCommand
                0x000000000003c170                __gcmSetFlipCommandWithWaitLabel
                0x000000000003c1b0                __gcmSysGetLastVBlankTime
                0x000000000003c1f0                __gcmUnreserveIoMapSize
                0x000000000003c230                __gcmUpdateCursor
 .sceStub.text  0x000000000003c270     0x1480 /usr/local/ps3dev/ppu/lib/libsysutil.a(sprx.o)
                0x000000000003c270                __videoGetResolution
                0x000000000003c2b0                __videoConfigure
                0x000000000003c2f0                __videoGetState
                0x000000000003c330                __videoGetDeviceInfo
                0x000000000003c370                __videoGetConfiguration
                0x000000000003c3b0                __videoGetResolutionAvailability
                0x000000000003c3f0                __videoDebugSetMonitorType
                0x000000000003c430                __videoRegisterCallbackEx
                0x000000000003c470                __videoUnregisterCallback
                0x000000000003c4b0                __videoGetNumberOfDevice
                0x000000000003c4f0                __videoGetConvertCursorColorInfo
                0x000000000003c530                __msgDialogClose
                0x000000000003c570                __msgDialogOpenErrorCodeEx
                0x000000000003c5b0                __msgDialogOpenEx
                0x000000000003c5f0                __msgDialogProgressBarInc
                0x000000000003c630                __msgDialogAbort
                0x000000000003c670                __msgDialogOpen2Ex
                0x000000000003c6b0                __msgDialogProgressBarReset
                0x000000000003c6f0                __msgDialogProgressBarSetMsg
                0x000000000003c730                __oskGetInputText
                0x000000000003c770                __oskSetInitialInputDevice
                0x000000000003c7b0                __oskGetSize
                0x000000000003c7f0                __oskUnloadAsync
                0x000000000003c830                __oskDisableDimmer
                0x000000000003c870                __oskSetKeyLayoutOption
                0x000000000003c8b0                __oskAbort
                0x000000000003c8f0                __oskSetDeviceMask
                0x000000000003c930                __oskSetSeparateWindowOption
                0x000000000003c970                __oskAddSupportLanguage
                0x000000000003c9b0                __oskLoadAsync
                0x000000000003c9f0                __oskSetInitialKeyLayout
                0x000000000003ca30                __oskSetLayoutMode
                0x000000000003ca70                __sysUtilRegisterCallbackEx
                0x000000000003cab0                __sysUtilCheckCallback
                0x000000000003caf0                __sysUtilUnregisterCallback
                0x000000000003cb30                __sysUtilGetSystemParamInt
                0x000000000003cb70                __sysUtilGetSystemParamString
                0x000000000003cbb0                __sysSaveListLoad2Ex
                0x000000000003cbf0                __sysSaveListSave2Ex
                0x000000000003cc30                __sysSaveListAutoLoadEx
                0x000000000003cc70                __sysSaveListAutoSaveEx
                0x000000000003ccb0                __sysSaveFixedLoad2Ex
                0x000000000003ccf0                __sysSaveFixedSave2Ex
                0x000000000003cd30                __sysSaveAutoLoad2Ex
                0x000000000003cd70                __sysSaveAutoSave2Ex
                0x000000000003cdb0                __sysSaveDelete2
                0x000000000003cdf0                __sysGameDataCheck
                0x000000000003ce30                __sysGameBootCheck
                0x000000000003ce70                __sysGamePatchCheck
                0x000000000003ceb0                __sysGameCreateGameData
                0x000000000003cef0                __sysGameGetParamInt
                0x000000000003cf30                __sysGameGetParamString
                0x000000000003cf70                __sysGameGetSizeKB
                0x000000000003cfb0                __sysGameSetParamString
                0x000000000003cff0                __sysGameGetDiscContentInfoUpdatePath
                0x000000000003d030                __sysGameContentPermit
                0x000000000003d070                __sysGameContentErrorDialog
                0x000000000003d0b0                __sysGameThemeInstall
                0x000000000003d0f0                __sysGameThemeInstallFromBufferEx
                0x000000000003d130                __sysGameGetLocalWebContentPath
                0x000000000003d170                __sysGameDeleteGameData
                0x000000000003d1b0                __sysGameRegisterDiscChangeCallbackEx
                0x000000000003d1f0                __sysGameUnregisterDiscChangeCallback
                0x000000000003d230                __sysDiscRegisterDiscChangeCallbackEx
                0x000000000003d270                __sysDiscUnregisterDiscChangeCallback
                0x000000000003d2b0                __sysTrophyInit
                0x000000000003d2f0                __sysTrophyAbortHandle
                0x000000000003d330                __sysTrophyCreateContext
                0x000000000003d370                __sysTrophyCreateHandle
                0x000000000003d3b0                __sysTrophyDestroyContext
                0x000000000003d3f0                __sysTrophyDestroyHandle
                0x000000000003d430                __sysTrophyGetGameIcon
                0x000000000003d470                __sysTrophyGetGameInfo
                0x000000000003d4b0                __sysTrophyGetGameProgress
                0x000000000003d4f0                __sysTrophyGetRequiredDiskSpace
                0x000000000003d530                __sysTrophyGetTrophyIcon
                0x000000000003d570                __sysTrophyGetTrophyInfo
                0x000000000003d5b0                __sysTrophyGetTrophyUnlockState
                0x000000000003d5f0                __sysTrophyRegisterContextEx
                0x000000000003d630                __sysTrophySetSoundLevel
                0x000000000003d670                __sysTrophyTerm
                0x000000000003d6b0                __sysTrophyUnlockTrophy
 .sceStub.text  0x000000000003d6f0      0xbc0 /usr/local/ps3dev/ppu/lib/libio.a(sprx.o)
                0x000000000003d6f0                __sys_config_start
                0x000000000003d730                __sys_config_stop
                0x000000000003d770                __sys_config_add_service_listener
                0x000000000003d7b0                __sys_config_remove_service_listener
                0x000000000003d7f0                __sys_config_register_service
                0x000000000003d830                __sys_config_unregister_service
                0x000000000003d870                __ioPadInit
                0x000000000003d8b0                __ioPadEnd
                0x000000000003d8f0                __ioPadClearBuf
                0x000000000003d930                __ioPadInfoPressMode
                0x000000000003d970                __ioPadLddRegisterController
                0x000000000003d9b0                __ioPadGetInfo
                0x000000000003d9f0                __ioPadGetRawData
                0x000000000003da30                __ioPadGetDataExtra
                0x000000000003da70                __ioPadInfoSensorMode
                0x000000000003dab0                __ioPadGetData
                0x000000000003daf0                __ioPadLddGetPortNo
                0x000000000003db30                __ioPadLddDataInsert
                0x000000000003db70                __ioPadSetSensorMode
                0x000000000003dbb0                __ioPadGetCapabilityInfo
                0x000000000003dbf0                __ioPadLddUnregisterController
                0x000000000003dc30                __ioPadSetActDirect
                0x000000000003dc70                __ioPadSetPressMode
                0x000000000003dcb0                __ioPadPeriphGetInfo
                0x000000000003dcf0                __ioPadSetPortSetting
                0x000000000003dd30                __ioPadPeriphGetData
                0x000000000003dd70                __ioPadGetInfo2
                0x000000000003ddb0                __ioMouseInit
                0x000000000003ddf0                __ioMouseEnd
                0x000000000003de30                __ioMouseClearBuf
                0x000000000003de70                __ioMouseGetInfo
                0x000000000003deb0                __ioMouseGetTabletDataList
                0x000000000003def0                __ioMouseSetTabletMode
                0x000000000003df30                __ioMouseGetData
                0x000000000003df70                __ioMouseInfoTabletMode
                0x000000000003dfb0                __ioMouseGetRawData
                0x000000000003dff0                __ioMouseGetDataList
                0x000000000003e030                __ioKbInit
                0x000000000003e070                __ioKbEnd
                0x000000000003e0b0                __ioKbRead
                0x000000000003e0f0                __ioKbSetReadMode
                0x000000000003e130                __ioKbSetCodeType
                0x000000000003e170                __ioKbCnvRawCode
                0x000000000003e1b0                __ioKbSetLEDStatus
                0x000000000003e1f0                __ioKbGetInfo
                0x000000000003e230                __ioKbGetConfiguration
                0x000000000003e270                __ioKbClearBuf
 .sceStub.text  0x000000000003e2b0     0x1dc0 /usr/local/ps3dev/ppu/lib/liblv2.a(sprx.o)
                0x000000000003e2b0                __sysGetSystemTime
                0x000000000003e2f0                __sysGetSystemSwVersion
                0x000000000003e330                __sysGetTemperature
                0x000000000003e370                __sysGetRandomNumber
                0x000000000003e3b0                __sysGetRtcStatus
                0x000000000003e3f0                __sysBoardStorageRead
                0x000000000003e430                __sysBoardStorageWrite
                0x000000000003e470                __sysProcessIsStack
                0x000000000003e4b0                __sysProcessExit
                0x000000000003e4f0                __sysProcessExitspawn
                0x000000000003e530                __sysProcessExitSpawn2Ex
                0x000000000003e570                __sysProcessExitSpawnWithLevel
                0x000000000003e5b0                __sysProcessAtExitSpawn
                0x000000000003e5f0                __sysProcess_At_ExitSpawn
                0x000000000003e630                __sysPrxRegisterLibrary
                0x000000000003e670                __sysPrxUnregisterLibrary
                0x000000000003e6b0                __sysPrxStartModule
                0x000000000003e6f0                __sysPrxStopModule
                0x000000000003e730                __sysPrxLoadModule
                0x000000000003e770                __sysPrxLoadModuleByFd
                0x000000000003e7b0                __sysPrxLoadModuleList
                0x000000000003e7f0                __sysPrxLoadModuleListOnMemcontainer
                0x000000000003e830                __sysPrxLoadModuleOnMemcontainer
                0x000000000003e870                __sysPrxLoadModuleOnMemcontainerByFd
                0x000000000003e8b0                __sysPrxGetModuleInfo
                0x000000000003e8f0                __sysPrxGetModuleList
                0x000000000003e930                __sysPrxGetModuleId
                0x000000000003e970                __sysPrxGetModuleIdByAddress
                0x000000000003e9b0                __sysPrxGetModuleIdByName
                0x000000000003e9f0                __sysPrxUnloadModule
                0x000000000003ea30                __sysPrxExitSpawnWithLevel
                0x000000000003ea70                __sysThreadCreateEx
                0x000000000003eab0                __sysThreadExit
                0x000000000003eaf0                __sysThreadGetId
                0x000000000003eb30                __sysThreadOnce
                0x000000000003eb70                __sysThreadInitialzeTLS
                0x000000000003ebb0                __sysThreadRegisterAtexit
                0x000000000003ebf0                __sysThreadUnregisterAtexit
                0x000000000003ec30                __sysInterruptThreadDisestablish
                0x000000000003ec70                __sysLwMutexCreate
                0x000000000003ecb0                __sysLwMutexDestroy
                0x000000000003ecf0                __sysLwMutexLock
                0x000000000003ed30                __sysLwMutexTryLock
                0x000000000003ed70                __sysLwMutexUnlock
                0x000000000003edb0                __sysLwCondCreate
                0x000000000003edf0                __sysLwCondWait
                0x000000000003ee30                __sysLwCondSignal
                0x000000000003ee70                __sysLwCondSignalTo
                0x000000000003eeb0                __sysLwCondSignalAll
                0x000000000003eef0                __sysLwCondDestroy
                0x000000000003ef30                __sysSpinlockInitialize
                0x000000000003ef70                __sysSpinlockLock
                0x000000000003efb0                __sysSpinlockTryLock
                0x000000000003eff0                __sysSpinlockUnlock
                0x000000000003f030                __sysWatchdogClear
                0x000000000003f070                __sysWatchdogStart
                0x000000000003f0b0                __sysWatchdogStop
                0x000000000003f0f0                __sysMalloc
                0x000000000003f130                __sysMemalign
                0x000000000003f170                __sysMemchr
                0x000000000003f1b0                __sysMemcmp
                0x000000000003f1f0                __sysMemcpy
                0x000000000003f230                __sysMemmove
                0x000000000003f270                __sysMemset
                0x000000000003f2b0                __sysFree
                0x000000000003f2f0                __sysHeapAllocHeapMemory
                0x000000000003f330                __sysHeapCreateHeap
                0x000000000003f370                __sysHeapDeleteHeap
                0x000000000003f3b0                __sysHeapFree
                0x000000000003f3f0                __sysHeapGetMallInfo
                0x000000000003f430                __sysHeapGetTotalFreeSize
                0x000000000003f470                __sysHeapMalloc
                0x000000000003f4b0                __sysHeapMemalign
                0x000000000003f4f0                __sysHeapStats
                0x000000000003f530                __sysQsort
                0x000000000003f570                __sysMempoolCreate
                0x000000000003f5b0                __sysMempoolDestroy
                0x000000000003f5f0                __sysMempoolGetCount
                0x000000000003f630                __sysMempoolAllocateBlock
                0x000000000003f670                __sysMempoolTryAllocateBlock
                0x000000000003f6b0                __sysMempoolFreeBlock
                0x000000000003f6f0                __sysMMapperFreeMemory
                0x000000000003f730                __sysMMapperMapMemory
                0x000000000003f770                __sysMMapperUnmapMemory
                0x000000000003f7b0                __sysMMapperAllocateMemory
                0x000000000003f7f0                __sysMMapperAllocateMemoryFromContainer
                0x000000000003f830                __sysStrlen
                0x000000000003f870                __sysStrcpy
                0x000000000003f8b0                __sysStrncpy
                0x000000000003f8f0                __sysStrcat
                0x000000000003f930                __sysStrncat
                0x000000000003f970                __sysStrchr
                0x000000000003f9b0                __sysStrrchr
                0x000000000003f9f0                __sysStrcmp
                0x000000000003fa30                __sysStrncmp
                0x000000000003fa70                __sysStrncasecmp
                0x000000000003fab0                __sysToLower
                0x000000000003faf0                __sysToUpper
                0x000000000003fb30                __sysSpuElfGetSegments
                0x000000000003fb70                __sysSpuElfGetInformation
                0x000000000003fbb0                __sysSpuRawLoad
                0x000000000003fbf0                __sysSpuRawImageLoad
                0x000000000003fc30                __sysSpuImageClose
                0x000000000003fc70                __sysSpuImageImport
                0x000000000003fcb0                __sysSpuPrintfAttachGroupEx
                0x000000000003fcf0                __sysSpuPrintfAttachThreadEx
                0x000000000003fd30                __sysSpuPrintfDetachGroupEx
                0x000000000003fd70                __sysSpuPrintfDetachThreadEx
                0x000000000003fdb0                __sysSpuPrintfFinalizeEx
                0x000000000003fdf0                __sysSpuPrintfInitializeEx
                0x000000000003fe30                __sysConsoleGetc
                0x000000000003fe70                __sysConsolePutc
                0x000000000003feb0                __sysConsoleWrite
                0x000000000003fef0                __sysPrintf
                0x000000000003ff30                __sysSprintf
                0x000000000003ff70                __sysSnprintf
                0x000000000003ffb0                __sysVprintf
                0x000000000003fff0                __sysVsprintf
                0x0000000000040030                __sysVsnprintf
 *(SORT(.sceStub.text.*))
                0x0000000000040070                PROVIDE (__etext, .)
                0x0000000000040070                PROVIDE (_etext, .)
                0x0000000000040070                PROVIDE (etext, .)

.eh_frame_hdr   0x0000000000040070        0x0
 *(.eh_frame_hdr)
 .eh_frame_hdr  0x0000000000000000        0x0 /usr/local/ps3dev/ppu/lib/gcc/powerpc64-ps3-elf/7.2.0/../../../../powerpc64-ps3-elf/lib/lv2-crtn.o

.eh_frame       0x0000000000040070        0x4
 *(.eh_frame)
 .eh_frame      0x0000000000040070        0x0 linker stubs
 .eh_frame      0x0000000000040070        0x0 /usr/local/ps3dev/ppu/lib/gcc/powerpc64-ps3-elf/7.2.0/crtbegin.o
 .eh_frame      0x0000000000040070        0x4 /usr/local/ps3dev/ppu/lib/gcc/powerpc64-ps3-elf/7.2.0/crtend.o

.gcc_except_table
 *(.gcc_except_table .gcc_except_table.*)

.rodata.sceResident
                0x0000000000040074       0x3e
 *(.rodata.sceResident)
 .rodata.sceResident
                0x0000000000040074        0xf /usr/local/ps3dev/ppu/lib/libgcm_sys.a(sprx.o)
 *fill*         0x0000000000040083        0x1 00
 .rodata.sceResident
                0x0000000000040084       0x10 /usr/local/ps3dev/ppu/lib/libsysutil.a(sprx.o)
 .rodata.sceResident
                0x0000000000040094        0xb /usr/local/ps3dev/ppu/lib/libio.a(sprx.o)
 *fill*         0x000000000004009f        0x1 00
 .rodata.sceResident
                0x00000000000400a0       0x12 /usr/local/ps3dev/ppu/lib/liblv2.a(sprx.o)

.rodata.sceFNID
                0x00000000000400b4      0x53c
 *(.rodata.sceFNID .rodata.sceFNID.*)
 .rodata.sceFNID
                0x00000000000400b4      0x15c /usr/local/ps3dev/ppu/lib/libgcm_sys.a(sprx.o)
                0x00000000000400b4                cellGcmSys
                0x00000000000400b4                gcmInitBodyEx_fnid
                0x00000000000400b8                gcmSetDisplayBuffer_fnid
                0x00000000000400bc                gcmGetControlRegister_fnid
                0x00000000000400c0                gcmAddressToOffset_fnid
                0x00000000000400c4                gcmGetConfiguration_fnid
                0x00000000000400c8                gcmGetCurrentField_fnid
                0x00000000000400cc                gcmSetFlipMode_fnid
                0x00000000000400d0                gcmGetFlipStatus_fnid
                0x00000000000400d4                gcmGetLastFlipTime_fnid
                0x00000000000400d8                gcmGetVBlankCount_fnid
                0x00000000000400dc                gcmSetWaitFlip_fnid
                0x00000000000400e0                gcmSetFlipStatus_fnid
                0x00000000000400e4                gcmResetFlipStatus_fnid
                0x00000000000400e8                gcmSetFlip_fnid
                0x00000000000400ec                gcmSetFlipImmediate_fnid
                0x00000000000400f0                gcmFunc15_fnid
                0x00000000000400f4                gcmFunc3_fnid
                0x00000000000400f8                gcmFunc1_fnid
                0x00000000000400fc                gcmFunc2_fnid
                0x0000000000040100                gcmFunc4_fnid
                0x0000000000040104                gcmFunc12_fnid
                0x0000000000040108                gcmFunc13_fnid
                0x000000000004010c                gcmGetReport_fnid
                0x0000000000040110                gcmSetTile_fnid
                0x0000000000040114                gcmBindTile_fnid
                0x0000000000040118                gcmUnbindTile_fnid
                0x000000000004011c                gcmSetZcull_fnid
                0x0000000000040120                gcmBindZcull_fnid
                0x0000000000040124                gcmUnbindZcull_fnid
                0x0000000000040128                gcmGetTimeStamp_fnid
                0x000000000004012c                gcmSetVBlankFrequency_fnid
                0x0000000000040130                gcmSetSecondVFrequency_fnid
                0x0000000000040134                gcmSetDebugOutputLevel_fnid
                0x0000000000040138                gcmGetLabelAddress_fnid
                0x000000000004013c                gcmSetVBlankHandlerEx_fnid
                0x0000000000040140                gcmSetFlipHandlerEx_fnid
                0x0000000000040144                gcmSetSecondVHandlerEx_fnid
                0x0000000000040148                gcmSetGraphicsHandlerEx_fnid
                0x000000000004014c                gcmTerminate_fnid
                0x0000000000040150                gcmMapMainMemory_fnid
                0x0000000000040154                gcmMapEaIoAddress_fnid
                0x0000000000040158                gcmUnmapEaIoAddress_fnid
                0x000000000004015c                gcmUnmapIoAddress_fnid
                0x0000000000040160                gcmIoOffsetToAddressEx_fnid
                0x0000000000040164                gcmSetDefaultCommandBuffer_fnid
                0x0000000000040168                gcmSetTileInfo_fnid
                0x000000000004016c                gcmGetTiledPitchSize_fnid
                0x0000000000040170                gcmSetInvalidateTile_fnid
                0x0000000000040174                gcmSetUserCommandEx_fnid
                0x0000000000040178                gcmSetUserHandlerEx_fnid
                0x000000000004017c                gcmSetQueueHandlerEx_fnid
                0x0000000000040180                gcmSetPrepareFlip_fnid
                0x0000000000040184                gcmGetOffsetTable_fnid
                0x0000000000040188                gcmGetLastSecondVTime_fnid
                0x000000000004018c                gcmSortRemapEaIoAddress_fnid
                0x0000000000040190                gcmGetDisplayBufferByFlipIndex_fnid
                0x0000000000040194                gcmGetDefaultCommandWordSize_fnid
                0x0000000000040198                gcmGetDefaultSegmentWordSize_fnid
                0x000000000004019c                gcmSetDefaultCommandBufferAndSegmentWordSize_fnid
                0x00000000000401a0                gcmGetDisplayInfo_fnid
                0x00000000000401a4                gcmDumpGraphicsError_fnid
                0x00000000000401a8                gcmFunc38_fnid
                0x00000000000401ac                gcmGetCurrentDisplayBufferId_fnid
                0x00000000000401b0                gcmGetMaxIoMapSize_fnid
                0x00000000000401b4                gcmGetNotifyDataAddress_fnid
                0x00000000000401b8                gcmGetReportDataAddress_fnid
                0x00000000000401bc                gcmGetReportDataAddressLocation_fnid
                0x00000000000401c0                gcmGetReportDataLocation_fnid
                0x00000000000401c4                gcmGetTileInfo_fnid
                0x00000000000401c8                gcmGetTimeStampLocation_fnid
                0x00000000000401cc                gcmGetZcullInfo_fnid
                0x00000000000401d0                gcmInitCursor_fnid
                0x00000000000401d4                gcmInitDefaultFifoMode_fnid
                0x00000000000401d8                gcmInitSystemMode_fnid
                0x00000000000401dc                gcmMapEaIoAddressWithFlags_fnid
                0x00000000000401e0                gcmMapLocalMemory_fnid
                0x00000000000401e4                gcmReserveIoMapSize_fnid
                0x00000000000401e8                gcmSetCursorDisable_fnid
                0x00000000000401ec                gcmSetCursorEnable_fnid
                0x00000000000401f0                gcmSetCursorImageOffset_fnid
                0x00000000000401f4                gcmSetCursorPosition_fnid
                0x00000000000401f8                gcmSetDefaultFifoSize_fnid
                0x00000000000401fc                gcmSetFlipCommand_fnid
                0x0000000000040200                gcmSetFlipCommandWithWaitLabel_fnid
                0x0000000000040204                gcmSysGetLastVBlankTime_fnid
                0x0000000000040208                gcmUnreserveIoMapSize_fnid
                0x000000000004020c                gcmUpdateCursor_fnid
 .rodata.sceFNID
                0x0000000000040210      0x148 /usr/local/ps3dev/ppu/lib/libsysutil.a(sprx.o)
                0x0000000000040210                videoGetResolution_fnid
                0x0000000000040210                cellSysutil
                0x0000000000040214                videoConfigure_fnid
                0x0000000000040218                videoGetState_fnid
                0x000000000004021c                videoGetDeviceInfo_fnid
                0x0000000000040220                videoGetConfiguration_fnid
                0x0000000000040224                videoGetResolutionAvailability_fnid
                0x0000000000040228                videoDebugSetMonitorType_fnid
                0x000000000004022c                videoRegisterCallbackEx_fnid
                0x0000000000040230                videoUnregisterCallback_fnid
                0x0000000000040234                videoGetNumberOfDevice_fnid
                0x0000000000040238                videoGetConvertCursorColorInfo_fnid
                0x000000000004023c                msgDialogClose_fnid
                0x0000000000040240                msgDialogOpenErrorCodeEx_fnid
                0x0000000000040244                msgDialogOpenEx_fnid
                0x0000000000040248                msgDialogProgressBarInc_fnid
                0x000000000004024c                msgDialogAbort_fnid
                0x0000000000040250                msgDialogOpen2Ex_fnid
                0x0000000000040254                msgDialogProgressBarReset_fnid
                0x0000000000040258                msgDialogProgressBarSetMsg_fnid
                0x000000000004025c                oskGetInputText_fnid
                0x0000000000040260                oskSetInitialInputDevice_fnid
                0x0000000000040264                oskGetSize_fnid
                0x0000000000040268                oskUnloadAsync_fnid
                0x000000000004026c                oskDisableDimmer_fnid
                0x0000000000040270                oskSetKeyLayoutOption_fnid
                0x0000000000040274                oskAbort_fnid
                0x0000000000040278                oskSetDeviceMask_fnid
                0x000000000004027c                oskSetSeparateWindowOption_fnid
                0x0000000000040280                oskAddSupportLanguage_fnid
                0x0000000000040284                oskLoadAsync_fnid
                0x0000000000040288                oskSetInitialKeyLayout_fnid
                0x000000000004028c                oskSetLayoutMode_fnid
                0x0000000000040290                sysUtilRegisterCallbackEx_fnid
                0x0000000000040294                sysUtilCheckCallback_fnid
                0x0000000000040298                sysUtilUnregisterCallback_fnid
                0x000000000004029c                sysUtilGetSystemParamInt_fnid
                0x00000000000402a0                sysUtilGetSystemParamString_fnid
                0x00000000000402a4                sysSaveListLoad2Ex_fnid
                0x00000000000402a8                sysSaveListSave2Ex_fnid
                0x00000000000402ac                sysSaveListAutoLoadEx_fnid
                0x00000000000402b0                sysSaveListAutoSaveEx_fnid
                0x00000000000402b4                sysSaveFixedLoad2Ex_fnid
                0x00000000000402b8                sysSaveFixedSave2Ex_fnid
                0x00000000000402bc                sysSaveAutoLoad2Ex_fnid
                0x00000000000402c0                sysSaveAutoSave2Ex_fnid
                0x00000000000402c4                sysSaveDelete2_fnid
                0x00000000000402c8                sysGameDataCheck_fnid
                0x00000000000402cc                sysGameBootCheck_fnid
                0x00000000000402d0                sysGamePatchCheck_fnid
                0x00000000000402d4                sysGameCreateGameData_fnid
                0x00000000000402d8                sysGameGetParamInt_fnid
                0x00000000000402dc                sysGameGetParamString_fnid
                0x00000000000402e0                sysGameGetSizeKB_fnid
                0x00000000000402e4                sysGameSetParamString_fnid
                0x00000000000402e8                sysGameGetDiscContentInfoUpdatePath_fnid
                0x00000000000402ec                sysGameContentPermit_fnid
                0x00000000000402f0                sysGameContentErrorDialog_fnid
                0x00000000000402f4                sysGameThemeInstall_fnid
                0x00000000000402f8                sysGameThemeInstallFromBufferEx_fnid
                0x00000000000402fc                sysGameGetLocalWebContentPath_fnid
                0x0000000000040300                sysGameDeleteGameData_fnid
                0x0000000000040304                sysGameRegisterDiscChangeCallbackEx_fnid
                0x0000000000040308                sysGameUnregisterDiscChangeCallback_fnid
                0x000000000004030c                sysDiscRegisterDiscChangeCallbackEx_fnid
                0x0000000000040310                sysDiscUnregisterDiscChangeCallback_fnid
                0x0000000000040314                sysTrophyInit_fnid
                0x0000000000040318                sysTrophyAbortHandle_fnid
                0x000000000004031c                sysTrophyCreateContext_fnid
                0x0000000000040320                sysTrophyCreateHandle_fnid
                0x0000000000040324                sysTrophyDestroyContext_fnid
                0x0000000000040328                sysTrophyDestroyHandle_fnid
                0x000000000004032c                sysTrophyGetGameIcon_fnid
                0x0000000000040330                sysTrophyGetGameInfo_fnid
                0x0000000000040334                sysTrophyGetGameProgress_fnid
                0x0000000000040338                sysTrophyGetRequiredDiskSpace_fnid
                0x000000000004033c                sysTrophyGetTrophyIcon_fnid
                0x0000000000040340                sysTrophyGetTrophyInfo_fnid
                0x0000000000040344                sysTrophyGetTrophyUnlockState_fnid
                0x0000000000040348                sysTrophyRegisterContextEx_fnid
                0x000000000004034c                sysTrophySetSoundLevel_fnid
                0x0000000000040350                sysTrophyTerm_fnid
                0x0000000000040354                sysTrophyUnlockTrophy_fnid
 .rodata.sceFNID
                0x0000000000040358       0xbc /usr/local/ps3dev/ppu/lib/libio.a(sprx.o)
                0x0000000000040358                sys_io
                0x0000000000040358                sys_config_start_fnid
                0x000000000004035c                sys_config_stop_fnid
                0x0000000000040360                sys_config_add_service_listener_fnid
                0x0000000000040364                sys_config_remove_service_listener_fnid
                0x0000000000040368                sys_config_register_service_fnid
                0x000000000004036c                sys_config_unregister_service_fnid
                0x0000000000040370                ioPadInit_fnid
                0x0000000000040374                ioPadEnd_fnid
                0x0000000000040378                ioPadClearBuf_fnid
                0x000000000004037c                ioPadInfoPressMode_fnid
                0x0000000000040380                ioPadLddRegisterController_fnid
                0x0000000000040384                ioPadGetInfo_fnid
                0x0000000000040388                ioPadGetRawData_fnid
                0x000000000004038c                ioPadGetDataExtra_fnid
                0x0000000000040390                ioPadInfoSensorMode_fnid
                0x0000000000040394                ioPadGetData_fnid
                0x0000000000040398                ioPadLddGetPortNo_fnid
                0x000000000004039c                ioPadLddDataInsert_fnid
                0x00000000000403a0                ioPadSetSensorMode_fnid
                0x00000000000403a4                ioPadGetCapabilityInfo_fnid
                0x00000000000403a8                ioPadLddUnregisterController_fnid
                0x00000000000403ac                ioPadSetActDirect_fnid
                0x00000000000403b0                ioPadSetPressMode_fnid
                0x00000000000403b4                ioPadPeriphGetInfo_fnid
                0x00000000000403b8                ioPadSetPortSetting_fnid
                0x00000000000403bc                ioPadPeriphGetData_fnid
                0x00000000000403c0                ioPadGetInfo2_fnid
                0x00000000000403c4                ioMouseInit_fnid
                0x00000000000403c8                ioMouseEnd_fnid
                0x00000000000403cc                ioMouseClearBuf_fnid
                0x00000000000403d0                ioMouseGetInfo_fnid
                0x00000000000403d4                ioMouseGetTabletDataList_fnid
                0x00000000000403d8                ioMouseSetTabletMode_fnid
                0x00000000000403dc                ioMouseGetData_fnid
                0x00000000000403e0                ioMouseInfoTabletMode_fnid
                0x00000000000403e4                ioMouseGetRawData_fnid
                0x00000000000403e8                ioMouseGetDataList_fnid
                0x00000000000403ec                ioKbInit_fnid
                0x00000000000403f0                ioKbEnd_fnid
                0x00000000000403f4                ioKbRead_fnid
                0x00000000000403f8                ioKbSetReadMode_fnid
                0x00000000000403fc                ioKbSetCodeType_fnid
                0x0000000000040400                ioKbCnvRawCode_fnid
                0x0000000000040404                ioKbSetLEDStatus_fnid
                0x0000000000040408                ioKbGetInfo_fnid
                0x000000000004040c                ioKbGetConfiguration_fnid
                0x0000000000040410                ioKbClearBuf_fnid
 .rodata.sceFNID
                0x0000000000040414      0x1dc /usr/local/ps3dev/ppu/lib/liblv2.a(sprx.o)
                0x0000000000040414                sysGetSystemTime_fnid
                0x0000000000040414                sysPrxForUser
                0x0000000000040418                sysGetSystemSwVersion_fnid
                0x000000000004041c                sysGetTemperature_fnid
                0x0000000000040420                sysGetRandomNumber_fnid
                0x0000000000040424                sysGetRtcStatus_fnid
                0x0000000000040428                sysBoardStorageRead_fnid
                0x000000000004042c                sysBoardStorageWrite_fnid
                0x0000000000040430                sysProcessIsStack_fnid
                0x0000000000040434                sysProcessExit_fnid
                0x0000000000040438                sysProcessExitspawn_fnid
                0x000000000004043c                sysProcessExitSpawn2Ex_fnid
                0x0000000000040440                sysProcessExitSpawnWithLevel_fnid
                0x0000000000040444                sysProcessAtExitSpawn_fnid
                0x0000000000040448                sysProcess_At_ExitSpawn_fnid
                0x000000000004044c                sysPrxRegisterLibrary_fnid
                0x0000000000040450                sysPrxUnregisterLibrary_fnid
                0x0000000000040454                sysPrxStartModule_fnid
                0x0000000000040458                sysPrxStopModule_fnid
                0x000000000004045c                sysPrxLoadModule_fnid
                0x0000000000040460                sysPrxLoadModuleByFd_fnid
                0x0000000000040464                sysPrxLoadModuleList_fnid
                0x0000000000040468                sysPrxLoadModuleListOnMemcontainer_fnid
                0x000000000004046c                sysPrxLoadModuleOnMemcontainer_fnid
                0x0000000000040470                sysPrxLoadModuleOnMemcontainerByFd_fnid
                0x0000000000040474                sysPrxGetModuleInfo_fnid
                0x0000000000040478                sysPrxGetModuleList_fnid
                0x000000000004047c                sysPrxGetModuleId_fnid
                0x0000000000040480                sysPrxGetModuleIdByAddress_fnid
                0x0000000000040484                sysPrxGetModuleIdByName_fnid
                0x0000000000040488                sysPrxUnloadModule_fnid
                0x000000000004048c                sysPrxExitSpawnWithLevel_fnid
                0x0000000000040490                sysThreadCreateEx_fnid
                0x0000000000040494                sysThreadExit_fnid
                0x0000000000040498                sysThreadGetId_fnid
                0x000000000004049c                sysThreadOnce_fnid
                0x00000000000404a0                sysThreadInitialzeTLS_fnid
                0x00000000000404a4                sysThreadRegisterAtexit_fnid
                0x00000000000404a8                sysThreadUnregisterAtexit_fnid
                0x00000000000404ac                sysInterruptThreadDisestablish_fnid
                0x00000000000404b0                sysLwMutexCreate_fnid
                0x00000000000404b4                sysLwMutexDestroy_fnid
                0x00000000000404b8                sysLwMutexLock_fnid
                0x00000000000404bc                sysLwMutexTryLock_fnid
                0x00000000000404c0                sysLwMutexUnlock_fnid
                0x00000000000404c4                sysLwCondCreate_fnid
                0x00000000000404c8                sysLwCondWait_fnid
                0x00000000000404cc                sysLwCondSignal_fnid
                0x00000000000404d0                sysLwCondSignalTo_fnid
                0x00000000000404d4                sysLwCondSignalAll_fnid
                0x00000000000404d8                sysLwCondDestroy_fnid
                0x00000000000404dc                sysSpinlockInitialize_fnid
                0x00000000000404e0                sysSpinlockLock_fnid
                0x00000000000404e4                sysSpinlockTryLock_fnid
                0x00000000000404e8                sysSpinlockUnlock_fnid
                0x00000000000404ec                sysWatchdogClear_fnid
                0x00000000000404f0                sysWatchdogStart_fnid
                0x00000000000404f4                sysWatchdogStop_fnid
                0x00000000000404f8                sysMalloc_fnid
                0x00000000000404fc                sysMemalign_fnid
                0x0000000000040500                sysMemchr_fnid
                0x0000000000040504                sysMemcmp_fnid
                0x0000000000040508                sysMemcpy_fnid
                0x000000000004050c                sysMemmove_fnid
                0x0000000000040510                sysMemset_fnid
                0x0000000000040514                sysFree_fnid
                0x0000000000040518                sysHeapAllocHeapMemory_fnid
                0x000000000004051c                sysHeapCreateHeap_fnid
                0x0000000000040520                sysHeapDeleteHeap_fnid
                0x0000000000040524                sysHeapFree_fnid
                0x0000000000040528                sysHeapGetMallInfo_fnid
                0x000000000004052c                sysHeapGetTotalFreeSize_fnid
                0x0000000000040530                sysHeapMalloc_fnid
                0x0000000000040534                sysHeapMemalign_fnid
                0x0000000000040538                sysHeapStats_fnid
                0x000000000004053c                sysQsort_fnid
                0x0000000000040540                sysMempoolCreate_fnid
                0x0000000000040544                sysMempoolDestroy_fnid
                0x0000000000040548                sysMempoolGetCount_fnid
                0x000000000004054c                sysMempoolAllocateBlock_fnid
                0x0000000000040550                sysMempoolTryAllocateBlock_fnid
                0x0000000000040554                sysMempoolFreeBlock_fnid
                0x0000000000040558                sysMMapperFreeMemory_fnid
                0x000000000004055c                sysMMapperMapMemory_fnid
                0x0000000000040560                sysMMapperUnmapMemory_fnid
                0x0000000000040564                sysMMapperAllocateMemory_fnid
                0x0000000000040568                sysMMapperAllocateMemoryFromContainer_fnid
                0x000000000004056c                sysStrlen_fnid
                0x0000000000040570                sysStrcpy_fnid
                0x0000000000040574                sysStrncpy_fnid
                0x0000000000040578                sysStrcat_fnid
                0x000000000004057c                sysStrncat_fnid
                0x0000000000040580                sysStrchr_fnid
                0x0000000000040584                sysStrrchr_fnid
                0x0000000000040588                sysStrcmp_fnid
                0x000000000004058c                sysStrncmp_fnid
                0x0000000000040590                sysStrncasecmp_fnid
                0x0000000000040594                sysToLower_fnid
                0x0000000000040598                sysToUpper_fnid
                0x000000000004059c                sysSpuElfGetSegments_fnid
                0x00000000000405a0                sysSpuElfGetInformation_fnid
                0x00000000000405a4                sysSpuRawLoad_fnid
                0x00000000000405a8                sysSpuRawImageLoad_fnid
                0x00000000000405ac                sysSpuImageClose_fnid
                0x00000000000405b0                sysSpuImageImport_fnid
                0x00000000000405b4                sysSpuPrintfAttachGroupEx_fnid
                0x00000000000405b8                sysSpuPrintfAttachThreadEx_fnid
                0x00000000000405bc                sysSpuPrintfDetachGroupEx_fnid
                0x00000000000405c0                sysSpuPrintfDetachThreadEx_fnid
                0x00000000000405c4                sysSpuPrintfFinalizeEx_fnid
                0x00000000000405c8                sysSpuPrintfInitializeEx_fnid
                0x00000000000405cc                sysConsoleGetc_fnid
                0x00000000000405d0                sysConsolePutc_fnid
                0x00000000000405d4                sysConsoleWrite_fnid
                0x00000000000405d8                sysPrintf_fnid
                0x00000000000405dc                sysSprintf_fnid
                0x00000000000405e0                sysSnprintf_fnid
                0x00000000000405e4                sysVprintf_fnid
                0x00000000000405e8                sysVsprintf_fnid
                0x00000000000405ec                sysVsnprintf_fnid

.rodata.sceVNID
 *(.rodata.sceVNID .rodata.sceVNID.*)

.rodata.sceTNID
 *(.rodata.sceTNID .rodata.sceTNID.*)

.rodata.sceVStub
 *(.rodata.sceVStub)
 *(SORT(.rodata.sceVStub.*))
                0x00000000000405f0                PROVIDE (__libentstart, .)

.lib.ent.top
 *(.lib.ent.top)

.lib.ent        0x00000000000405f0        0x0
 *(.lib.ent)
 .lib.ent       0x00000000000405f0        0x0 /usr/local/ps3dev/ppu/lib/gcc/powerpc64-ps3-elf/7.2.0/../../../../powerpc64-ps3-elf/lib/lv2-sprx.o

.lib.ent.btm
 *(.lib.ent.btm)
                0x00000000000405f0                PROVIDE (__libentend, .)
                0x00000000000405f0                PROVIDE (__libstubstart, .)

.lib.stub.top
 *(.lib.stub.top)

.lib.stub       0x00000000000405f0       0xb0
 *(.lib.stub)
 .lib.stub      0x00000000000405f0        0x0 /usr/local/ps3dev/ppu/lib/gcc/powerpc64-ps3-elf/7.2.0/../../../../powerpc64-ps3-elf/lib/lv2-sprx.o
 .lib.stub      0x00000000000405f0       0x2c /usr/local/ps3dev/ppu/lib/libgcm_sys.a(sprx.o)
 .lib.stub      0x000000000004061c       0x2c /usr/local/ps3dev/ppu/lib/libsysutil.a(sprx.o)
 .lib.stub      0x0000000000040648       0x2c /usr/local/ps3dev/ppu/lib/libio.a(sprx.o)
 .lib.stub      0x0000000000040674       0x2c /usr/local/ps3dev/ppu/lib/liblv2.a(sprx.o)

.lib.stub.btm
 *(.lib.stub.btm)
                0x00000000000406a0                PROVIDE (__libstubend, .)

.ppu_rodata
 *(.ppu_rodata .ppu_rodata.*)

.sys_proc_param
 *(.sys_proc_param)

.sys_proc_prx_param
                0x00000000000406a0       0x28
 *(.sys_proc_prx_param)
 .sys_proc_prx_param
                0x00000000000406a0       0x28 /usr/local/ps3dev/ppu/lib/gcc/powerpc64-ps3-elf/7.2.0/../../../../powerpc64-ps3-elf/lib/lv2-sprx.o
                0x0000000000050000                . = ALIGN (0x10000)

.ppu_data
 *(.ppu_data .ppu_data.*)

.sdata2
 *(.sdata2 .sdata2.* .gnu.linkonce.s2.*)

.sbss2
 *(.sbss2 .sbss2.* .gnu.linkonce.sb2.*)

.eh_frame
 *(.eh_frame)

.gcc_except_table
 *(.gcc_except_table .gcc_except_table.*)
                0x0000000000050000                . = ALIGN (0x8)

.preinit_array  0x0000000000050000        0x0
                0x0000000000050000                PROVIDE (__preinit_array_start, .)
 *(.preinit_array)
                0x0000000000050000                PROVIDE (__preinit_array_end, .)

.init_array     0x0000000000050000        0x0
                0x0000000000050000                PROVIDE (__init_array_start, .)
 *(SORT(.init_array.*))
 *(.init_array)
                0x0000000000050000                PROVIDE (__init_array_end, .)

.fini_array     0x0000000000050000        0x0
                0x0000000000050000                PROVIDE (__fini_array_start, .)
 *(.fini_array)
 *(SORT(.fini_array.*))
                0x0000000000050000                PROVIDE (__fini_array_end, .)

.ctors          0x0000000000050000       0x30
 *crtbegin.o(.ctors)
 .ctors         0x0000000000050000        0x8 /usr/local/ps3dev/ppu/lib/gcc/powerpc64-ps3-elf/7.2.0/crtbegin.o
 *crtbegin?.o(.ctors)
 *(EXCLUDE_FILE(*crtend?.o *crtend.o) .ctors)
 *(SORT(.ctors.*))
 .ctors.65430   0x0000000000050008        0x8 /usr/local/ps3dev/ppu/lib/librt.a(globfile.o)
 .ctors.65430   0x0000000000050010        0x8 /usr/local/ps3dev/ppu/lib/gcc/powerpc64-ps3-elf/7.2.0/../../../../powerpc64-ps3-elf/lib/libc.a(lib_a-lock_internal.o)
 .ctors.65431   0x0000000000050018        0x8 /usr/local/ps3dev/ppu/lib/gcc/powerpc64-ps3-elf/7.2.0/../../../../powerpc64-ps3-elf/lib/lv2-crt0.o
 .ctors.65432   0x0000000000050020        0x8 /usr/local/ps3dev/ppu/lib/librt.a(sbrk.o)
 *(.ctors)
 .ctors         0x0000000000050028        0x8 /usr/local/ps3dev/ppu/lib/gcc/powerpc64-ps3-elf/7.2.0/crtend.o

.dtors          0x0000000000050030       0x10
 *crtbegin.o(.dtors)
 .dtors         0x0000000000050030        0x8 /usr/local/ps3dev/ppu/lib/gcc/powerpc64-ps3-elf/7.2.0/crtbegin.o
 *crtbegin?.o(.dtors)
 *(EXCLUDE_FILE(*crtend?.o *crtend.o) .dtors)
 *(SORT(.dtors.*))
 *(.dtors)
 .dtors         0x0000000000050038        0x8 /usr/local/ps3dev/ppu/lib/gcc/powerpc64-ps3-elf/7.2.0/crtend.o
                0x0000000000050038                __DTOR_END__

.jcr
 *(.jcr)

.data.rel.ro
 *(.data.rel.ro.local*)
 *(.data.rel.ro*)

.dynamic
 *(.dynamic)

.data.sceFStub  0x0000000000050040      0x53c
 *(.data.sceFStub)
 *(SORT(.data.sceFStub.*))
 .data.sceFStub.cellGcmSys
                0x0000000000050040      0x15c /usr/local/ps3dev/ppu/lib/libgcm_sys.a(sprx.o)
                0x0000000000050040                gcmInitBodyEx_stub
                0x0000000000050044                gcmSetDisplayBuffer_stub
                0x0000000000050048                gcmGetControlRegister_stub
                0x000000000005004c                gcmAddressToOffset_stub
                0x0000000000050050                gcmGetConfiguration_stub
                0x0000000000050054                gcmGetCurrentField_stub
                0x0000000000050058                gcmSetFlipMode_stub
                0x000000000005005c                gcmGetFlipStatus_stub
                0x0000000000050060                gcmGetLastFlipTime_stub
                0x0000000000050064                gcmGetVBlankCount_stub
                0x0000000000050068                gcmSetWaitFlip_stub
                0x000000000005006c                gcmSetFlipStatus_stub
                0x0000000000050070                gcmResetFlipStatus_stub
                0x0000000000050074                gcmSetFlip_stub
                0x0000000000050078                gcmSetFlipImmediate_stub
                0x000000000005007c                gcmFunc15_stub
                0x0000000000050080                gcmFunc3_stub
                0x0000000000050084                gcmFunc1_stub
                0x0000000000050088                gcmFunc2_stub
                0x000000000005008c                gcmFunc4_stub
                0x0000000000050090                gcmFunc12_stub
                0x0000000000050094                gcmFunc13_stub
                0x0000000000050098                gcmGetReport_stub
                0x000000000005009c                gcmSetTile_stub
                0x00000000000500a0                gcmBindTile_stub
                0x00000000000500a4                gcmUnbindTile_stub
                0x00000000000500a8                gcmSetZcull_stub
                0x00000000000500ac                gcmBindZcull_stub
                0x00000000000500b0                gcmUnbindZcull_stub
                0x00000000000500b4                gcmGetTimeStamp_stub
                0x00000000000500b8                gcmSetVBlankFrequency_stub
                0x00000000000500bc                gcmSetSecondVFrequency_stub
                0x00000000000500c0                gcmSetDebugOutputLevel_stub
                0x00000000000500c4                gcmGetLabelAddress_stub
                0x00000000000500c8                gcmSetVBlankHandlerEx_stub
                0x00000000000500cc                gcmSetFlipHandlerEx_stub
                0x00000000000500d0                gcmSetSecondVHandlerEx_stub
                0x00000000000500d4                gcmSetGraphicsHandlerEx_stub
                0x00000000000500d8                gcmTerminate_stub
                0x00000000000500dc                gcmMapMainMemory_stub
                0x00000000000500e0                gcmMapEaIoAddress_stub
                0x00000000000500e4                gcmUnmapEaIoAddress_stub
                0x00000000000500e8                gcmUnmapIoAddress_stub
                0x00000000000500ec                gcmIoOffsetToAddressEx_stub
                0x00000000000500f0                gcmSetDefaultCommandBuffer_stub
                0x00000000000500f4                gcmSetTileInfo_stub
                0x00000000000500f8                gcmGetTiledPitchSize_stub
                0x00000000000500fc                gcmSetInvalidateTile_stub
                0x0000000000050100                gcmSetUserCommandEx_stub
                0x0000000000050104                gcmSetUserHandlerEx_stub
                0x0000000000050108                gcmSetQueueHandlerEx_stub
                0x000000000005010c                gcmSetPrepareFlip_stub
                0x0000000000050110                gcmGetOffsetTable_stub
                0x0000000000050114                gcmGetLastSecondVTime_stub
                0x0000000000050118                gcmSortRemapEaIoAddress_stub
                0x000000000005011c                gcmGetDisplayBufferByFlipIndex_stub
                0x0000000000050120                gcmGetDefaultCommandWordSize_stub
                0x0000000000050124                gcmGetDefaultSegmentWordSize_stub
                0x0000000000050128                gcmSetDefaultCommandBufferAndSegmentWordSize_stub
                0x000000000005012c                gcmGetDisplayInfo_stub
                0x0000000000050130                gcmDumpGraphicsError_stub
                0x0000000000050134                gcmFunc38_stub
                0x0000000000050138                gcmGetCurrentDisplayBufferId_stub
                0x000000000005013c                gcmGetMaxIoMapSize_stub
                0x0000000000050140                gcmGetNotifyDataAddress_stub
                0x0000000000050144                gcmGetReportDataAddress_stub
                0x0000000000050148                gcmGetReportDataAddressLocation_stub
                0x000000000005014c                gcmGetReportDataLocation_stub
                0x0000000000050150                gcmGetTileInfo_stub
                0x0000000000050154                gcmGetTimeStampLocation_stub
                0x0000000000050158                gcmGetZcullInfo_stub
                0x000000000005015c                gcmInitCursor_stub
                0x0000000000050160                gcmInitDefaultFifoMode_stub
                0x0000000000050164                gcmInitSystemMode_stub
                0x0000000000050168                gcmMapEaIoAddressWithFlags_stub
                0x000000000005016c                gcmMapLocalMemory_stub
                0x0000000000050170                gcmReserveIoMapSize_stub
                0x0000000000050174                gcmSetCursorDisable_stub
                0x0000000000050178                gcmSetCursorEnable_stub
                0x000000000005017c                gcmSetCursorImageOffset_stub
                0x0000000000050180                gcmSetCursorPosition_stub
                0x0000000000050184                gcmSetDefaultFifoSize_stub
                0x0000000000050188                gcmSetFlipCommand_stub
                0x000000000005018c                gcmSetFlipCommandWithWaitLabel_stub
                0x0000000000050190                gcmSysGetLastVBlankTime_stub
                0x0000000000050194                gcmUnreserveIoMapSize_stub
                0x0000000000050198                gcmUpdateCursor_stub
 .data.sceFStub.cellSysutil
                0x000000000005019c      0x148 /usr/local/ps3dev/ppu/lib/libsysutil.a(sprx.o)
                0x000000000005019c                videoGetResolution_stub
                0x00000000000501a0                videoConfigure_stub
                0x00000000000501a4                videoGetState_stub
                0x00000000000501a8                videoGetDeviceInfo_stub
                0x00000000000501ac                videoGetConfiguration_stub
                0x00000000000501b0                videoGetResolutionAvailability_stub
                0x00000000000501b4                videoDebugSetMonitorType_stub
                0x00000000000501b8                videoRegisterCallbackEx_stub
                0x00000000000501bc                videoUnregisterCallback_stub
                0x00000000000501c0                videoGetNumberOfDevice_stub
                0x00000000000501c4                videoGetConvertCursorColorInfo_stub
                0x00000000000501c8                msgDialogClose_stub
                0x00000000000501cc                msgDialogOpenErrorCodeEx_stub
                0x00000000000501d0                msgDialogOpenEx_stub
                0x00000000000501d4                msgDialogProgressBarInc_stub
                0x00000000000501d8                msgDialogAbort_stub
                0x00000000000501dc                msgDialogOpen2Ex_stub
                0x00000000000501e0                msgDialogProgressBarReset_stub
                0x00000000000501e4                msgDialogProgressBarSetMsg_stub
                0x00000000000501e8                oskGetInputText_stub
                0x00000000000501ec                oskSetInitialInputDevice_stub
                0x00000000000501f0                oskGetSize_stub
                0x00000000000501f4                oskUnloadAsync_stub
                0x00000000000501f8                oskDisableDimmer_stub
                0x00000000000501fc                oskSetKeyLayoutOption_stub
                0x0000000000050200                oskAbort_stub
                0x0000000000050204                oskSetDeviceMask_stub
                0x0000000000050208                oskSetSeparateWindowOption_stub
                0x000000000005020c                oskAddSupportLanguage_stub
                0x0000000000050210                oskLoadAsync_stub
                0x0000000000050214                oskSetInitialKeyLayout_stub
                0x0000000000050218                oskSetLayoutMode_stub
                0x000000000005021c                sysUtilRegisterCallbackEx_stub
                0x0000000000050220                sysUtilCheckCallback_stub
                0x0000000000050224                sysUtilUnregisterCallback_stub
                0x0000000000050228                sysUtilGetSystemParamInt_stub
                0x000000000005022c                sysUtilGetSystemParamString_stub
                0x0000000000050230                sysSaveListLoad2Ex_stub
                0x0000000000050234                sysSaveListSave2Ex_stub
                0x0000000000050238                sysSaveListAutoLoadEx_stub
                0x000000000005023c                sysSaveListAutoSaveEx_stub
                0x0000000000050240                sysSaveFixedLoad2Ex_stub
                0x0000000000050244                sysSaveFixedSave2Ex_stub
                0x0000000000050248                sysSaveAutoLoad2Ex_stub
                0x000000000005024c                sysSaveAutoSave2Ex_stub
                0x0000000000050250                sysSaveDelete2_stub
                0x0000000000050254                sysGameDataCheck_stub
                0x0000000000050258                sysGameBootCheck_stub
                0x000000000005025c                sysGamePatchCheck_stub
                0x0000000000050260                sysGameCreateGameData_stub
                0x0000000000050264                sysGameGetParamInt_stub
                0x0000000000050268                sysGameGetParamString_stub
                0x000000000005026c                sysGameGetSizeKB_stub
                0x0000000000050270                sysGameSetParamString_stub
                0x0000000000050274                sysGameGetDiscContentInfoUpdatePath_stub
                0x0000000000050278                sysGameContentPermit_stub
                0x000000000005027c                sysGameContentErrorDialog_stub
                0x0000000000050280                sysGameThemeInstall_stub
                0x0000000000050284                sysGameThemeInstallFromBufferEx_stub
                0x0000000000050288                sysGameGetLocalWebContentPath_stub
                0x000000000005028c                sysGameDeleteGameData_stub
                0x0000000000050290                sysGameRegisterDiscChangeCallbackEx_stub
                0x0000000000050294                sysGameUnregisterDiscChangeCallback_stub
                0x0000000000050298                sysDiscRegisterDiscChangeCallbackEx_stub
                0x000000000005029c                sysDiscUnregisterDiscChangeCallback_stub
                0x00000000000502a0                sysTrophyInit_stub
                0x00000000000502a4                sysTrophyAbortHandle_stub
                0x00000000000502a8                sysTrophyCreateContext_stub
                0x00000000000502ac                sysTrophyCreateHandle_stub
                0x00000000000502b0                sysTrophyDestroyContext_stub
                0x00000000000502b4                sysTrophyDestroyHandle_stub
                0x00000000000502b8                sysTrophyGetGameIcon_stub
                0x00000000000502bc                sysTrophyGetGameInfo_stub
                0x00000000000502c0                sysTrophyGetGameProgress_stub
                0x00000000000502c4                sysTrophyGetRequiredDiskSpace_stub
                0x00000000000502c8                sysTrophyGetTrophyIcon_stub
                0x00000000000502cc                sysTrophyGetTrophyInfo_stub
                0x00000000000502d0                sysTrophyGetTrophyUnlockState_stub
                0x00000000000502d4                sysTrophyRegisterContextEx_stub
                0x00000000000502d8                sysTrophySetSoundLevel_stub
                0x00000000000502dc                sysTrophyTerm_stub
                0x00000000000502e0                sysTrophyUnlockTrophy_stub
 .data.sceFStub.sysPrxForUser
                0x00000000000502e4      0x1dc /usr/local/ps3dev/ppu/lib/liblv2.a(sprx.o)
                0x00000000000502e4                sysGetSystemTime_stub
                0x00000000000502e8                sysGetSystemSwVersion_stub
                0x00000000000502ec                sysGetTemperature_stub
                0x00000000000502f0                sysGetRandomNumber_stub
                0x00000000000502f4                sysGetRtcStatus_stub
                0x00000000000502f8                sysBoardStorageRead_stub
                0x00000000000502fc                sysBoardStorageWrite_stub
                0x0000000000050300                sysProcessIsStack_stub
                0x0000000000050304                sysProcessExit_stub
                0x0000000000050308                sysProcessExitspawn_stub
                0x000000000005030c                sysProcessExitSpawn2Ex_stub
                0x0000000000050310                sysProcessExitSpawnWithLevel_stub
                0x0000000000050314                sysProcessAtExitSpawn_stub
                0x0000000000050318                sysProcess_At_ExitSpawn_stub
                0x000000000005031c                sysPrxRegisterLibrary_stub
                0x0000000000050320                sysPrxUnregisterLibrary_stub
                0x0000000000050324                sysPrxStartModule_stub
                0x0000000000050328                sysPrxStopModule_stub
                0x000000000005032c                sysPrxLoadModule_stub
                0x0000000000050330                sysPrxLoadModuleByFd_stub
                0x0000000000050334                sysPrxLoadModuleList_stub
                0x0000000000050338                sysPrxLoadModuleListOnMemcontainer_stub
                0x000000000005033c                sysPrxLoadModuleOnMemcontainer_stub
                0x0000000000050340                sysPrxLoadModuleOnMemcontainerByFd_stub
                0x0000000000050344                sysPrxGetModuleInfo_stub
                0x0000000000050348                sysPrxGetModuleList_stub
                0x000000000005034c                sysPrxGetModuleId_stub
                0x0000000000050350                sysPrxGetModuleIdByAddress_stub
                0x0000000000050354                sysPrxGetModuleIdByName_stub
                0x0000000000050358                sysPrxUnloadModule_stub
                0x000000000005035c                sysPrxExitSpawnWithLevel_stub
                0x0000000000050360                sysThreadCreateEx_stub
                0x0000000000050364                sysThreadExit_stub
                0x0000000000050368                sysThreadGetId_stub
                0x000000000005036c                sysThreadOnce_stub
                0x0000000000050370                sysThreadInitialzeTLS_stub
                0x0000000000050374                sysThreadRegisterAtexit_stub
                0x0000000000050378                sysThreadUnregisterAtexit_stub
                0x000000000005037c                sysInterruptThreadDisestablish_stub
                0x0000000000050380                sysLwMutexCreate_stub
                0x0000000000050384                sysLwMutexDestroy_stub
                0x0000000000050388                sysLwMutexLock_stub
                0x000000000005038c                sysLwMutexTryLock_stub
                0x0000000000050390                sysLwMutexUnlock_stub
                0x0000000000050394                sysLwCondCreate_stub
                0x0000000000050398                sysLwCondWait_stub
                0x000000000005039c                sysLwCondSignal_stub
                0x00000000000503a0                sysLwCondSignalTo_stub
                0x00000000000503a4                sysLwCondSignalAll_stub
                0x00000000000503a8                sysLwCondDestroy_stub
                0x00000000000503ac                sysSpinlockInitialize_stub
                0x00000000000503b0                sysSpinlockLock_stub
                0x00000000000503b4                sysSpinlockTryLock_stub
                0x00000000000503b8                sysSpinlockUnlock_stub
                0x00000000000503bc                sysWatchdogClear_stub
                0x00000000000503c0                sysWatchdogStart_stub
                0x00000000000503c4                sysWatchdogStop_stub
                0x00000000000503c8                sysMalloc_stub
                0x00000000000503cc                sysMemalign_stub
                0x00000000000503d0                sysMemchr_stub
                0x00000000000503d4                sysMemcmp_stub
                0x00000000000503d8                sysMemcpy_stub
                0x00000000000503dc                sysMemmove_stub
                0x00000000000503e0                sysMemset_stub
                0x00000000000503e4                sysFree_stub
                0x00000000000503e8                sysHeapAllocHeapMemory_stub
                0x00000000000503ec                sysHeapCreateHeap_stub
                0x00000000000503f0                sysHeapDeleteHeap_stub
                0x00000000000503f4                sysHeapFree_stub
                0x00000000000503f8                sysHeapGetMallInfo_stub
                0x00000000000503fc                sysHeapGetTotalFreeSize_stub
                0x0000000000050400                sysHeapMalloc_stub
                0x0000000000050404                sysHeapMemalign_stub
                0x0000000000050408                sysHeapStats_stub
                0x000000000005040c                sysQsort_stub
                0x0000000000050410                sysMempoolCreate_stub
                0x0000000000050414                sysMempoolDestroy_stub
                0x0000000000050418                sysMempoolGetCount_stub
                0x000000000005041c                sysMempoolAllocateBlock_stub
                0x0000000000050420                sysMempoolTryAllocateBlock_stub
                0x0000000000050424                sysMempoolFreeBlock_stub
                0x0000000000050428                sysMMapperFreeMemory_stub
                0x000000000005042c                sysMMapperMapMemory_stub
                0x0000000000050430                sysMMapperUnmapMemory_stub
                0x0000000000050434                sysMMapperAllocateMemory_stub
                0x0000000000050438                sysMMapperAllocateMemoryFromContainer_stub
                0x000000000005043c                sysStrlen_stub
                0x0000000000050440                sysStrcpy_stub
                0x0000000000050444                sysStrncpy_stub
                0x0000000000050448                sysStrcat_stub
                0x000000000005044c                sysStrncat_stub
                0x0000000000050450                sysStrchr_stub
                0x0000000000050454                sysStrrchr_stub
                0x0000000000050458                sysStrcmp_stub
                0x000000000005045c                sysStrncmp_stub
                0x0000000000050460                sysStrncasecmp_stub
                0x0000000000050464                sysToLower_stub
                0x0000000000050468                sysToUpper_stub
                0x000000000005046c                sysSpuElfGetSegments_stub
                0x0000000000050470                sysSpuElfGetInformation_stub
                0x0000000000050474                sysSpuRawLoad_stub
                0x0000000000050478                sysSpuRawImageLoad_stub
                0x000000000005047c                sysSpuImageClose_stub
                0x0000000000050480                sysSpuImageImport_stub
                0x0000000000050484                sysSpuPrintfAttachGroupEx_stub
                0x0000000000050488                sysSpuPrintfAttachThreadEx_stub
                0x000000000005048c                sysSpuPrintfDetachGroupEx_stub
                0x0000000000050490                sysSpuPrintfDetachThreadEx_stub
                0x0000000000050494                sysSpuPrintfFinalizeEx_stub
                0x0000000000050498                sysSpuPrintfInitializeEx_stub
                0x000000000005049c                sysConsoleGetc_stub
                0x00000000000504a0                sysConsolePutc_stub
                0x00000000000504a4                sysConsoleWrite_stub
                0x00000000000504a8                sysPrintf_stub
                0x00000000000504ac                sysSprintf_stub
                0x00000000000504b0                sysSnprintf_stub
                0x00000000000504b4                sysVprintf_stub
                0x00000000000504b8                sysVsprintf_stub
                0x00000000000504bc                sysVsnprintf_stub
 .data.sceFStub.sys_io
                0x00000000000504c0       0xbc /usr/local/ps3dev/ppu/lib/libio.a(sprx.o)
                0x00000000000504c0                sys_config_start_stub
                0x00000000000504c4                sys_config_stop_stub
                0x00000000000504c8                sys_config_add_service_listener_stub
                0x00000000000504cc                sys_config_remove_service_listener_stub
                0x00000000000504d0                sys_config_register_service_stub
                0x00000000000504d4                sys_config_unregister_service_stub
                0x00000000000504d8                ioPadInit_stub
                0x00000000000504dc                ioPadEnd_stub
                0x00000000000504e0                ioPadClearBuf_stub
                0x00000000000504e4                ioPadInfoPressMode_stub
                0x00000000000504e8                ioPadLddRegisterController_stub
                0x00000000000504ec                ioPadGetInfo_stub
                0x00000000000504f0                ioPadGetRawData_stub
                0x00000000000504f4                ioPadGetDataExtra_stub
                0x00000000000504f8                ioPadInfoSensorMode_stub
                0x00000000000504fc                ioPadGetData_stub
                0x0000000000050500                ioPadLddGetPortNo_stub
                0x0000000000050504                ioPadLddDataInsert_stub
                0x0000000000050508                ioPadSetSensorMode_stub
                0x000000000005050c                ioPadGetCapabilityInfo_stub
                0x0000000000050510                ioPadLddUnregisterController_stub
                0x0000000000050514                ioPadSetActDirect_stub
                0x0000000000050518                ioPadSetPressMode_stub
                0x000000000005051c                ioPadPeriphGetInfo_stub
                0x0000000000050520                ioPadSetPortSetting_stub
                0x0000000000050524                ioPadPeriphGetData_stub
                0x0000000000050528                ioPadGetInfo2_stub
                0x000000000005052c                ioMouseInit_stub
                0x0000000000050530                ioMouseEnd_stub
                0x0000000000050534                ioMouseClearBuf_stub
                0x0000000000050538                ioMouseGetInfo_stub
                0x000000000005053c                ioMouseGetTabletDataList_stub
                0x0000000000050540                ioMouseSetTabletMode_stub
                0x0000000000050544                ioMouseGetData_stub
                0x0000000000050548                ioMouseInfoTabletMode_stub
                0x000000000005054c                ioMouseGetRawData_stub
                0x0000000000050550                ioMouseGetDataList_stub
                0x0000000000050554                ioKbInit_stub
                0x0000000000050558                ioKbEnd_stub
                0x000000000005055c                ioKbRead_stub
                0x0000000000050560                ioKbSetReadMode_stub
                0x0000000000050564                ioKbSetCodeType_stub
                0x0000000000050568                ioKbCnvRawCode_stub
                0x000000000005056c                ioKbSetLEDStatus_stub
                0x0000000000050570                ioKbGetInfo_stub
                0x0000000000050574                ioKbGetConfiguration_stub
                0x0000000000050578                ioKbClearBuf_stub

.toc1
 *(.toc1)

.opd            0x0000000000050580     0x5688
 *(.opd)
 .opd           0x0000000000050580       0x30 /usr/local/ps3dev/ppu/lib/gcc/powerpc64-ps3-elf/7.2.0/../../../../powerpc64-ps3-elf/lib/lv2-crti.o
                0x0000000000050580                _init
                0x0000000000050598                _fini
 .opd           0x00000000000505b0       0x60 /usr/local/ps3dev/ppu/lib/gcc/powerpc64-ps3-elf/7.2.0/crtbegin.o
 .opd           0x0000000000050610       0x48 /usr/local/ps3dev/ppu/lib/gcc/powerpc64-ps3-elf/7.2.0/../../../../powerpc64-ps3-elf/lib/lv2-crt0.o
                0x0000000000050640                _initialize
 .opd           0x0000000000050658       0xc0 main.o
                0x0000000000050658                load_image_to_RSX
                0x0000000000050670                drawFrame
                0x0000000000050688                drawImage
                0x00000000000506a0                createTexture
                0x00000000000506b8                loadShader
                0x00000000000506d0                createQuad
                0x00000000000506e8                init_texture
                0x0000000000050700                main
 .opd           0x0000000000050718       0x90 rsxutil.o
                0x0000000000050718                waitFlip
                0x0000000000050730                flip
                0x0000000000050748                makeBuffer
                0x0000000000050760                getResolution
                0x0000000000050778                initScreen
                0x0000000000050790                setRenderTarget
 .opd           0x00000000000507a8      0x828 /usr/local/ps3dev/ppu/lib/libgcm_sys.a(sprx.o)
                0x00000000000507a8                gcmInitBodyEx
                0x00000000000507c0                gcmSetDisplayBuffer
                0x00000000000507d8                gcmGetControlRegister
                0x00000000000507f0                gcmAddressToOffset
                0x0000000000050808                gcmGetConfiguration
                0x0000000000050820                gcmGetCurrentField
                0x0000000000050838                gcmSetFlipMode
                0x0000000000050850                gcmGetFlipStatus
                0x0000000000050868                gcmGetLastFlipTime
                0x0000000000050880                gcmGetVBlankCount
                0x0000000000050898                gcmSetWaitFlip
                0x00000000000508b0                gcmSetFlipStatus
                0x00000000000508c8                gcmResetFlipStatus
                0x00000000000508e0                gcmSetFlip
                0x00000000000508f8                gcmSetFlipImmediate
                0x0000000000050910                gcmFunc15
                0x0000000000050928                gcmFunc3
                0x0000000000050940                gcmFunc1
                0x0000000000050958                gcmFunc2
                0x0000000000050970                gcmFunc4
                0x0000000000050988                gcmFunc12
                0x00000000000509a0                gcmFunc13
                0x00000000000509b8                gcmGetReport
                0x00000000000509d0                gcmSetTile
                0x00000000000509e8                gcmBindTile
                0x0000000000050a00                gcmUnbindTile
                0x0000000000050a18                gcmSetZcull
                0x0000000000050a30                gcmBindZcull
                0x0000000000050a48                gcmUnbindZcull
                0x0000000000050a60                gcmGetTimeStamp
                0x0000000000050a78                gcmSetVBlankFrequency
                0x0000000000050a90                gcmSetSecondVFrequency
                0x0000000000050aa8                gcmSetDebugOutputLevel
                0x0000000000050ac0                gcmGetLabelAddress
                0x0000000000050ad8                gcmSetVBlankHandlerEx
                0x0000000000050af0                gcmSetFlipHandlerEx
                0x0000000000050b08                gcmSetSecondVHandlerEx
                0x0000000000050b20                gcmSetGraphicsHandlerEx
                0x0000000000050b38                gcmTerminate
                0x0000000000050b50                gcmMapMainMemory
                0x0000000000050b68                gcmMapEaIoAddress
                0x0000000000050b80                gcmUnmapEaIoAddress
                0x0000000000050b98                gcmUnmapIoAddress
                0x0000000000050bb0                gcmIoOffsetToAddressEx
                0x0000000000050bc8                gcmSetDefaultCommandBuffer
                0x0000000000050be0                gcmSetTileInfo
                0x0000000000050bf8                gcmGetTiledPitchSize
                0x0000000000050c10                gcmSetInvalidateTile
                0x0000000000050c28                gcmSetUserCommandEx
                0x0000000000050c40                gcmSetUserHandlerEx
                0x0000000000050c58                gcmSetQueueHandlerEx
                0x0000000000050c70                gcmSetPrepareFlip
                0x0000000000050c88                gcmGetOffsetTable
                0x0000000000050ca0                gcmGetLastSecondVTime
                0x0000000000050cb8                gcmSortRemapEaIoAddress
                0x0000000000050cd0                gcmGetDisplayBufferByFlipIndex
                0x0000000000050ce8                gcmGetDefaultCommandWordSize
                0x0000000000050d00                gcmGetDefaultSegmentWordSize
                0x0000000000050d18                gcmSetDefaultCommandBufferAndSegmentWordSize
                0x0000000000050d30                gcmGetDisplayInfo
                0x0000000000050d48                gcmDumpGraphicsError
                0x0000000000050d60                gcmFunc38
                0x0000000000050d78                gcmGetCurrentDisplayBufferId
                0x0000000000050d90                gcmGetMaxIoMapSize
                0x0000000000050da8                gcmGetNotifyDataAddress
                0x0000000000050dc0                gcmGetReportDataAddress
                0x0000000000050dd8                gcmGetReportDataAddressLocation
                0x0000000000050df0                gcmGetReportDataLocation
                0x0000000000050e08                gcmGetTileInfo
                0x0000000000050e20                gcmGetTimeStampLocation
                0x0000000000050e38                gcmGetZcullInfo
                0x0000000000050e50                gcmInitCursor
                0x0000000000050e68                gcmInitDefaultFifoMode
                0x0000000000050e80                gcmInitSystemMode
                0x0000000000050e98                gcmMapEaIoAddressWithFlags
                0x0000000000050eb0                gcmMapLocalMemory
                0x0000000000050ec8                gcmReserveIoMapSize
                0x0000000000050ee0                gcmSetCursorDisable
                0x0000000000050ef8                gcmSetCursorEnable
                0x0000000000050f10                gcmSetCursorImageOffset
                0x0000000000050f28                gcmSetCursorPosition
                0x0000000000050f40                gcmSetDefaultFifoSize
                0x0000000000050f58                gcmSetFlipCommand
                0x0000000000050f70                gcmSetFlipCommandWithWaitLabel
                0x0000000000050f88                gcmSysGetLastVBlankTime
                0x0000000000050fa0                gcmUnreserveIoMapSize
                0x0000000000050fb8                gcmUpdateCursor
 .opd           0x0000000000050fd0       0x90 /usr/local/ps3dev/ppu/lib/librsx.a(init.o)
                0x0000000000050fd0                rsxInit
                0x0000000000050fe8                rsxSetupContextData
                0x0000000000051000                rsxSetCurrentBuffer
                0x0000000000051018                rsxSetDefaultCommandBuffer
                0x0000000000051030                rsxSetUserCallback
                0x0000000000051048                rsxGetCurrentBuffer
 .opd           0x0000000000051060       0x90 /usr/local/ps3dev/ppu/lib/librsx.a(buffer.o)
                0x0000000000051060                rsxResetCommandBufferUnsafe
                0x0000000000051078                rsxFlushBufferUnsafe
                0x0000000000051090                rsxFinishUnsafe
                0x00000000000510a8                rsxResetCommandBuffer
                0x00000000000510c0                rsxFlushBuffer
                0x00000000000510d8                rsxFinish
 .opd           0x00000000000510f0     0x18a8 /usr/local/ps3dev/ppu/lib/librsx.a(commands.o)
                0x00000000000510f0                rsxSetReturnCommandUnsafe
                0x0000000000051108                rsxSetCallCommandUnsafe
                0x0000000000051120                rsxSetJumpCommandUnsafe
                0x0000000000051138                rsxSetNopCommandUnsafe
                0x0000000000051150                rsxSetSkipNopUnsafe
                0x0000000000051168                rsxSetClearColorUnsafe
                0x0000000000051180                rsxSetClearDepthStencilUnsafe
                0x0000000000051198                rsxSetReferenceCommandUnsafe
                0x00000000000511b0                rsxSetWriteBackendLabelUnsafe
                0x00000000000511c8                rsxSetWriteTextureLabelUnsafe
                0x00000000000511e0                rsxSetWaitLabelUnsafe
                0x00000000000511f8                rsxSetWriteCommandLabelUnsafe
                0x0000000000051210                rsxSetSurfaceUnsafe
                0x0000000000051228                rsxSetColorMaskUnsafe
                0x0000000000051240                rsxSetColorMaskMrtUnsafe
                0x0000000000051258                rsxSetShadeModelUnsafe
                0x0000000000051270                rsxSetViewportUnsafe
                0x0000000000051288                rsxSetViewportClipUnsafe
                0x00000000000512a0                rsxSetUserClipPlaneControlUnsafe
                0x00000000000512b8                rsxSetDepthTestEnableUnsafe
                0x00000000000512d0                rsxSetDepthFuncUnsafe
                0x00000000000512e8                rsxSetDepthWriteEnableUnsafe
                0x0000000000051300                rsxSetDepthFormatUnsafe
                0x0000000000051318                rsxSetCullFaceEnableUnsafe
                0x0000000000051330                rsxSetCullFaceUnsafe
                0x0000000000051348                rsxSetFrontFaceUnsafe
                0x0000000000051360                rsxSetFrontPolygonModeUnsafe
                0x0000000000051378                rsxSetBackPolygonModeUnsafe
                0x0000000000051390                rsxSetPolygonOffsetFillEnableUnsafe
                0x00000000000513a8                rsxSetPolygonOffsetUnsafe
                0x00000000000513c0                rsxSetPolygonOffsetLineEnableUnsafe
                0x00000000000513d8                rsxClearSurfaceUnsafe
                0x00000000000513f0                rsxSetCylindricalWrapUnsafe
                0x0000000000051408                rsxSetTwoSideLightEnableUnsafe
                0x0000000000051420                rsxSetStencilFuncUnsafe
                0x0000000000051438                rsxSetStencilMaskUnsafe
                0x0000000000051450                rsxSetStencilOpUnsafe
                0x0000000000051468                rsxSetStencilTestEnableUnsafe
                0x0000000000051480                rsxSetBackStencilFuncUnsafe
                0x0000000000051498                rsxSetBackStencilMaskUnsafe
                0x00000000000514b0                rsxSetBackStencilOpUnsafe
                0x00000000000514c8                rsxSetTwoSidedStencilTestEnableUnsafe
                0x00000000000514e0                rsxSetRenderEnableUnsafe
                0x00000000000514f8                rsxSetReportUnsafe
                0x0000000000051510                rsxSetClearReportUnsafe
                0x0000000000051528                rsxSetZPixelCountEnableUnsafe
                0x0000000000051540                rsxSetSCullControlUnsafe
                0x0000000000051558                rsxSetZCullLimitUnsafe
                0x0000000000051570                rsxSetZCullStatsEnableUnsafe
                0x0000000000051588                rsxSetZCullControlUnsafe
                0x00000000000515a0                rsxSetClearZCullSurfaceUnsafe
                0x00000000000515b8                rsxSetZCullEnableUnsafe
                0x00000000000515d0                rsxSetZCullInvalidateUnsafe
                0x00000000000515e8                rsxSetPolygonSmoothEnableUnsafe
                0x0000000000051600                rsxSetDitherEnableUnsafe
                0x0000000000051618                rsxLoadVertexProgramBlockUnsafe
                0x0000000000051630                rsxLoadFragmentProgramLocationUnsafe
                0x0000000000051648                rsxUpdateFragmentProgramLocationUnsafe
                0x0000000000051660                rsxSetFragmentProgramControlUnsafe
                0x0000000000051678                rsxLoadVertexProgramParameterBlockUnsafe
                0x0000000000051690                rsxLoadVertexProgramUnsafe
                0x00000000000516a8                rsxSetVertexProgramParameterUnsafe
                0x00000000000516c0                rsxSetVertexProgramConstantsUnsafe
                0x00000000000516d8                rsxSetVertexAttribOutputMaskUnsafe
                0x00000000000516f0                rsxSetFragmentProgramGammaEnableUnsafe
                0x0000000000051708                rsxDrawVertexBeginUnsafe
                0x0000000000051720                rsxDrawVertexEndUnsafe
                0x0000000000051738                rsxDrawVertex1fUnsafe
                0x0000000000051750                rsxDrawVertex2fUnsafe
                0x0000000000051768                rsxDrawVertex3fUnsafe
                0x0000000000051780                rsxDrawVertex4fUnsafe
                0x0000000000051798                rsxDrawVertex4sUnsafe
                0x00000000000517b0                rsxDrawVertexScaled4sUnsafe
                0x00000000000517c8                rsxDrawVertex2sUnsafe
                0x00000000000517e0                rsxDrawVertex4ubUnsafe
                0x00000000000517f8                rsxSetFrequencyDividerOperationUnsafe
                0x0000000000051810                rsxInvalidateVertexCacheUnsafe
                0x0000000000051828                rsxInvalidateTextureCacheUnsafe
                0x0000000000051840                rsxLoadTextureUnsafe
                0x0000000000051858                rsxLoadVertexTextureUnsafe
                0x0000000000051870                rsxTextureControlUnsafe
                0x0000000000051888                rsxVertexTextureControlUnsafe
                0x00000000000518a0                rsxTextureFilterUnsafe
                0x00000000000518b8                rsxVertexTextureFilterUnsafe
                0x00000000000518d0                rsxTextureWrapModeUnsafe
                0x00000000000518e8                rsxVertexTextureWrapModeUnsafe
                0x0000000000051900                rsxTextureBorderColorUnsafe
                0x0000000000051918                rsxVertexTextureBorderColorUnsafe
                0x0000000000051930                rsxTextureOptimizationUnsafe
                0x0000000000051948                rsxTextureAnisoSpreadUnsafe
                0x0000000000051960                rsxSetZMinMaxControlUnsafe
                0x0000000000051978                rsxSetDepthBoundsTestEnableUnsafe
                0x0000000000051990                rsxSetDepthBoundsUnsafe
                0x00000000000519a8                rsxBindVertexArrayAttribUnsafe
                0x00000000000519c0                rsxDrawVertexArrayUnsafe
                0x00000000000519d8                rsxDrawInlineVertexArrayUnsafe
                0x00000000000519f0                rsxDrawIndexArrayUnsafe
                0x0000000000051a08                rsxDrawInlineIndexArray16Unsafe
                0x0000000000051a20                rsxDrawInlineIndexArray32Unsafe
                0x0000000000051a38                rsxSetRestartIndexEnableUnsafe
                0x0000000000051a50                rsxSetRestartIndexUnsafe
                0x0000000000051a68                rsxSetScissorUnsafe
                0x0000000000051a80                rsxSetAntialiasingControlUnsafe
                0x0000000000051a98                rsxInlineTransferUnsafe
                0x0000000000051ab0                rsxSetFragmentProgramParameterUnsafe
                0x0000000000051ac8                rsxSetAlphaFuncUnsafe
                0x0000000000051ae0                rsxSetAlphaTestEnableUnsafe
                0x0000000000051af8                rsxSetBlendFuncUnsafe
                0x0000000000051b10                rsxSetBlendEquationUnsafe
                0x0000000000051b28                rsxSetBlendColorUnsafe
                0x0000000000051b40                rsxSetBlendEnableUnsafe
                0x0000000000051b58                rsxSetBlendOptimizationUnsafe
                0x0000000000051b70                rsxSetBlendEnableMrtUnsafe
                0x0000000000051b88                rsxSetLogicOpUnsafe
                0x0000000000051ba0                rsxSetLogicOpEnableUnsafe
                0x0000000000051bb8                rsxSetFogModeUnsafe
                0x0000000000051bd0                rsxSetFogParamsUnsafe
                0x0000000000051be8                rsxSetTransformBranchBitsUnsafe
                0x0000000000051c00                rsxSetPointSpriteControlUnsafe
                0x0000000000051c18                rsxSetPointSizeUnsafe
                0x0000000000051c30                rsxSetTransferDataUnsafe
                0x0000000000051c48                rsxSetTransferDataModeUnsafe
                0x0000000000051c60                rsxSetTransferDataOffsetUnsafe
                0x0000000000051c78                rsxSetTransferDataFormatUnsafe
                0x0000000000051c90                rsxSetTransferImageUnsafe
                0x0000000000051ca8                rsxSetTransferScaleModeUnsafe
                0x0000000000051cc0                rsxSetTransferScaleSurfaceUnsafe
                0x0000000000051cd8                rsxSetTransferScaleSwizzleUnsafe
                0x0000000000051cf0                rsxSetTimeStampUnsafe
                0x0000000000051d08                rsxSetWaitForIdleUnsafe
                0x0000000000051d20                rsxContextCallback
                0x0000000000051d38                rsxSetReturnCommand
                0x0000000000051d50                rsxSetCallCommand
                0x0000000000051d68                rsxSetJumpCommand
                0x0000000000051d80                rsxSetNopCommand
                0x0000000000051d98                rsxSetSkipNop
                0x0000000000051db0                rsxSetClearColor
                0x0000000000051dc8                rsxSetClearDepthStencil
                0x0000000000051de0                rsxSetReferenceCommand
                0x0000000000051df8                rsxSetWriteBackendLabel
                0x0000000000051e10                rsxSetWriteTextureLabel
                0x0000000000051e28                rsxSetWaitLabel
                0x0000000000051e40                rsxSetWriteCommandLabel
                0x0000000000051e58                rsxSetSurface
                0x0000000000051e70                rsxSetColorMask
                0x0000000000051e88                rsxSetColorMaskMrt
                0x0000000000051ea0                rsxSetShadeModel
                0x0000000000051eb8                rsxSetViewport
                0x0000000000051ed0                rsxSetViewportClip
                0x0000000000051ee8                rsxSetUserClipPlaneControl
                0x0000000000051f00                rsxSetDepthTestEnable
                0x0000000000051f18                rsxSetDepthFunc
                0x0000000000051f30                rsxSetDepthWriteEnable
                0x0000000000051f48                rsxSetDepthFormat
                0x0000000000051f60                rsxSetCullFaceEnable
                0x0000000000051f78                rsxSetCullFace
                0x0000000000051f90                rsxSetFrontFace
                0x0000000000051fa8                rsxSetFrontPolygonMode
                0x0000000000051fc0                rsxSetBackPolygonMode
                0x0000000000051fd8                rsxSetPolygonOffsetFillEnable
                0x0000000000051ff0                rsxSetPolygonOffset
                0x0000000000052008                rsxSetPolygonOffsetLineEnable
                0x0000000000052020                rsxClearSurface
                0x0000000000052038                rsxSetCylindricalWrap
                0x0000000000052050                rsxSetTwoSideLightEnable
                0x0000000000052068                rsxSetStencilFunc
                0x0000000000052080                rsxSetStencilMask
                0x0000000000052098                rsxSetStencilOp
                0x00000000000520b0                rsxSetStencilTestEnable
                0x00000000000520c8                rsxSetBackStencilFunc
                0x00000000000520e0                rsxSetBackStencilMask
                0x00000000000520f8                rsxSetBackStencilOp
                0x0000000000052110                rsxSetTwoSidedStencilTestEnable
                0x0000000000052128                rsxSetRenderEnable
                0x0000000000052140                rsxSetReport
                0x0000000000052158                rsxSetClearReport
                0x0000000000052170                rsxSetZPixelCountEnable
                0x0000000000052188                rsxSetSCullControl
                0x00000000000521a0                rsxSetZCullLimit
                0x00000000000521b8                rsxSetZCullStatsEnable
                0x00000000000521d0                rsxSetZCullControl
                0x00000000000521e8                rsxSetClearZCullSurface
                0x0000000000052200                rsxSetZCullEnable
                0x0000000000052218                rsxSetZCullInvalidate
                0x0000000000052230                rsxSetPolygonSmoothEnable
                0x0000000000052248                rsxSetDitherEnable
                0x0000000000052260                rsxLoadVertexProgramBlock
                0x0000000000052278                rsxLoadFragmentProgramLocation
                0x0000000000052290                rsxUpdateFragmentProgramLocation
                0x00000000000522a8                rsxSetFragmentProgramControl
                0x00000000000522c0                rsxLoadVertexProgramParameterBlock
                0x00000000000522d8                rsxLoadVertexProgram
                0x00000000000522f0                rsxSetVertexProgramParameter
                0x0000000000052308                rsxSetVertexProgramConstants
                0x0000000000052320                rsxSetVertexAttribOutputMask
                0x0000000000052338                rsxSetFragmentProgramGammaEnable
                0x0000000000052350                rsxDrawVertexBegin
                0x0000000000052368                rsxDrawVertexEnd
                0x0000000000052380                rsxDrawVertex1f
                0x0000000000052398                rsxDrawVertex2f
                0x00000000000523b0                rsxDrawVertex3f
                0x00000000000523c8                rsxDrawVertex4f
                0x00000000000523e0                rsxDrawVertex4s
                0x00000000000523f8                rsxDrawVertexScaled4s
                0x0000000000052410                rsxDrawVertex2s
                0x0000000000052428                rsxDrawVertex4ub
                0x0000000000052440                rsxSetFrequencyDividerOperation
                0x0000000000052458                rsxInvalidateVertexCache
                0x0000000000052470                rsxInvalidateTextureCache
                0x0000000000052488                rsxLoadTexture
                0x00000000000524a0                rsxLoadVertexTexture
                0x00000000000524b8                rsxTextureControl
                0x00000000000524d0                rsxVertexTextureControl
                0x00000000000524e8                rsxTextureFilter
                0x0000000000052500                rsxVertexTextureFilter
                0x0000000000052518                rsxTextureWrapMode
                0x0000000000052530                rsxVertexTextureWrapMode
                0x0000000000052548                rsxTextureBorderColor
                0x0000000000052560                rsxVertexTextureBorderColor
                0x0000000000052578                rsxTextureOptimization
                0x0000000000052590                rsxTextureAnisoSpread
                0x00000000000525a8                rsxSetZMinMaxControl
                0x00000000000525c0                rsxSetDepthBoundsTestEnable
                0x00000000000525d8                rsxSetDepthBounds
                0x00000000000525f0                rsxBindVertexArrayAttrib
                0x0000000000052608                rsxDrawVertexArray
                0x0000000000052620                rsxDrawInlineVertexArray
                0x0000000000052638                rsxDrawIndexArray
                0x0000000000052650                rsxDrawInlineIndexArray16
                0x0000000000052668                rsxDrawInlineIndexArray32
                0x0000000000052680                rsxSetRestartIndexEnable
                0x0000000000052698                rsxSetRestartIndex
                0x00000000000526b0                rsxSetScissor
                0x00000000000526c8                rsxSetAntialiasingControl
                0x00000000000526e0                rsxInlineTransfer
                0x00000000000526f8                rsxSetFragmentProgramParameter
                0x0000000000052710                rsxSetAlphaFunc
                0x0000000000052728                rsxSetAlphaTestEnable
                0x0000000000052740                rsxSetBlendFunc
                0x0000000000052758                rsxSetBlendEquation
                0x0000000000052770                rsxSetBlendColor
                0x0000000000052788                rsxSetBlendEnable
                0x00000000000527a0                rsxSetBlendOptimization
                0x00000000000527b8                rsxSetBlendEnableMrt
                0x00000000000527d0                rsxSetLogicOp
                0x00000000000527e8                rsxSetLogicOpEnable
                0x0000000000052800                rsxSetFogMode
                0x0000000000052818                rsxSetFogParams
                0x0000000000052830                rsxSetTransformBranchBits
                0x0000000000052848                rsxSetPointSpriteControl
                0x0000000000052860                rsxSetPointSize
                0x0000000000052878                rsxSetTransferData
                0x0000000000052890                rsxSetConvertSwizzleFormatUnsafe
                0x00000000000528a8                rsxSetTransferDataMode
                0x00000000000528c0                rsxSetTransferDataOffset
                0x00000000000528d8                rsxSetTransferDataFormat
                0x00000000000528f0                rsxSetTransferImage
                0x0000000000052908                rsxSetTransferScaleMode
                0x0000000000052920                rsxSetTransferScaleSurface
                0x0000000000052938                rsxSetTransferScaleSwizzle
                0x0000000000052950                rsxSetConvertSwizzleFormat
                0x0000000000052968                rsxSetTimeStamp
                0x0000000000052980                rsxSetWaitForIdle
 .opd           0x0000000000052998       0x60 /usr/local/ps3dev/ppu/lib/librsx.a(mm.o)
                0x0000000000052998                rsxHeapInit
                0x00000000000529b0                rsxMemalign
                0x00000000000529c8                rsxMalloc
                0x00000000000529e0                rsxFree
 .opd           0x00000000000529f8       0xa8 /usr/local/ps3dev/ppu/lib/librsx.a(vertex_program.o)
                0x00000000000529f8                rsxVertexProgramGetUCode
                0x0000000000052a10                rsxVertexProgramGetNumConst
                0x0000000000052a28                rsxVertexProgramGetNumAttrib
                0x0000000000052a40                rsxVertexProgramGetConsts
                0x0000000000052a58                rsxVertexProgramGetConst
                0x0000000000052a70                rsxVertexProgramGetAttribs
                0x0000000000052a88                rsxVertexProgramGetAttrib
 .opd           0x0000000000052aa0       0xc0 /usr/local/ps3dev/ppu/lib/librsx.a(fragment_program.o)
                0x0000000000052aa0                rsxFragmentProgramGetUCode
                0x0000000000052ab8                rsxFragmentProgramGetNumConst
                0x0000000000052ad0                rsxFragmentProgramGetConsts
                0x0000000000052ae8                rsxFragmentProgramGetConst
                0x0000000000052b00                rsxFragmentProgramGetNumAttrib
                0x0000000000052b18                rsxFragmentProgramGetAttribs
                0x0000000000052b30                rsxFragmentProgramGetAttrib
                0x0000000000052b48                rsxFragmentProgramGetConstOffsetTable
 .opd           0x0000000000052b60       0x60 /usr/local/ps3dev/ppu/lib/librsx.a(rsx_internal.o)
                0x0000000000052b60                __rsxGetAttrs
                0x0000000000052b78                __rsxGetAttr
                0x0000000000052b90                __rsxGetConsts
                0x0000000000052ba8                __rsxGetConstIndex
 .opd           0x0000000000052bc0      0x7b0 /usr/local/ps3dev/ppu/lib/libsysutil.a(sprx.o)
                0x0000000000052bc0                videoGetResolution
                0x0000000000052bd8                videoConfigure
                0x0000000000052bf0                videoGetState
                0x0000000000052c08                videoGetDeviceInfo
                0x0000000000052c20                videoGetConfiguration
                0x0000000000052c38                videoGetResolutionAvailability
                0x0000000000052c50                videoDebugSetMonitorType
                0x0000000000052c68                videoRegisterCallbackEx
                0x0000000000052c80                videoUnregisterCallback
                0x0000000000052c98                videoGetNumberOfDevice
                0x0000000000052cb0                videoGetConvertCursorColorInfo
                0x0000000000052cc8                msgDialogClose
                0x0000000000052ce0                msgDialogOpenErrorCodeEx
                0x0000000000052cf8                msgDialogOpenEx
                0x0000000000052d10                msgDialogProgressBarInc
                0x0000000000052d28                msgDialogAbort
                0x0000000000052d40                msgDialogOpen2Ex
                0x0000000000052d58                msgDialogProgressBarReset
                0x0000000000052d70                msgDialogProgressBarSetMsg
                0x0000000000052d88                oskGetInputText
                0x0000000000052da0                oskSetInitialInputDevice
                0x0000000000052db8                oskGetSize
                0x0000000000052dd0                oskUnloadAsync
                0x0000000000052de8                oskDisableDimmer
                0x0000000000052e00                oskSetKeyLayoutOption
                0x0000000000052e18                oskAbort
                0x0000000000052e30                oskSetDeviceMask
                0x0000000000052e48                oskSetSeparateWindowOption
                0x0000000000052e60                oskAddSupportLanguage
                0x0000000000052e78                oskLoadAsync
                0x0000000000052e90                oskSetInitialKeyLayout
                0x0000000000052ea8                oskSetLayoutMode
                0x0000000000052ec0                sysUtilRegisterCallbackEx
                0x0000000000052ed8                sysUtilCheckCallback
                0x0000000000052ef0                sysUtilUnregisterCallback
                0x0000000000052f08                sysUtilGetSystemParamInt
                0x0000000000052f20                sysUtilGetSystemParamString
                0x0000000000052f38                sysSaveListLoad2Ex
                0x0000000000052f50                sysSaveListSave2Ex
                0x0000000000052f68                sysSaveListAutoLoadEx
                0x0000000000052f80                sysSaveListAutoSaveEx
                0x0000000000052f98                sysSaveFixedLoad2Ex
                0x0000000000052fb0                sysSaveFixedSave2Ex
                0x0000000000052fc8                sysSaveAutoLoad2Ex
                0x0000000000052fe0                sysSaveAutoSave2Ex
                0x0000000000052ff8                sysSaveDelete2
                0x0000000000053010                sysGameDataCheck
                0x0000000000053028                sysGameBootCheck
                0x0000000000053040                sysGamePatchCheck
                0x0000000000053058                sysGameCreateGameData
                0x0000000000053070                sysGameGetParamInt
                0x0000000000053088                sysGameGetParamString
                0x00000000000530a0                sysGameGetSizeKB
                0x00000000000530b8                sysGameSetParamString
                0x00000000000530d0                sysGameGetDiscContentInfoUpdatePath
                0x00000000000530e8                sysGameContentPermit
                0x0000000000053100                sysGameContentErrorDialog
                0x0000000000053118                sysGameThemeInstall
                0x0000000000053130                sysGameThemeInstallFromBufferEx
                0x0000000000053148                sysGameGetLocalWebContentPath
                0x0000000000053160                sysGameDeleteGameData
                0x0000000000053178                sysGameRegisterDiscChangeCallbackEx
                0x0000000000053190                sysGameUnregisterDiscChangeCallback
                0x00000000000531a8                sysDiscRegisterDiscChangeCallbackEx
                0x00000000000531c0                sysDiscUnregisterDiscChangeCallback
                0x00000000000531d8                sysTrophyInit
                0x00000000000531f0                sysTrophyAbortHandle
                0x0000000000053208                sysTrophyCreateContext
                0x0000000000053220                sysTrophyCreateHandle
                0x0000000000053238                sysTrophyDestroyContext
                0x0000000000053250                sysTrophyDestroyHandle
                0x0000000000053268                sysTrophyGetGameIcon
                0x0000000000053280                sysTrophyGetGameInfo
                0x0000000000053298                sysTrophyGetGameProgress
                0x00000000000532b0                sysTrophyGetRequiredDiskSpace
                0x00000000000532c8                sysTrophyGetTrophyIcon
                0x00000000000532e0                sysTrophyGetTrophyInfo
                0x00000000000532f8                sysTrophyGetTrophyUnlockState
                0x0000000000053310                sysTrophyRegisterContextEx
                0x0000000000053328                sysTrophySetSoundLevel
                0x0000000000053340                sysTrophyTerm
                0x0000000000053358                sysTrophyUnlockTrophy
 .opd           0x0000000000053370      0x468 /usr/local/ps3dev/ppu/lib/libio.a(sprx.o)
                0x0000000000053370                sys_config_start
                0x0000000000053388                sys_config_stop
                0x00000000000533a0                sys_config_add_service_listener
                0x00000000000533b8                sys_config_remove_service_listener
                0x00000000000533d0                sys_config_register_service
                0x00000000000533e8                sys_config_unregister_service
                0x0000000000053400                ioPadInit
                0x0000000000053418                ioPadEnd
                0x0000000000053430                ioPadClearBuf
                0x0000000000053448                ioPadInfoPressMode
                0x0000000000053460                ioPadLddRegisterController
                0x0000000000053478                ioPadGetInfo
                0x0000000000053490                ioPadGetRawData
                0x00000000000534a8                ioPadGetDataExtra
                0x00000000000534c0                ioPadInfoSensorMode
                0x00000000000534d8                ioPadGetData
                0x00000000000534f0                ioPadLddGetPortNo
                0x0000000000053508                ioPadLddDataInsert
                0x0000000000053520                ioPadSetSensorMode
                0x0000000000053538                ioPadGetCapabilityInfo
                0x0000000000053550                ioPadLddUnregisterController
                0x0000000000053568                ioPadSetActDirect
                0x0000000000053580                ioPadSetPressMode
                0x0000000000053598                ioPadPeriphGetInfo
                0x00000000000535b0                ioPadSetPortSetting
                0x00000000000535c8                ioPadPeriphGetData
                0x00000000000535e0                ioPadGetInfo2
                0x00000000000535f8                ioMouseInit
                0x0000000000053610                ioMouseEnd
                0x0000000000053628                ioMouseClearBuf
                0x0000000000053640                ioMouseGetInfo
                0x0000000000053658                ioMouseGetTabletDataList
                0x0000000000053670                ioMouseSetTabletMode
                0x0000000000053688                ioMouseGetData
                0x00000000000536a0                ioMouseInfoTabletMode
                0x00000000000536b8                ioMouseGetRawData
                0x00000000000536d0                ioMouseGetDataList
                0x00000000000536e8                ioKbInit
                0x0000000000053700                ioKbEnd
                0x0000000000053718                ioKbRead
                0x0000000000053730                ioKbSetReadMode
                0x0000000000053748                ioKbSetCodeType
                0x0000000000053760                ioKbCnvRawCode
                0x0000000000053778                ioKbSetLEDStatus
                0x0000000000053790                ioKbGetInfo
                0x00000000000537a8                ioKbGetConfiguration
                0x00000000000537c0                ioKbClearBuf
 .opd           0x00000000000537d8       0x48 /usr/local/ps3dev/ppu/lib/librt.a(sbrk.o)
                0x0000000000053808                __librt_sbrk_r
 .opd           0x0000000000053820       0x18 /usr/local/ps3dev/ppu/lib/librt.a(exit.o)
                0x0000000000053820                __librt_exit
 .opd           0x0000000000053838       0x18 /usr/local/ps3dev/ppu/lib/librt.a(close.o)
                0x0000000000053838                __librt_close_r
 .opd           0x0000000000053850       0x30 /usr/local/ps3dev/ppu/lib/librt.a(lseek.o)
                0x0000000000053850                __librt_lseek_r
                0x0000000000053868                __librt_lseek64_r
 .opd           0x0000000000053880       0x18 /usr/local/ps3dev/ppu/lib/librt.a(read.o)
                0x0000000000053880                __librt_read_r
 .opd           0x0000000000053898       0x18 /usr/local/ps3dev/ppu/lib/librt.a(open.o)
                0x0000000000053898                __librt_open_r
 .opd           0x00000000000538b0       0x30 /usr/local/ps3dev/ppu/lib/librt.a(sleep.o)
                0x00000000000538b0                __librt_usleep_r
                0x00000000000538c8                __librt_sleep_r
 .opd           0x00000000000538e0       0x18 /usr/local/ps3dev/ppu/lib/librt.a(write.o)
                0x00000000000538e0                __librt_write_r
 .opd           0x00000000000538f8       0x60 /usr/local/ps3dev/ppu/lib/librt.a(fstat.o)
                0x00000000000538f8                __librt_fstat_r
                0x0000000000053910                __librt_fstat64_r
                0x0000000000053928                __librt_stat_r
                0x0000000000053940                __librt_stat64_r
 .opd           0x0000000000053958      0x150 /usr/local/ps3dev/ppu/lib/librt.a(socket.o)
                0x0000000000053958                accept
                0x0000000000053970                bind
                0x0000000000053988                connect
                0x00000000000539a0                listen
                0x00000000000539b8                socket
                0x00000000000539d0                send
                0x00000000000539e8                sendto
                0x0000000000053a00                recv
                0x0000000000053a18                recvfrom
                0x0000000000053a30                shutdown
                0x0000000000053a48                inet_aton
                0x0000000000053a60                inet_pton
                0x0000000000053a78                select
                0x0000000000053a90                closesocket
 .opd           0x0000000000053aa8       0x78 /usr/local/ps3dev/ppu/lib/librt.a(lock.o)
                0x0000000000053aa8                __librt_sys_lwmutex_create_r
                0x0000000000053ac0                __librt_sys_lwmutex_destroy_r
                0x0000000000053ad8                __librt_sys_lwmutex_lock_r
                0x0000000000053af0                __librt_sys_lwmutex_trylock_r
                0x0000000000053b08                __librt_sys_lwmutex_unlock_r
 .opd           0x0000000000053b20       0xc0 /usr/local/ps3dev/ppu/lib/librt.a(dirent.o)
                0x0000000000053b38                __librt_opendir_r
                0x0000000000053b50                __librt_readdir_r
                0x0000000000053b68                __librt_readdir_r_r
                0x0000000000053b80                __librt_closedir_r
                0x0000000000053b98                __librt_telldir_r
                0x0000000000053bb0                __librt_rewinddir_r
                0x0000000000053bc8                __librt_seekdir_r
 .opd           0x0000000000053be0       0x18 /usr/local/ps3dev/ppu/lib/librt.a(mkdir.o)
                0x0000000000053be0                __librt_mkdir_r
 .opd           0x0000000000053bf8       0x18 /usr/local/ps3dev/ppu/lib/librt.a(times.o)
                0x0000000000053bf8                __librt_times_r
 .opd           0x0000000000053c10       0x18 /usr/local/ps3dev/ppu/lib/librt.a(umask.o)
                0x0000000000053c10                __librt_umask_r
 .opd           0x0000000000053c28       0x48 /usr/local/ps3dev/ppu/lib/librt.a(lv2errno.o)
                0x0000000000053c28                lv2error
                0x0000000000053c40                lv2errno
                0x0000000000053c58                lv2errno_r
 .opd           0x0000000000053c70       0x78 /usr/local/ps3dev/ppu/lib/librt.a(heap.o)
                0x0000000000053c88                heapInit
                0x0000000000053ca0                heapAllocateAligned
                0x0000000000053cb8                heapAllocate
                0x0000000000053cd0                heapFree
 .opd           0x0000000000053ce8       0x18 /usr/local/ps3dev/ppu/lib/librt.a(chmod.o)
                0x0000000000053ce8                __librt_chmod_r
 .opd           0x0000000000053d00       0x18 /usr/local/ps3dev/ppu/lib/librt.a(rename.o)
                0x0000000000053d00                __librt_rename_r
 .opd           0x0000000000053d18       0x18 /usr/local/ps3dev/ppu/lib/librt.a(rmdir.o)
                0x0000000000053d18                __librt_rmdir_r
 .opd           0x0000000000053d30       0x18 /usr/local/ps3dev/ppu/lib/librt.a(isatty.o)
                0x0000000000053d30                __librt_isatty_r
 .opd           0x0000000000053d48       0x18 /usr/local/ps3dev/ppu/lib/librt.a(gettod.o)
                0x0000000000053d48                __librt_gettod_r
 .opd           0x0000000000053d60       0x18 /usr/local/ps3dev/ppu/lib/librt.a(settod.o)
                0x0000000000053d60                __librt_settod_r
 .opd           0x0000000000053d78       0x18 /usr/local/ps3dev/ppu/lib/librt.a(unlink.o)
                0x0000000000053d78                __librt_unlink_r
 .opd           0x0000000000053d90       0x18 /usr/local/ps3dev/ppu/lib/librt.a(link.o)
                0x0000000000053d90                __librt_link_r
 .opd           0x0000000000053da8       0x30 /usr/local/ps3dev/ppu/lib/librt.a(truncate.o)
                0x0000000000053da8                __librt_truncate_r
                0x0000000000053dc0                __librt_ftruncate_r
 .opd           0x0000000000053dd8       0x18 /usr/local/ps3dev/ppu/lib/librt.a(fsync.o)
                0x0000000000053dd8                __librt_fsync_r
 .opd           0x0000000000053df0       0x18 /usr/local/ps3dev/ppu/lib/librt.a(utime.o)
                0x0000000000053df0                __librt_utime_r
 .opd           0x0000000000053e08       0x90 /usr/local/ps3dev/ppu/lib/librt.a(globfile.o)
                0x0000000000053e50                __full_path
                0x0000000000053e68                __librt_chdir_r
                0x0000000000053e80                __librt_getcwd_r
 .opd           0x0000000000053e98      0xb28 /usr/local/ps3dev/ppu/lib/liblv2.a(sprx.o)
                0x0000000000053e98                sysGetSystemTime
                0x0000000000053eb0                sysGetSystemSwVersion
                0x0000000000053ec8                sysGetTemperature
                0x0000000000053ee0                sysGetRandomNumber
                0x0000000000053ef8                sysGetRtcStatus
                0x0000000000053f10                sysBoardStorageRead
                0x0000000000053f28                sysBoardStorageWrite
                0x0000000000053f40                sysProcessIsStack
                0x0000000000053f58                sysProcessExit
                0x0000000000053f70                sysProcessExitspawn
                0x0000000000053f88                sysProcessExitSpawn2Ex
                0x0000000000053fa0                sysProcessExitSpawnWithLevel
                0x0000000000053fb8                sysProcessAtExitSpawn
                0x0000000000053fd0                sysProcess_At_ExitSpawn
                0x0000000000053fe8                sysPrxRegisterLibrary
                0x0000000000054000                sysPrxUnregisterLibrary
                0x0000000000054018                sysPrxStartModule
                0x0000000000054030                sysPrxStopModule
                0x0000000000054048                sysPrxLoadModule
                0x0000000000054060                sysPrxLoadModuleByFd
                0x0000000000054078                sysPrxLoadModuleList
                0x0000000000054090                sysPrxLoadModuleListOnMemcontainer
                0x00000000000540a8                sysPrxLoadModuleOnMemcontainer
                0x00000000000540c0                sysPrxLoadModuleOnMemcontainerByFd
                0x00000000000540d8                sysPrxGetModuleInfo
                0x00000000000540f0                sysPrxGetModuleList
                0x0000000000054108                sysPrxGetModuleId
                0x0000000000054120                sysPrxGetModuleIdByAddress
                0x0000000000054138                sysPrxGetModuleIdByName
                0x0000000000054150                sysPrxUnloadModule
                0x0000000000054168                sysPrxExitSpawnWithLevel
                0x0000000000054180                sysThreadCreateEx
                0x0000000000054198                sysThreadExit
                0x00000000000541b0                sysThreadGetId
                0x00000000000541c8                sysThreadOnce
                0x00000000000541e0                sysThreadInitialzeTLS
                0x00000000000541f8                sysThreadRegisterAtexit
                0x0000000000054210                sysThreadUnregisterAtexit
                0x0000000000054228                sysInterruptThreadDisestablish
                0x0000000000054240                sysLwMutexCreate
                0x0000000000054258                sysLwMutexDestroy
                0x0000000000054270                sysLwMutexLock
                0x0000000000054288                sysLwMutexTryLock
                0x00000000000542a0                sysLwMutexUnlock
                0x00000000000542b8                sysLwCondCreate
                0x00000000000542d0                sysLwCondWait
                0x00000000000542e8                sysLwCondSignal
                0x0000000000054300                sysLwCondSignalTo
                0x0000000000054318                sysLwCondSignalAll
                0x0000000000054330                sysLwCondDestroy
                0x0000000000054348                sysSpinlockInitialize
                0x0000000000054360                sysSpinlockLock
                0x0000000000054378                sysSpinlockTryLock
                0x0000000000054390                sysSpinlockUnlock
                0x00000000000543a8                sysWatchdogClear
                0x00000000000543c0                sysWatchdogStart
                0x00000000000543d8                sysWatchdogStop
                0x00000000000543f0                sysMalloc
                0x0000000000054408                sysMemalign
                0x0000000000054420                sysMemchr
                0x0000000000054438                sysMemcmp
                0x0000000000054450                sysMemcpy
                0x0000000000054468                sysMemmove
                0x0000000000054480                sysMemset
                0x0000000000054498                sysFree
                0x00000000000544b0                sysHeapAllocHeapMemory
                0x00000000000544c8                sysHeapCreateHeap
                0x00000000000544e0                sysHeapDeleteHeap
                0x00000000000544f8                sysHeapFree
                0x0000000000054510                sysHeapGetMallInfo
                0x0000000000054528                sysHeapGetTotalFreeSize
                0x0000000000054540                sysHeapMalloc
                0x0000000000054558                sysHeapMemalign
                0x0000000000054570                sysHeapStats
                0x0000000000054588                sysQsort
                0x00000000000545a0                sysMempoolCreate
                0x00000000000545b8                sysMempoolDestroy
                0x00000000000545d0                sysMempoolGetCount
                0x00000000000545e8                sysMempoolAllocateBlock
                0x0000000000054600                sysMempoolTryAllocateBlock
                0x0000000000054618                sysMempoolFreeBlock
                0x0000000000054630                sysMMapperFreeMemory
                0x0000000000054648                sysMMapperMapMemory
                0x0000000000054660                sysMMapperUnmapMemory
                0x0000000000054678                sysMMapperAllocateMemory
                0x0000000000054690                sysMMapperAllocateMemoryFromContainer
                0x00000000000546a8                sysStrlen
                0x00000000000546c0                sysStrcpy
                0x00000000000546d8                sysStrncpy
                0x00000000000546f0                sysStrcat
                0x0000000000054708                sysStrncat
                0x0000000000054720                sysStrchr
                0x0000000000054738                sysStrrchr
                0x0000000000054750                sysStrcmp
                0x0000000000054768                sysStrncmp
                0x0000000000054780                sysStrncasecmp
                0x0000000000054798                sysToLower
                0x00000000000547b0                sysToUpper
                0x00000000000547c8                sysSpuElfGetSegments
                0x00000000000547e0                sysSpuElfGetInformation
                0x00000000000547f8                sysSpuRawLoad
                0x0000000000054810                sysSpuRawImageLoad
                0x0000000000054828                sysSpuImageClose
                0x0000000000054840                sysSpuImageImport
                0x0000000000054858                sysSpuPrintfAttachGroupEx
                0x0000000000054870                sysSpuPrintfAttachThreadEx
                0x0000000000054888                sysSpuPrintfDetachGroupEx
                0x00000000000548a0                sysSpuPrintfDetachThreadEx
                0x00000000000548b8                sysSpuPrintfFinalizeEx
                0x00000000000548d0                sysSpuPrintfInitializeEx
                0x00000000000548e8                sysConsoleGetc
                0x0000000000054900                sysConsolePutc
                0x0000000000054918                sysConsoleWrite
                0x0000000000054930                sysPrintf
                0x0000000000054948                sysSprintf
                0x0000000000054960                sysSnprintf
                0x0000000000054978                sysVprintf
                0x0000000000054990                sysVsprintf
                0x00000000000549a8                sysVsnprintf
 .opd           0x00000000000549c0       0x30 /usr/local/ps3dev/ppu/lib/gcc/powerpc64-ps3-elf/7.2.0/../../../../powerpc64-ps3-elf/lib/libsysbase.a(sleep.o)
                0x00000000000549c0                usleep
                0x00000000000549d8                sleep
 .opd           0x00000000000549f0       0x18 /usr/local/ps3dev/ppu/lib/gcc/powerpc64-ps3-elf/7.2.0/../../../../powerpc64-ps3-elf/lib/libc.a(lib_a-calloc.o)
                0x00000000000549f0                calloc
 .opd           0x0000000000054a08       0x18 /usr/local/ps3dev/ppu/lib/gcc/powerpc64-ps3-elf/7.2.0/../../../../powerpc64-ps3-elf/lib/libc.a(lib_a-callocr.o)
                0x0000000000054a08                _calloc_r
 .opd           0x0000000000054a20       0x18 /usr/local/ps3dev/ppu/lib/gcc/powerpc64-ps3-elf/7.2.0/../../../../powerpc64-ps3-elf/lib/libc.a(lib_a-errno.o)
                0x0000000000054a20                __errno
 .opd           0x0000000000054a38       0x18 /usr/local/ps3dev/ppu/lib/gcc/powerpc64-ps3-elf/7.2.0/../../../../powerpc64-ps3-elf/lib/libc.a(lib_a-exit.o)
                0x0000000000054a38                exit
 .opd           0x0000000000054a50       0x30 /usr/local/ps3dev/ppu/lib/gcc/powerpc64-ps3-elf/7.2.0/../../../../powerpc64-ps3-elf/lib/libc.a(lib_a-fclose.o)
                0x0000000000054a50                _fclose_r
                0x0000000000054a68                fclose
 .opd           0x0000000000054a80       0x48 /usr/local/ps3dev/ppu/lib/gcc/powerpc64-ps3-elf/7.2.0/../../../../powerpc64-ps3-elf/lib/libc.a(lib_a-fflush.o)
                0x0000000000054a80                __sflush_r
                0x0000000000054a98                _fflush_r
                0x0000000000054ab0                fflush
 .opd           0x0000000000054ac8      0x150 /usr/local/ps3dev/ppu/lib/gcc/powerpc64-ps3-elf/7.2.0/../../../../powerpc64-ps3-elf/lib/libc.a(lib_a-findfp.o)
                0x0000000000054ac8                _cleanup_r
                0x0000000000054b28                __sfmoreglue
                0x0000000000054b40                _cleanup
                0x0000000000054b58                __sinit
                0x0000000000054b70                __sfp
                0x0000000000054b88                __sfp_lock_acquire
                0x0000000000054ba0                __sfp_lock_release
                0x0000000000054bb8                __sinit_lock_acquire
                0x0000000000054bd0                __sinit_lock_release
                0x0000000000054be8                __fp_lock_all
                0x0000000000054c00                __fp_unlock_all
 .opd           0x0000000000054c18       0x30 /usr/local/ps3dev/ppu/lib/gcc/powerpc64-ps3-elf/7.2.0/../../../../powerpc64-ps3-elf/lib/libc.a(lib_a-fopen.o)
                0x0000000000054c18                _fopen_r
                0x0000000000054c30                fopen
 .opd           0x0000000000054c48       0x30 /usr/local/ps3dev/ppu/lib/gcc/powerpc64-ps3-elf/7.2.0/../../../../powerpc64-ps3-elf/lib/libc.a(lib_a-fread.o)
                0x0000000000054c48                _fread_r
                0x0000000000054c60                fread
 .opd           0x0000000000054c78       0x30 /usr/local/ps3dev/ppu/lib/gcc/powerpc64-ps3-elf/7.2.0/../../../../powerpc64-ps3-elf/lib/libc.a(lib_a-freer.o)
                0x0000000000054c78                _malloc_trim_r
                0x0000000000054c90                _free_r
 .opd           0x0000000000054ca8       0x30 /usr/local/ps3dev/ppu/lib/gcc/powerpc64-ps3-elf/7.2.0/../../../../powerpc64-ps3-elf/lib/libc.a(lib_a-fseek.o)
                0x0000000000054ca8                _fseek_r
                0x0000000000054cc0                fseek
 .opd           0x0000000000054cd8       0x30 /usr/local/ps3dev/ppu/lib/gcc/powerpc64-ps3-elf/7.2.0/../../../../powerpc64-ps3-elf/lib/libc.a(lib_a-ftell.o)
                0x0000000000054cd8                _ftell_r
                0x0000000000054cf0                ftell
 .opd           0x0000000000054d08       0x30 /usr/local/ps3dev/ppu/lib/gcc/powerpc64-ps3-elf/7.2.0/../../../../powerpc64-ps3-elf/lib/libc.a(lib_a-fwalk.o)
                0x0000000000054d08                _fwalk
                0x0000000000054d20                _fwalk_reent
 .opd           0x0000000000054d38       0x18 /usr/local/ps3dev/ppu/lib/gcc/powerpc64-ps3-elf/7.2.0/../../../../powerpc64-ps3-elf/lib/libc.a(lib_a-getreent.o)
                0x0000000000054d38                __getreent
 .opd           0x0000000000054d50       0x78 /usr/local/ps3dev/ppu/lib/gcc/powerpc64-ps3-elf/7.2.0/../../../../powerpc64-ps3-elf/lib/libc.a(lib_a-lock_recursive.o)
                0x0000000000054d50                __libc_lock_init_recursive
                0x0000000000054d68                __libc_lock_close_recursive
                0x0000000000054d80                __libc_lock_acquire_recursive
                0x0000000000054d98                __libc_lock_try_acquire_recursive
                0x0000000000054db0                __libc_lock_release_recursive
 .opd           0x0000000000054dc8       0x18 /usr/local/ps3dev/ppu/lib/gcc/powerpc64-ps3-elf/7.2.0/../../../../powerpc64-ps3-elf/lib/libc.a(lib_a-makebuf.o)
                0x0000000000054dc8                __smakebuf_r
 .opd           0x0000000000054de0       0x18 /usr/local/ps3dev/ppu/lib/gcc/powerpc64-ps3-elf/7.2.0/../../../../powerpc64-ps3-elf/lib/libc.a(lib_a-malign.o)
                0x0000000000054de0                memalign
 .opd           0x0000000000054df8       0x18 /usr/local/ps3dev/ppu/lib/gcc/powerpc64-ps3-elf/7.2.0/../../../../powerpc64-ps3-elf/lib/libc.a(lib_a-malignr.o)
                0x0000000000054df8                _memalign_r
 .opd           0x0000000000054e10       0x30 /usr/local/ps3dev/ppu/lib/gcc/powerpc64-ps3-elf/7.2.0/../../../../powerpc64-ps3-elf/lib/libc.a(lib_a-malloc.o)
                0x0000000000054e10                malloc
                0x0000000000054e28                free
 .opd           0x0000000000054e40       0x18 /usr/local/ps3dev/ppu/lib/gcc/powerpc64-ps3-elf/7.2.0/../../../../powerpc64-ps3-elf/lib/libc.a(lib_a-mallocr.o)
                0x0000000000054e40                _malloc_r
 .opd           0x0000000000054e58       0x18 /usr/local/ps3dev/ppu/lib/gcc/powerpc64-ps3-elf/7.2.0/../../../../powerpc64-ps3-elf/lib/libc.a(lib_a-memcpy.o)
                0x0000000000054e58                memcpy
 .opd           0x0000000000054e70       0x18 /usr/local/ps3dev/ppu/lib/gcc/powerpc64-ps3-elf/7.2.0/../../../../powerpc64-ps3-elf/lib/libc.a(lib_a-memset.o)
                0x0000000000054e70                memset
 .opd           0x0000000000054e88       0x30 /usr/local/ps3dev/ppu/lib/gcc/powerpc64-ps3-elf/7.2.0/../../../../powerpc64-ps3-elf/lib/libc.a(lib_a-mlock.o)
                0x0000000000054e88                __malloc_lock
                0x0000000000054ea0                __malloc_unlock
 .opd           0x0000000000054eb8       0x30 /usr/local/ps3dev/ppu/lib/gcc/powerpc64-ps3-elf/7.2.0/../../../../powerpc64-ps3-elf/lib/libc.a(lib_a-printf.o)
                0x0000000000054eb8                _printf_r
                0x0000000000054ed0                printf
 .opd           0x0000000000054ee8       0x30 /usr/local/ps3dev/ppu/lib/gcc/powerpc64-ps3-elf/7.2.0/../../../../powerpc64-ps3-elf/lib/libc.a(lib_a-puts.o)
                0x0000000000054ee8                _puts_r
                0x0000000000054f00                puts
 .opd           0x0000000000054f18       0x18 /usr/local/ps3dev/ppu/lib/gcc/powerpc64-ps3-elf/7.2.0/../../../../powerpc64-ps3-elf/lib/libc.a(lib_a-realloc.o)
                0x0000000000054f18                realloc
 .opd           0x0000000000054f30       0x18 /usr/local/ps3dev/ppu/lib/gcc/powerpc64-ps3-elf/7.2.0/../../../../powerpc64-ps3-elf/lib/libc.a(lib_a-reallocr.o)
                0x0000000000054f30                _realloc_r
 .opd           0x0000000000054f48       0x30 /usr/local/ps3dev/ppu/lib/gcc/powerpc64-ps3-elf/7.2.0/../../../../powerpc64-ps3-elf/lib/libc.a(lib_a-refill.o)
                0x0000000000054f60                __srefill_r
 .opd           0x0000000000054f78       0x30 /usr/local/ps3dev/ppu/lib/gcc/powerpc64-ps3-elf/7.2.0/../../../../powerpc64-ps3-elf/lib/libc.a(lib_a-rewind.o)
                0x0000000000054f78                _rewind_r
                0x0000000000054f90                rewind
 .opd           0x0000000000054fa8       0x30 /usr/local/ps3dev/ppu/lib/gcc/powerpc64-ps3-elf/7.2.0/../../../../powerpc64-ps3-elf/lib/libc.a(lib_a-sscanf.o)
                0x0000000000054fa8                sscanf
                0x0000000000054fc0                _sscanf_r
 .opd           0x0000000000054fd8       0x78 /usr/local/ps3dev/ppu/lib/gcc/powerpc64-ps3-elf/7.2.0/../../../../powerpc64-ps3-elf/lib/libc.a(lib_a-stdio.o)
                0x0000000000054fd8                __sread
                0x0000000000054ff0                __seofread
                0x0000000000055008                __swrite
                0x0000000000055020                __sseek
                0x0000000000055038                __sclose
 .opd           0x0000000000055050       0x18 /usr/local/ps3dev/ppu/lib/gcc/powerpc64-ps3-elf/7.2.0/../../../../powerpc64-ps3-elf/lib/libc.a(lib_a-strcasecmp.o)
                0x0000000000055050                strcasecmp
 .opd           0x0000000000055068       0x18 /usr/local/ps3dev/ppu/lib/gcc/powerpc64-ps3-elf/7.2.0/../../../../powerpc64-ps3-elf/lib/libc.a(lib_a-strchr.o)
                0x0000000000055068                strchr
 .opd           0x0000000000055080       0x18 /usr/local/ps3dev/ppu/lib/gcc/powerpc64-ps3-elf/7.2.0/../../../../powerpc64-ps3-elf/lib/libc.a(lib_a-strcpy.o)
                0x0000000000055080                strcpy
 .opd           0x0000000000055098       0x18 /usr/local/ps3dev/ppu/lib/gcc/powerpc64-ps3-elf/7.2.0/../../../../powerpc64-ps3-elf/lib/libc.a(lib_a-strdup.o)
                0x0000000000055098                strdup
 .opd           0x00000000000550b0       0x18 /usr/local/ps3dev/ppu/lib/gcc/powerpc64-ps3-elf/7.2.0/../../../../powerpc64-ps3-elf/lib/libc.a(lib_a-strdup_r.o)
                0x00000000000550b0                _strdup_r
 .opd           0x00000000000550c8       0x18 /usr/local/ps3dev/ppu/lib/gcc/powerpc64-ps3-elf/7.2.0/../../../../powerpc64-ps3-elf/lib/libc.a(lib_a-strlen.o)
                0x00000000000550c8                strlen
 .opd           0x00000000000550e0       0x18 /usr/local/ps3dev/ppu/lib/gcc/powerpc64-ps3-elf/7.2.0/../../../../powerpc64-ps3-elf/lib/libc.a(lib_a-strncat.o)
                0x00000000000550e0                strncat
 .opd           0x00000000000550f8       0x18 /usr/local/ps3dev/ppu/lib/gcc/powerpc64-ps3-elf/7.2.0/../../../../powerpc64-ps3-elf/lib/libc.a(lib_a-strncpy.o)
                0x00000000000550f8                strncpy
 .opd           0x0000000000055110       0x18 /usr/local/ps3dev/ppu/lib/gcc/powerpc64-ps3-elf/7.2.0/../../../../powerpc64-ps3-elf/lib/libc.a(lib_a-svfscanf.o)
                0x0000000000055110                __ssvfscanf_r
 .opd           0x0000000000055128       0x18 /usr/local/ps3dev/ppu/lib/gcc/powerpc64-ps3-elf/7.2.0/../../../../powerpc64-ps3-elf/lib/libc.a(lib_a-time.o)
                0x0000000000055128                time
 .opd           0x0000000000055140       0x30 /usr/local/ps3dev/ppu/lib/gcc/powerpc64-ps3-elf/7.2.0/../../../../powerpc64-ps3-elf/lib/libc.a(lib_a-vfprintf.o)
                0x0000000000055140                _vfprintf_r
                0x0000000000055158                vfprintf
 .opd           0x0000000000055170       0x18 /usr/local/ps3dev/ppu/lib/gcc/powerpc64-ps3-elf/7.2.0/../../../../powerpc64-ps3-elf/lib/libc.a(lib_a-wsetup.o)
                0x0000000000055170                __swsetup_r
 .opd           0x0000000000055188       0x18 /usr/local/ps3dev/ppu/lib/gcc/powerpc64-ps3-elf/7.2.0/../../../../powerpc64-ps3-elf/lib/libc.a(lib_a-__call_atexit.o)
                0x0000000000055188                __call_exitprocs
 .opd           0x00000000000551a0       0x30 /usr/local/ps3dev/ppu/lib/gcc/powerpc64-ps3-elf/7.2.0/../../../../powerpc64-ps3-elf/lib/libc.a(lib_a-dtoa.o)
                0x00000000000551b8                _dtoa_r
 .opd           0x00000000000551d0       0x18 /usr/local/ps3dev/ppu/lib/gcc/powerpc64-ps3-elf/7.2.0/../../../../powerpc64-ps3-elf/lib/libc.a(lib_a-flags.o)
                0x00000000000551d0                __sflags
 .opd           0x00000000000551e8       0x18 /usr/local/ps3dev/ppu/lib/gcc/powerpc64-ps3-elf/7.2.0/../../../../powerpc64-ps3-elf/lib/libc.a(lib_a-fvwrite.o)
                0x00000000000551e8                __sfvwrite_r
 .opd           0x0000000000055200       0x18 /usr/local/ps3dev/ppu/lib/gcc/powerpc64-ps3-elf/7.2.0/../../../../powerpc64-ps3-elf/lib/libc.a(lib_a-iswspace.o)
                0x0000000000055200                iswspace
 .opd           0x0000000000055218       0xc0 /usr/local/ps3dev/ppu/lib/gcc/powerpc64-ps3-elf/7.2.0/../../../../powerpc64-ps3-elf/lib/libc.a(lib_a-locale.o)
                0x0000000000055218                _setlocale_r
                0x0000000000055230                __locale_charset
                0x0000000000055248                __locale_mb_cur_max
                0x0000000000055260                __locale_msgcharset
                0x0000000000055278                __locale_cjk_lang
                0x0000000000055290                _localeconv_r
                0x00000000000552a8                setlocale
                0x00000000000552c0                localeconv
 .opd           0x00000000000552d8       0x30 /usr/local/ps3dev/ppu/lib/gcc/powerpc64-ps3-elf/7.2.0/../../../../powerpc64-ps3-elf/lib/libc.a(lib_a-lock_internal.o)
                0x00000000000552f0                __libc_auto_lock_allocate
 .opd           0x0000000000055308       0x30 /usr/local/ps3dev/ppu/lib/gcc/powerpc64-ps3-elf/7.2.0/../../../../powerpc64-ps3-elf/lib/libc.a(lib_a-mbrtowc.o)
                0x0000000000055308                _mbrtowc_r
                0x0000000000055320                mbrtowc
 .opd           0x0000000000055338       0x30 /usr/local/ps3dev/ppu/lib/gcc/powerpc64-ps3-elf/7.2.0/../../../../powerpc64-ps3-elf/lib/libc.a(lib_a-mbtowc_r.o)
                0x0000000000055338                __ascii_mbtowc
                0x0000000000055350                _mbtowc_r
 .opd           0x0000000000055368       0x18 /usr/local/ps3dev/ppu/lib/gcc/powerpc64-ps3-elf/7.2.0/../../../../powerpc64-ps3-elf/lib/libc.a(lib_a-memchr.o)
                0x0000000000055368                memchr
 .opd           0x0000000000055380       0x18 /usr/local/ps3dev/ppu/lib/gcc/powerpc64-ps3-elf/7.2.0/../../../../powerpc64-ps3-elf/lib/libc.a(lib_a-memmove.o)
                0x0000000000055380                memmove
 .opd           0x0000000000055398      0x1c8 /usr/local/ps3dev/ppu/lib/gcc/powerpc64-ps3-elf/7.2.0/../../../../powerpc64-ps3-elf/lib/libc.a(lib_a-mprec.o)
                0x0000000000055398                _Balloc
                0x00000000000553b0                _Bfree
                0x00000000000553c8                __multadd
                0x00000000000553e0                __s2b
                0x00000000000553f8                __hi0bits
                0x0000000000055410                __lo0bits
                0x0000000000055428                __i2b
                0x0000000000055440                __multiply
                0x0000000000055458                __pow5mult
                0x0000000000055470                __lshift
                0x0000000000055488                __mcmp
                0x00000000000554a0                __mdiff
                0x00000000000554b8                __ulp
                0x00000000000554d0                __b2d
                0x00000000000554e8                __d2b
                0x0000000000055500                __ratio
                0x0000000000055518                _mprec_log10
                0x0000000000055530                __copybits
                0x0000000000055548                __any_on
 .opd           0x0000000000055560       0x18 /usr/local/ps3dev/ppu/lib/gcc/powerpc64-ps3-elf/7.2.0/../../../../powerpc64-ps3-elf/lib/libc.a(lib_a-sccl.o)
                0x0000000000055560                __sccl
 .opd           0x0000000000055578       0x18 /usr/local/ps3dev/ppu/lib/gcc/powerpc64-ps3-elf/7.2.0/../../../../powerpc64-ps3-elf/lib/libc.a(lib_a-sf_nan.o)
                0x0000000000055578                nanf
 .opd           0x0000000000055590       0x18 /usr/local/ps3dev/ppu/lib/gcc/powerpc64-ps3-elf/7.2.0/../../../../powerpc64-ps3-elf/lib/libc.a(lib_a-s_fpclassify.o)
                0x0000000000055590                __fpclassifyd
 .opd           0x00000000000555a8       0x30 /usr/local/ps3dev/ppu/lib/gcc/powerpc64-ps3-elf/7.2.0/../../../../powerpc64-ps3-elf/lib/libc.a(lib_a-sprintf.o)
                0x00000000000555a8                _sprintf_r
                0x00000000000555c0                sprintf
 .opd           0x00000000000555d8       0x18 /usr/local/ps3dev/ppu/lib/gcc/powerpc64-ps3-elf/7.2.0/../../../../powerpc64-ps3-elf/lib/libc.a(lib_a-strcmp.o)
                0x00000000000555d8                strcmp
 .opd           0x00000000000555f0       0x48 /usr/local/ps3dev/ppu/lib/gcc/powerpc64-ps3-elf/7.2.0/../../../../powerpc64-ps3-elf/lib/libc.a(lib_a-strtod.o)
                0x00000000000555f0                _strtod_r
                0x0000000000055608                strtod
                0x0000000000055620                strtof
 .opd           0x0000000000055638       0x18 /usr/local/ps3dev/ppu/lib/gcc/powerpc64-ps3-elf/7.2.0/../../../../powerpc64-ps3-elf/lib/libc.a(lib_a-strtoll_r.o)
                0x0000000000055638                _strtoll_r
 .opd           0x0000000000055650       0x30 /usr/local/ps3dev/ppu/lib/gcc/powerpc64-ps3-elf/7.2.0/../../../../powerpc64-ps3-elf/lib/libc.a(lib_a-strtol.o)
                0x0000000000055650                _strtol_r
                0x0000000000055668                strtol
 .opd           0x0000000000055680       0x18 /usr/local/ps3dev/ppu/lib/gcc/powerpc64-ps3-elf/7.2.0/../../../../powerpc64-ps3-elf/lib/libc.a(lib_a-strtoull_r.o)
                0x0000000000055680                _strtoull_r
 .opd           0x0000000000055698       0x30 /usr/local/ps3dev/ppu/lib/gcc/powerpc64-ps3-elf/7.2.0/../../../../powerpc64-ps3-elf/lib/libc.a(lib_a-strtoul.o)
                0x0000000000055698                _strtoul_r
                0x00000000000556b0                strtoul
 .opd           0x00000000000556c8       0x60 /usr/local/ps3dev/ppu/lib/gcc/powerpc64-ps3-elf/7.2.0/../../../../powerpc64-ps3-elf/lib/libc.a(lib_a-svfiscanf.o)
                0x00000000000556c8                _sungetc_r
                0x00000000000556e0                __ssrefill_r
                0x00000000000556f8                _sfread_r
                0x0000000000055710                __ssvfiscanf_r
 .opd           0x0000000000055728       0x18 /usr/local/ps3dev/ppu/lib/gcc/powerpc64-ps3-elf/7.2.0/../../../../powerpc64-ps3-elf/lib/libc.a(lib_a-svfprintf.o)
                0x0000000000055728                _svfprintf_r
 .opd           0x0000000000055740       0x48 /usr/local/ps3dev/ppu/lib/gcc/powerpc64-ps3-elf/7.2.0/../../../../powerpc64-ps3-elf/lib/libc.a(lib_a-ungetc.o)
                0x0000000000055740                __submore
                0x0000000000055758                _ungetc_r
                0x0000000000055770                ungetc
 .opd           0x0000000000055788       0x60 /usr/local/ps3dev/ppu/lib/gcc/powerpc64-ps3-elf/7.2.0/../../../../powerpc64-ps3-elf/lib/libc.a(lib_a-vfiprintf.o)
                0x00000000000557a0                __sprint_r
                0x00000000000557b8                _vfiprintf_r
                0x00000000000557d0                vfiprintf
 .opd           0x00000000000557e8       0x18 /usr/local/ps3dev/ppu/lib/gcc/powerpc64-ps3-elf/7.2.0/../../../../powerpc64-ps3-elf/lib/libc.a(lib_a-abort.o)
                0x00000000000557e8                abort
 .opd           0x0000000000055800       0x18 /usr/local/ps3dev/ppu/lib/gcc/powerpc64-ps3-elf/7.2.0/../../../../powerpc64-ps3-elf/lib/libc.a(lib_a-__atexit.o)
                0x0000000000055800                __register_exitproc
 .opd           0x0000000000055818       0x30 /usr/local/ps3dev/ppu/lib/gcc/powerpc64-ps3-elf/7.2.0/../../../../powerpc64-ps3-elf/lib/libc.a(lib_a-fputwc.o)
                0x0000000000055818                _fputwc_r
                0x0000000000055830                fputwc
 .opd           0x0000000000055848       0x48 /usr/local/ps3dev/ppu/lib/gcc/powerpc64-ps3-elf/7.2.0/../../../../powerpc64-ps3-elf/lib/libc.a(lib_a-gdtoa-gethex.o)
                0x0000000000055860                __hexdig_init
                0x0000000000055878                __gethex
 .opd           0x0000000000055890       0x18 /usr/local/ps3dev/ppu/lib/gcc/powerpc64-ps3-elf/7.2.0/../../../../powerpc64-ps3-elf/lib/libc.a(lib_a-gdtoa-hexnan.o)
                0x0000000000055890                __hexnan
 .opd           0x00000000000558a8       0xd8 /usr/local/ps3dev/ppu/lib/gcc/powerpc64-ps3-elf/7.2.0/../../../../powerpc64-ps3-elf/lib/libc.a(lib_a-signal.o)
                0x00000000000558c0                _init_signal_r
                0x00000000000558d8                _signal_r
                0x00000000000558f0                _raise_r
                0x0000000000055908                __sigtramp_r
                0x0000000000055920                raise
                0x0000000000055938                signal
                0x0000000000055950                _init_signal
                0x0000000000055968                __sigtramp
 .opd           0x0000000000055980       0x18 /usr/local/ps3dev/ppu/lib/gcc/powerpc64-ps3-elf/7.2.0/../../../../powerpc64-ps3-elf/lib/libc.a(lib_a-strncmp.o)
                0x0000000000055980                strncmp
 .opd           0x0000000000055998       0x30 /usr/local/ps3dev/ppu/lib/gcc/powerpc64-ps3-elf/7.2.0/../../../../powerpc64-ps3-elf/lib/libc.a(lib_a-svfiprintf.o)
                0x0000000000055998                __ssprint_r
                0x00000000000559b0                _svfiprintf_r
 .opd           0x00000000000559c8       0x30 /usr/local/ps3dev/ppu/lib/gcc/powerpc64-ps3-elf/7.2.0/../../../../powerpc64-ps3-elf/lib/libc.a(lib_a-wbuf.o)
                0x00000000000559c8                __swbuf_r
                0x00000000000559e0                __swbuf
 .opd           0x00000000000559f8       0x30 /usr/local/ps3dev/ppu/lib/gcc/powerpc64-ps3-elf/7.2.0/../../../../powerpc64-ps3-elf/lib/libc.a(lib_a-wcrtomb.o)
                0x00000000000559f8                _wcrtomb_r
                0x0000000000055a10                wcrtomb
 .opd           0x0000000000055a28       0x30 /usr/local/ps3dev/ppu/lib/gcc/powerpc64-ps3-elf/7.2.0/../../../../powerpc64-ps3-elf/lib/libc.a(lib_a-wctomb_r.o)
                0x0000000000055a28                __ascii_wctomb
                0x0000000000055a40                _wctomb_r
 .opd           0x0000000000055a58       0x18 /usr/local/ps3dev/ppu/lib/gcc/powerpc64-ps3-elf/7.2.0/../../../../powerpc64-ps3-elf/lib/libsysbase.a(close.o)
                0x0000000000055a58                _close_r
 .opd           0x0000000000055a70       0x18 /usr/local/ps3dev/ppu/lib/gcc/powerpc64-ps3-elf/7.2.0/../../../../powerpc64-ps3-elf/lib/libsysbase.a(sbrk.o)
                0x0000000000055a70                _sbrk_r
 .opd           0x0000000000055a88       0x18 /usr/local/ps3dev/ppu/lib/gcc/powerpc64-ps3-elf/7.2.0/../../../../powerpc64-ps3-elf/lib/libsysbase.a(_exit.o)
                0x0000000000055a88                _exit
 .opd           0x0000000000055aa0       0x18 /usr/local/ps3dev/ppu/lib/gcc/powerpc64-ps3-elf/7.2.0/../../../../powerpc64-ps3-elf/lib/libsysbase.a(fstat.o)
                0x0000000000055aa0                _fstat_r
 .opd           0x0000000000055ab8       0x18 /usr/local/ps3dev/ppu/lib/gcc/powerpc64-ps3-elf/7.2.0/../../../../powerpc64-ps3-elf/lib/libsysbase.a(isatty.o)
                0x0000000000055ab8                _isatty_r
 .opd           0x0000000000055ad0       0x18 /usr/local/ps3dev/ppu/lib/gcc/powerpc64-ps3-elf/7.2.0/../../../../powerpc64-ps3-elf/lib/libsysbase.a(lseek.o)
                0x0000000000055ad0                _lseek_r
 .opd           0x0000000000055ae8       0x18 /usr/local/ps3dev/ppu/lib/gcc/powerpc64-ps3-elf/7.2.0/../../../../powerpc64-ps3-elf/lib/libsysbase.a(open.o)
                0x0000000000055ae8                _open_r
 .opd           0x0000000000055b00       0x18 /usr/local/ps3dev/ppu/lib/gcc/powerpc64-ps3-elf/7.2.0/../../../../powerpc64-ps3-elf/lib/libsysbase.a(read.o)
                0x0000000000055b00                _read_r
 .opd           0x0000000000055b18       0x18 /usr/local/ps3dev/ppu/lib/gcc/powerpc64-ps3-elf/7.2.0/../../../../powerpc64-ps3-elf/lib/libsysbase.a(write.o)
                0x0000000000055b18                _write_r
 .opd           0x0000000000055b30       0x78 /usr/local/ps3dev/ppu/lib/gcc/powerpc64-ps3-elf/7.2.0/../../../../powerpc64-ps3-elf/lib/libsysbase.a(lock.o)
                0x0000000000055b30                sys_lwmutex_create
                0x0000000000055b48                sys_lwmutex_destroy
                0x0000000000055b60                sys_lwmutex_lock
                0x0000000000055b78                sys_lwmutex_trylock
                0x0000000000055b90                sys_lwmutex_unlock
 .opd           0x0000000000055ba8       0x18 /usr/local/ps3dev/ppu/lib/gcc/powerpc64-ps3-elf/7.2.0/../../../../powerpc64-ps3-elf/lib/libsysbase.a(getpid.o)
                0x0000000000055ba8                _getpid_r
 .opd           0x0000000000055bc0       0x18 /usr/local/ps3dev/ppu/lib/gcc/powerpc64-ps3-elf/7.2.0/../../../../powerpc64-ps3-elf/lib/libsysbase.a(kill.o)
                0x0000000000055bc0                _kill_r
 .opd           0x0000000000055bd8       0x18 /usr/local/ps3dev/ppu/lib/gcc/powerpc64-ps3-elf/7.2.0/../../../../powerpc64-ps3-elf/lib/libsysbase.a(gettod.o)
                0x0000000000055bd8                _gettimeofday_r
 .opd           0x0000000000055bf0       0x18 /usr/local/ps3dev/ppu/lib/gcc/powerpc64-ps3-elf/7.2.0/crtend.o

.branch_lt      0x0000000000055c08        0x0
 *(.branch_lt)
 .branch_lt     0x0000000000055c08        0x0 linker stubs

.got            0x0000000000055c08      0x910
 *(.got .toc)
 .toc           0x0000000000055c08       0x60 /usr/local/ps3dev/ppu/lib/gcc/powerpc64-ps3-elf/7.2.0/crtbegin.o
 .toc           0x0000000000055c68       0x28 /usr/local/ps3dev/ppu/lib/librt.a(sbrk.o)
 .toc           0x0000000000055c90        0x8 /usr/local/ps3dev/ppu/lib/gcc/powerpc64-ps3-elf/7.2.0/crtend.o
 .toc           0x0000000000055c98      0x160 /usr/local/ps3dev/ppu/lib/gcc/powerpc64-ps3-elf/7.2.0/../../../../powerpc64-ps3-elf/lib/lv2-crt0.o
 .toc           0x0000000000055df8       0xe0 main.o
 .toc           0x0000000000055ed8       0x10 rsxutil.o
 .toc           0x0000000000055ee8       0x10 /usr/local/ps3dev/ppu/lib/librsx.a(init.o)
 .toc           0x0000000000055ef8       0x30 /usr/local/ps3dev/ppu/lib/librsx.a(commands.o)
 .toc           0x0000000000055f28       0x18 /usr/local/ps3dev/ppu/lib/librsx.a(mm.o)
 .toc           0x0000000000055f40        0x8 /usr/local/ps3dev/ppu/lib/librt.a(open.o)
 .toc           0x0000000000055f48        0x8 /usr/local/ps3dev/ppu/lib/librt.a(socket.o)
 .toc           0x0000000000055f50        0x8 /usr/local/ps3dev/ppu/lib/librt.a(mkdir.o)
 .toc           0x0000000000055f58        0x8 /usr/local/ps3dev/ppu/lib/librt.a(umask.o)
 .toc           0x0000000000055f60       0x10 /usr/local/ps3dev/ppu/lib/librt.a(globfile.o)
 .toc           0x0000000000055f70        0x8 /usr/local/ps3dev/ppu/lib/gcc/powerpc64-ps3-elf/7.2.0/../../../../powerpc64-ps3-elf/lib/libsysbase.a(sleep.o)
 .toc           0x0000000000055f78        0x8 /usr/local/ps3dev/ppu/lib/gcc/powerpc64-ps3-elf/7.2.0/../../../../powerpc64-ps3-elf/lib/libc.a(lib_a-exit.o)
 .toc           0x0000000000055f80       0x10 /usr/local/ps3dev/ppu/lib/gcc/powerpc64-ps3-elf/7.2.0/../../../../powerpc64-ps3-elf/lib/libc.a(lib_a-fflush.o)
 .toc           0x0000000000055f90       0x58 /usr/local/ps3dev/ppu/lib/gcc/powerpc64-ps3-elf/7.2.0/../../../../powerpc64-ps3-elf/lib/libc.a(lib_a-findfp.o)
 .toc           0x0000000000055fe8       0x20 /usr/local/ps3dev/ppu/lib/gcc/powerpc64-ps3-elf/7.2.0/../../../../powerpc64-ps3-elf/lib/libc.a(lib_a-fopen.o)
 .toc           0x0000000000056008       0x30 /usr/local/ps3dev/ppu/lib/gcc/powerpc64-ps3-elf/7.2.0/../../../../powerpc64-ps3-elf/lib/libc.a(lib_a-freer.o)
 .toc           0x0000000000056038        0x8 /usr/local/ps3dev/ppu/lib/gcc/powerpc64-ps3-elf/7.2.0/../../../../powerpc64-ps3-elf/lib/libc.a(lib_a-fseek.o)
 .toc           0x0000000000056040        0x8 /usr/local/ps3dev/ppu/lib/gcc/powerpc64-ps3-elf/7.2.0/../../../../powerpc64-ps3-elf/lib/libc.a(lib_a-getreent.o)
 .toc           0x0000000000056048        0x8 /usr/local/ps3dev/ppu/lib/gcc/powerpc64-ps3-elf/7.2.0/../../../../powerpc64-ps3-elf/lib/libc.a(lib_a-lock_recursive.o)
 .toc           0x0000000000056050       0x10 /usr/local/ps3dev/ppu/lib/gcc/powerpc64-ps3-elf/7.2.0/../../../../powerpc64-ps3-elf/lib/libc.a(lib_a-makebuf.o)
 .toc           0x0000000000056060       0x30 /usr/local/ps3dev/ppu/lib/gcc/powerpc64-ps3-elf/7.2.0/../../../../powerpc64-ps3-elf/lib/libc.a(lib_a-mallocr.o)
 .toc           0x0000000000056090        0x8 /usr/local/ps3dev/ppu/lib/gcc/powerpc64-ps3-elf/7.2.0/../../../../powerpc64-ps3-elf/lib/libc.a(lib_a-mlock.o)
 .toc           0x0000000000056098        0x8 /usr/local/ps3dev/ppu/lib/gcc/powerpc64-ps3-elf/7.2.0/../../../../powerpc64-ps3-elf/lib/libc.a(lib_a-puts.o)
 .toc           0x00000000000560a0        0x8 /usr/local/ps3dev/ppu/lib/gcc/powerpc64-ps3-elf/7.2.0/../../../../powerpc64-ps3-elf/lib/libc.a(lib_a-reallocr.o)
 .toc           0x00000000000560a8       0x10 /usr/local/ps3dev/ppu/lib/gcc/powerpc64-ps3-elf/7.2.0/../../../../powerpc64-ps3-elf/lib/libc.a(lib_a-refill.o)
 .toc           0x00000000000560b8        0x8 /usr/local/ps3dev/ppu/lib/gcc/powerpc64-ps3-elf/7.2.0/../../../../powerpc64-ps3-elf/lib/libc.a(lib_a-sscanf.o)
 .toc           0x00000000000560c0        0x8 /usr/local/ps3dev/ppu/lib/gcc/powerpc64-ps3-elf/7.2.0/../../../../powerpc64-ps3-elf/lib/libc.a(lib_a-strcasecmp.o)
 .toc           0x00000000000560c8       0x40 /usr/local/ps3dev/ppu/lib/gcc/powerpc64-ps3-elf/7.2.0/../../../../powerpc64-ps3-elf/lib/libc.a(lib_a-svfscanf.o)
 .toc           0x0000000000056108       0x68 /usr/local/ps3dev/ppu/lib/gcc/powerpc64-ps3-elf/7.2.0/../../../../powerpc64-ps3-elf/lib/libc.a(lib_a-vfprintf.o)
 .toc           0x0000000000056170       0x18 /usr/local/ps3dev/ppu/lib/gcc/powerpc64-ps3-elf/7.2.0/../../../../powerpc64-ps3-elf/lib/libc.a(lib_a-__call_atexit.o)
 .toc           0x0000000000056188       0x80 /usr/local/ps3dev/ppu/lib/gcc/powerpc64-ps3-elf/7.2.0/../../../../powerpc64-ps3-elf/lib/libc.a(lib_a-dtoa.o)
 .toc           0x0000000000056208        0x8 /usr/local/ps3dev/ppu/lib/gcc/powerpc64-ps3-elf/7.2.0/../../../../powerpc64-ps3-elf/lib/libc.a(lib_a-iswspace.o)
 .toc           0x0000000000056210       0x38 /usr/local/ps3dev/ppu/lib/gcc/powerpc64-ps3-elf/7.2.0/../../../../powerpc64-ps3-elf/lib/libc.a(lib_a-locale.o)
 .toc           0x0000000000056248       0x10 /usr/local/ps3dev/ppu/lib/gcc/powerpc64-ps3-elf/7.2.0/../../../../powerpc64-ps3-elf/lib/libc.a(lib_a-lock_internal.o)
 .toc           0x0000000000056258       0x10 /usr/local/ps3dev/ppu/lib/gcc/powerpc64-ps3-elf/7.2.0/../../../../powerpc64-ps3-elf/lib/libc.a(lib_a-mbrtowc.o)
 .toc           0x0000000000056268        0x8 /usr/local/ps3dev/ppu/lib/gcc/powerpc64-ps3-elf/7.2.0/../../../../powerpc64-ps3-elf/lib/libc.a(lib_a-mbtowc_r.o)
 .toc           0x0000000000056270       0x20 /usr/local/ps3dev/ppu/lib/gcc/powerpc64-ps3-elf/7.2.0/../../../../powerpc64-ps3-elf/lib/libc.a(lib_a-mprec.o)
 .toc           0x0000000000056290        0x8 /usr/local/ps3dev/ppu/lib/gcc/powerpc64-ps3-elf/7.2.0/../../../../powerpc64-ps3-elf/lib/libc.a(lib_a-sf_nan.o)
 .toc           0x0000000000056298       0xa8 /usr/local/ps3dev/ppu/lib/gcc/powerpc64-ps3-elf/7.2.0/../../../../powerpc64-ps3-elf/lib/libc.a(lib_a-strtod.o)
 .toc           0x0000000000056340        0x8 /usr/local/ps3dev/ppu/lib/gcc/powerpc64-ps3-elf/7.2.0/../../../../powerpc64-ps3-elf/lib/libc.a(lib_a-strtoll_r.o)
 .toc           0x0000000000056348        0x8 /usr/local/ps3dev/ppu/lib/gcc/powerpc64-ps3-elf/7.2.0/../../../../powerpc64-ps3-elf/lib/libc.a(lib_a-strtol.o)
 .toc           0x0000000000056350        0x8 /usr/local/ps3dev/ppu/lib/gcc/powerpc64-ps3-elf/7.2.0/../../../../powerpc64-ps3-elf/lib/libc.a(lib_a-strtoull_r.o)
 .toc           0x0000000000056358        0x8 /usr/local/ps3dev/ppu/lib/gcc/powerpc64-ps3-elf/7.2.0/../../../../powerpc64-ps3-elf/lib/libc.a(lib_a-strtoul.o)
 .toc           0x0000000000056360       0x30 /usr/local/ps3dev/ppu/lib/gcc/powerpc64-ps3-elf/7.2.0/../../../../powerpc64-ps3-elf/lib/libc.a(lib_a-svfiscanf.o)
 .toc           0x0000000000056390       0x68 /usr/local/ps3dev/ppu/lib/gcc/powerpc64-ps3-elf/7.2.0/../../../../powerpc64-ps3-elf/lib/libc.a(lib_a-svfprintf.o)
 .toc           0x00000000000563f8       0x38 /usr/local/ps3dev/ppu/lib/gcc/powerpc64-ps3-elf/7.2.0/../../../../powerpc64-ps3-elf/lib/libc.a(lib_a-vfiprintf.o)
 .toc           0x0000000000056430       0x18 /usr/local/ps3dev/ppu/lib/gcc/powerpc64-ps3-elf/7.2.0/../../../../powerpc64-ps3-elf/lib/libc.a(lib_a-__atexit.o)
 .toc           0x0000000000056448       0x20 /usr/local/ps3dev/ppu/lib/gcc/powerpc64-ps3-elf/7.2.0/../../../../powerpc64-ps3-elf/lib/libc.a(lib_a-gdtoa-gethex.o)
 .toc           0x0000000000056468        0x8 /usr/local/ps3dev/ppu/lib/gcc/powerpc64-ps3-elf/7.2.0/../../../../powerpc64-ps3-elf/lib/libc.a(lib_a-gdtoa-hexnan.o)
 .toc           0x0000000000056470       0x38 /usr/local/ps3dev/ppu/lib/gcc/powerpc64-ps3-elf/7.2.0/../../../../powerpc64-ps3-elf/lib/libc.a(lib_a-svfiprintf.o)
 .toc           0x00000000000564a8        0x8 /usr/local/ps3dev/ppu/lib/gcc/powerpc64-ps3-elf/7.2.0/../../../../powerpc64-ps3-elf/lib/libc.a(lib_a-wcrtomb.o)
 .toc           0x00000000000564b0        0x8 /usr/local/ps3dev/ppu/lib/gcc/powerpc64-ps3-elf/7.2.0/../../../../powerpc64-ps3-elf/lib/libc.a(lib_a-wctomb_r.o)
 .toc           0x00000000000564b8        0x8 /usr/local/ps3dev/ppu/lib/gcc/powerpc64-ps3-elf/7.2.0/../../../../powerpc64-ps3-elf/lib/libsysbase.a(close.o)
 .toc           0x00000000000564c0        0x8 /usr/local/ps3dev/ppu/lib/gcc/powerpc64-ps3-elf/7.2.0/../../../../powerpc64-ps3-elf/lib/libsysbase.a(sbrk.o)
 .toc           0x00000000000564c8        0x8 /usr/local/ps3dev/ppu/lib/gcc/powerpc64-ps3-elf/7.2.0/../../../../powerpc64-ps3-elf/lib/libsysbase.a(_exit.o)
 .toc           0x00000000000564d0        0x8 /usr/local/ps3dev/ppu/lib/gcc/powerpc64-ps3-elf/7.2.0/../../../../powerpc64-ps3-elf/lib/libsysbase.a(fstat.o)
 .toc           0x00000000000564d8        0x8 /usr/local/ps3dev/ppu/lib/gcc/powerpc64-ps3-elf/7.2.0/../../../../powerpc64-ps3-elf/lib/libsysbase.a(isatty.o)
 .toc           0x00000000000564e0        0x8 /usr/local/ps3dev/ppu/lib/gcc/powerpc64-ps3-elf/7.2.0/../../../../powerpc64-ps3-elf/lib/libsysbase.a(lseek.o)
 .toc           0x00000000000564e8        0x8 /usr/local/ps3dev/ppu/lib/gcc/powerpc64-ps3-elf/7.2.0/../../../../powerpc64-ps3-elf/lib/libsysbase.a(open.o)
 .toc           0x00000000000564f0        0x8 /usr/local/ps3dev/ppu/lib/gcc/powerpc64-ps3-elf/7.2.0/../../../../powerpc64-ps3-elf/lib/libsysbase.a(read.o)
 .toc           0x00000000000564f8        0x8 /usr/local/ps3dev/ppu/lib/gcc/powerpc64-ps3-elf/7.2.0/../../../../powerpc64-ps3-elf/lib/libsysbase.a(write.o)
 .toc           0x0000000000056500        0x8 /usr/local/ps3dev/ppu/lib/gcc/powerpc64-ps3-elf/7.2.0/../../../../powerpc64-ps3-elf/lib/libsysbase.a(lock.o)
 .toc           0x0000000000056508        0x8 /usr/local/ps3dev/ppu/lib/gcc/powerpc64-ps3-elf/7.2.0/../../../../powerpc64-ps3-elf/lib/libsysbase.a(getpid.o)
 .toc           0x0000000000056510        0x8 /usr/local/ps3dev/ppu/lib/gcc/powerpc64-ps3-elf/7.2.0/../../../../powerpc64-ps3-elf/lib/libsysbase.a(gettod.o)

.toc.sceStub
 *(.toc.sceStub)
 *(SORT(.toc.sceStub.*))

.tdata
 *(.tdata .tdata.* .gnu.linkonce.td.*)

.tbss           0x0000000000056518      0x780
 *(.tbss .tbss.* .gnu.linkonce.tb.*)
 .tbss.t_reentp
                0x0000000000056518        0x8 /usr/local/ps3dev/ppu/lib/gcc/powerpc64-ps3-elf/7.2.0/../../../../powerpc64-ps3-elf/lib/libc.a(lib_a-getreent.o)
 .tbss.t_reent  0x0000000000056520      0x778 /usr/local/ps3dev/ppu/lib/gcc/powerpc64-ps3-elf/7.2.0/../../../../powerpc64-ps3-elf/lib/libc.a(lib_a-getreent.o)
 *(.tcommon)
                0x0000000010000000                . = ALIGN (0x10000000)

.rodata         0x0000000010000000      0x7b8
 *(.rodata .rodata.* .gnu.linkonce.r.*)
 .rodata        0x0000000010000000       0x18 /usr/local/ps3dev/ppu/lib/gcc/powerpc64-ps3-elf/7.2.0/../../../../powerpc64-ps3-elf/lib/lv2-crt0.o
                0x0000000010000000                _start
 .rodata.createQuad.cst4
                0x0000000010000018        0x4 main.o
 *fill*         0x000000001000001c        0x4 00
 .rodata.createQuad.str1.8
                0x0000000010000020       0x2c main.o
 *fill*         0x000000001000004c        0x4 00
 .rodata.createTexture.str1.8
                0x0000000010000050       0x58 main.o
 .rodata.drawFrame.cst4
                0x00000000100000a8        0x4 main.o
 *fill*         0x00000000100000ac        0x4 00
 .rodata.loadShader.str1.8
                0x00000000100000b0      0x10a main.o
 *fill*         0x00000000100001ba        0x6 00
 .rodata.load_image_to_RSX.str1.8
                0x00000000100001c0      0x14a main.o
 *fill*         0x000000001000030a        0x6 00
 .rodata.main.str1.8
                0x0000000010000310       0x20 main.o
 .rodata.inet_aton.str1.8
                0x0000000010000330        0xc /usr/local/ps3dev/ppu/lib/librt.a(socket.o)
 *fill*         0x000000001000033c        0x4 00
 .rodata.flattenDirectory.constprop.0.str1.8
                0x0000000010000340        0x2 /usr/local/ps3dev/ppu/lib/librt.a(globfile.o)
 *fill*         0x0000000010000342        0x6 00
 .rodata.__getreent.str1.8
                0x0000000010000348        0x2 /usr/local/ps3dev/ppu/lib/gcc/powerpc64-ps3-elf/7.2.0/../../../../powerpc64-ps3-elf/lib/libc.a(lib_a-getreent.o)
 *fill*         0x000000001000034a        0x6 00
 .rodata._global_impure_ptr
                0x0000000010000350        0x8 /usr/local/ps3dev/ppu/lib/gcc/powerpc64-ps3-elf/7.2.0/../../../../powerpc64-ps3-elf/lib/libc.a(lib_a-impure.o)
                0x0000000010000350                _global_impure_ptr
 .rodata.str1.8
                0x0000000000000000        0x2 /usr/local/ps3dev/ppu/lib/gcc/powerpc64-ps3-elf/7.2.0/../../../../powerpc64-ps3-elf/lib/libc.a(lib_a-impure.o)
 .rodata.__libc_lock_attributes
                0x0000000010000358       0x10 /usr/local/ps3dev/ppu/lib/gcc/powerpc64-ps3-elf/7.2.0/../../../../powerpc64-ps3-elf/lib/libc.a(lib_a-lock_recursive.o)
 .rodata._puts_r.str1.8
                0x0000000000000000        0x2 /usr/local/ps3dev/ppu/lib/gcc/powerpc64-ps3-elf/7.2.0/../../../../powerpc64-ps3-elf/lib/libc.a(lib_a-puts.o)
 .rodata.__ssvfscanf_r.str1.8
                0x0000000010000368        0x5 /usr/local/ps3dev/ppu/lib/gcc/powerpc64-ps3-elf/7.2.0/../../../../powerpc64-ps3-elf/lib/libc.a(lib_a-svfscanf.o)
 *fill*         0x000000001000036d        0x1 00
 .rodata.basefix.4915
                0x000000001000036e       0x22 /usr/local/ps3dev/ppu/lib/gcc/powerpc64-ps3-elf/7.2.0/../../../../powerpc64-ps3-elf/lib/libc.a(lib_a-svfscanf.o)
 .rodata._vfprintf_r.cst4
                0x0000000010000390        0x4 /usr/local/ps3dev/ppu/lib/gcc/powerpc64-ps3-elf/7.2.0/../../../../powerpc64-ps3-elf/lib/libc.a(lib_a-vfprintf.o)
 *fill*         0x0000000010000394        0x4 00
 .rodata._vfprintf_r.str1.8
                0x0000000010000398       0x5a /usr/local/ps3dev/ppu/lib/gcc/powerpc64-ps3-elf/7.2.0/../../../../powerpc64-ps3-elf/lib/libc.a(lib_a-vfprintf.o)
 *fill*         0x00000000100003f2        0x6 00
 .rodata.blanks.5018
                0x00000000100003f8       0x10 /usr/local/ps3dev/ppu/lib/gcc/powerpc64-ps3-elf/7.2.0/../../../../powerpc64-ps3-elf/lib/libc.a(lib_a-vfprintf.o)
 .rodata.zeroes.5019
                0x0000000010000408       0x10 /usr/local/ps3dev/ppu/lib/gcc/powerpc64-ps3-elf/7.2.0/../../../../powerpc64-ps3-elf/lib/libc.a(lib_a-vfprintf.o)
 .rodata._ctype_
                0x0000000010000418      0x101 /usr/local/ps3dev/ppu/lib/gcc/powerpc64-ps3-elf/7.2.0/../../../../powerpc64-ps3-elf/lib/libc.a(lib_a-ctype_.o)
                0x0000000010000418                _ctype_
 *fill*         0x0000000010000519        0x3 00
 .rodata._dtoa_r.cst4
                0x000000001000051c       0x14 /usr/local/ps3dev/ppu/lib/gcc/powerpc64-ps3-elf/7.2.0/../../../../powerpc64-ps3-elf/lib/libc.a(lib_a-dtoa.o)
                                         0x1c (size before relaxing)
 .rodata._dtoa_r.cst8
                0x0000000010000530       0x18 /usr/local/ps3dev/ppu/lib/gcc/powerpc64-ps3-elf/7.2.0/../../../../powerpc64-ps3-elf/lib/libc.a(lib_a-dtoa.o)
 .rodata._dtoa_r.str1.8
                0x0000000010000548       0x14 /usr/local/ps3dev/ppu/lib/gcc/powerpc64-ps3-elf/7.2.0/../../../../powerpc64-ps3-elf/lib/libc.a(lib_a-dtoa.o)
                                         0x1a (size before relaxing)
 *fill*         0x000000001000055c        0x4 00
 .rodata._setlocale_r.str1.8
                0x0000000010000560        0x6 /usr/local/ps3dev/ppu/lib/gcc/powerpc64-ps3-elf/7.2.0/../../../../powerpc64-ps3-elf/lib/libc.a(lib_a-locale.o)
                                         0x11 (size before relaxing)
 *fill*         0x0000000010000566        0x2 00
 .rodata.str1.8
                0x0000000010000568        0x2 /usr/local/ps3dev/ppu/lib/gcc/powerpc64-ps3-elf/7.2.0/../../../../powerpc64-ps3-elf/lib/libc.a(lib_a-locale.o)
 *fill*         0x000000001000056a        0x2 00
 .rodata.__libc_lock_attributes
                0x000000001000056c       0x10 /usr/local/ps3dev/ppu/lib/gcc/powerpc64-ps3-elf/7.2.0/../../../../powerpc64-ps3-elf/lib/libc.a(lib_a-lock_internal.o)
 .rodata._mbrtowc_r.str1.8
                0x0000000000000000        0x1 /usr/local/ps3dev/ppu/lib/gcc/powerpc64-ps3-elf/7.2.0/../../../../powerpc64-ps3-elf/lib/libc.a(lib_a-mbrtowc.o)
 *fill*         0x000000001000057c        0x4 00
 .rodata.__mprec_bigtens
                0x0000000010000580       0x28 /usr/local/ps3dev/ppu/lib/gcc/powerpc64-ps3-elf/7.2.0/../../../../powerpc64-ps3-elf/lib/libc.a(lib_a-mprec.o)
                0x0000000010000580                __mprec_bigtens
 .rodata.__mprec_tens
                0x00000000100005a8       0xc8 /usr/local/ps3dev/ppu/lib/gcc/powerpc64-ps3-elf/7.2.0/../../../../powerpc64-ps3-elf/lib/libc.a(lib_a-mprec.o)
                0x00000000100005a8                __mprec_tens
 .rodata.__mprec_tinytens
                0x0000000010000670       0x28 /usr/local/ps3dev/ppu/lib/gcc/powerpc64-ps3-elf/7.2.0/../../../../powerpc64-ps3-elf/lib/libc.a(lib_a-mprec.o)
                0x0000000010000670                __mprec_tinytens
 .rodata._mprec_log10.cst4
                0x0000000000000000        0x8 /usr/local/ps3dev/ppu/lib/gcc/powerpc64-ps3-elf/7.2.0/../../../../powerpc64-ps3-elf/lib/libc.a(lib_a-mprec.o)
 .rodata.p05.3544
                0x0000000010000698        0xc /usr/local/ps3dev/ppu/lib/gcc/powerpc64-ps3-elf/7.2.0/../../../../powerpc64-ps3-elf/lib/libc.a(lib_a-mprec.o)
 .rodata.nanf.cst4
                0x00000000100006a4        0x4 /usr/local/ps3dev/ppu/lib/gcc/powerpc64-ps3-elf/7.2.0/../../../../powerpc64-ps3-elf/lib/libc.a(lib_a-sf_nan.o)
 .rodata._strtod_r.cst4
                0x00000000100006a8        0x8 /usr/local/ps3dev/ppu/lib/gcc/powerpc64-ps3-elf/7.2.0/../../../../powerpc64-ps3-elf/lib/libc.a(lib_a-strtod.o)
                                         0x14 (size before relaxing)
 .rodata._strtod_r.cst8
                0x00000000100006b0       0x20 /usr/local/ps3dev/ppu/lib/gcc/powerpc64-ps3-elf/7.2.0/../../../../powerpc64-ps3-elf/lib/libc.a(lib_a-strtod.o)
 .rodata._strtod_r.str1.8
                0x00000000100006d0       0x13 /usr/local/ps3dev/ppu/lib/gcc/powerpc64-ps3-elf/7.2.0/../../../../powerpc64-ps3-elf/lib/libc.a(lib_a-strtod.o)
 *fill*         0x00000000100006e3        0x5 00
 .rodata.tinytens
                0x00000000100006e8       0x28 /usr/local/ps3dev/ppu/lib/gcc/powerpc64-ps3-elf/7.2.0/../../../../powerpc64-ps3-elf/lib/libc.a(lib_a-strtod.o)
 .rodata.basefix.4415
                0x0000000010000710       0x22 /usr/local/ps3dev/ppu/lib/gcc/powerpc64-ps3-elf/7.2.0/../../../../powerpc64-ps3-elf/lib/libc.a(lib_a-svfiscanf.o)
 .rodata._svfprintf_r.cst4
                0x0000000000000000        0x4 /usr/local/ps3dev/ppu/lib/gcc/powerpc64-ps3-elf/7.2.0/../../../../powerpc64-ps3-elf/lib/libc.a(lib_a-svfprintf.o)
 .rodata._svfprintf_r.str1.8
                0x0000000000000000       0x5a /usr/local/ps3dev/ppu/lib/gcc/powerpc64-ps3-elf/7.2.0/../../../../powerpc64-ps3-elf/lib/libc.a(lib_a-svfprintf.o)
 *fill*         0x0000000010000732        0x6 00
 .rodata.blanks.5003
                0x0000000010000738       0x10 /usr/local/ps3dev/ppu/lib/gcc/powerpc64-ps3-elf/7.2.0/../../../../powerpc64-ps3-elf/lib/libc.a(lib_a-svfprintf.o)
 .rodata.zeroes.5004
                0x0000000010000748       0x10 /usr/local/ps3dev/ppu/lib/gcc/powerpc64-ps3-elf/7.2.0/../../../../powerpc64-ps3-elf/lib/libc.a(lib_a-svfprintf.o)
 .rodata._vfiprintf_r.str1.8
                0x0000000000000000       0x37 /usr/local/ps3dev/ppu/lib/gcc/powerpc64-ps3-elf/7.2.0/../../../../powerpc64-ps3-elf/lib/libc.a(lib_a-vfiprintf.o)
 .rodata.blanks.4961
                0x0000000010000758       0x10 /usr/local/ps3dev/ppu/lib/gcc/powerpc64-ps3-elf/7.2.0/../../../../powerpc64-ps3-elf/lib/libc.a(lib_a-vfiprintf.o)
 .rodata.zeroes.4962
                0x0000000010000768       0x10 /usr/local/ps3dev/ppu/lib/gcc/powerpc64-ps3-elf/7.2.0/../../../../powerpc64-ps3-elf/lib/libc.a(lib_a-vfiprintf.o)
 .rodata.str1.8
                0x0000000010000778       0x20 /usr/local/ps3dev/ppu/lib/gcc/powerpc64-ps3-elf/7.2.0/../../../../powerpc64-ps3-elf/lib/libc.a(lib_a-gdtoa-gethex.o)
                                         0x1b (size before relaxing)
 .rodata._svfiprintf_r.str1.8
                0x0000000000000000       0x37 /usr/local/ps3dev/ppu/lib/gcc/powerpc64-ps3-elf/7.2.0/../../../../powerpc64-ps3-elf/lib/libc.a(lib_a-svfiprintf.o)
 .rodata.blanks.4947
                0x0000000010000798       0x10 /usr/local/ps3dev/ppu/lib/gcc/powerpc64-ps3-elf/7.2.0/../../../../powerpc64-ps3-elf/lib/libc.a(lib_a-svfiprintf.o)
 .rodata.zeroes.4948
                0x00000000100007a8       0x10 /usr/local/ps3dev/ppu/lib/gcc/powerpc64-ps3-elf/7.2.0/../../../../powerpc64-ps3-elf/lib/libc.a(lib_a-svfiprintf.o)

.rodata1
 *(.rodata1)

.spu_image
 *(.spu_image .spu_image.*)
                0x0000000010010000                . = ALIGN (0x10000)

.data           0x0000000010010000     0x1098
 *(.data .data.* .gnu.linkonce.d.*)
 .data          0x0000000010010000        0x0 /usr/local/ps3dev/ppu/lib/gcc/powerpc64-ps3-elf/7.2.0/../../../../powerpc64-ps3-elf/lib/lv2-crti.o
 .data          0x0000000010010000        0x0 /usr/local/ps3dev/ppu/lib/gcc/powerpc64-ps3-elf/7.2.0/crtbegin.o
 .data.__dso_handle
                0x0000000010010000        0x8 /usr/local/ps3dev/ppu/lib/gcc/powerpc64-ps3-elf/7.2.0/crtbegin.o
                0x0000000010010000                __dso_handle
 .data          0x0000000010010008        0x0 /usr/local/ps3dev/ppu/lib/gcc/powerpc64-ps3-elf/7.2.0/../../../../powerpc64-ps3-elf/lib/lv2-crt0.o
 .data          0x0000000010010008        0x0 /usr/local/ps3dev/ppu/lib/gcc/powerpc64-ps3-elf/7.2.0/../../../../powerpc64-ps3-elf/lib/lv2-sprx.o
 .data          0x0000000010010008        0x0 main.o
 .data          0x0000000010010008        0x0 rsxutil.o
 .data          0x0000000010010008        0x0 /usr/local/ps3dev/ppu/lib/libgcm_sys.a(sprx.o)
 .data          0x0000000010010008        0x0 /usr/local/ps3dev/ppu/lib/librsx.a(init.o)
 .data          0x0000000010010008        0x0 /usr/local/ps3dev/ppu/lib/librsx.a(buffer.o)
 .data          0x0000000010010008        0x0 /usr/local/ps3dev/ppu/lib/librsx.a(commands.o)
 .data          0x0000000010010008        0x0 /usr/local/ps3dev/ppu/lib/librsx.a(mm.o)
 .data          0x0000000010010008        0x0 /usr/local/ps3dev/ppu/lib/librsx.a(vertex_program.o)
 .data          0x0000000010010008        0x0 /usr/local/ps3dev/ppu/lib/librsx.a(fragment_program.o)
 .data          0x0000000010010008        0x0 /usr/local/ps3dev/ppu/lib/librsx.a(rsx_internal.o)
 .data          0x0000000010010008        0x0 /usr/local/ps3dev/ppu/lib/libsysutil.a(sprx.o)
 .data          0x0000000010010008        0x0 /usr/local/ps3dev/ppu/lib/libio.a(sprx.o)
 .data          0x0000000010010008        0x0 /usr/local/ps3dev/ppu/lib/librt.a(sbrk.o)
 .data          0x0000000010010008        0x0 /usr/local/ps3dev/ppu/lib/librt.a(exit.o)
 .data          0x0000000010010008        0x0 /usr/local/ps3dev/ppu/lib/librt.a(close.o)
 .data          0x0000000010010008        0x0 /usr/local/ps3dev/ppu/lib/librt.a(lseek.o)
 .data          0x0000000010010008        0x0 /usr/local/ps3dev/ppu/lib/librt.a(read.o)
 .data          0x0000000010010008        0x0 /usr/local/ps3dev/ppu/lib/librt.a(open.o)
 .data          0x0000000010010008        0x0 /usr/local/ps3dev/ppu/lib/librt.a(sleep.o)
 .data          0x0000000010010008        0x0 /usr/local/ps3dev/ppu/lib/librt.a(write.o)
 .data          0x0000000010010008        0x0 /usr/local/ps3dev/ppu/lib/librt.a(fstat.o)
 .data          0x0000000010010008        0x0 /usr/local/ps3dev/ppu/lib/librt.a(socket.o)
 .data          0x0000000010010008        0x0 /usr/local/ps3dev/ppu/lib/librt.a(lock.o)
 .data          0x0000000010010008        0x0 /usr/local/ps3dev/ppu/lib/librt.a(dirent.o)
 .data          0x0000000010010008        0x0 /usr/local/ps3dev/ppu/lib/librt.a(mkdir.o)
 .data          0x0000000010010008        0x0 /usr/local/ps3dev/ppu/lib/librt.a(times.o)
 .data          0x0000000010010008        0x0 /usr/local/ps3dev/ppu/lib/librt.a(umask.o)
 .data.g_umask  0x0000000010010008        0x4 /usr/local/ps3dev/ppu/lib/librt.a(umask.o)
                0x0000000010010008                g_umask
 .data          0x000000001001000c        0x0 /usr/local/ps3dev/ppu/lib/librt.a(lv2errno.o)
 .data          0x000000001001000c        0x0 /usr/local/ps3dev/ppu/lib/librt.a(heap.o)
 .data          0x000000001001000c        0x0 /usr/local/ps3dev/ppu/lib/librt.a(chmod.o)
 .data          0x000000001001000c        0x0 /usr/local/ps3dev/ppu/lib/librt.a(rename.o)
 .data          0x000000001001000c        0x0 /usr/local/ps3dev/ppu/lib/librt.a(rmdir.o)
 .data          0x000000001001000c        0x0 /usr/local/ps3dev/ppu/lib/librt.a(isatty.o)
 .data          0x000000001001000c        0x0 /usr/local/ps3dev/ppu/lib/librt.a(gettod.o)
 .data          0x000000001001000c        0x0 /usr/local/ps3dev/ppu/lib/librt.a(settod.o)
 .data          0x000000001001000c        0x0 /usr/local/ps3dev/ppu/lib/librt.a(unlink.o)
 .data          0x000000001001000c        0x0 /usr/local/ps3dev/ppu/lib/librt.a(link.o)
 .data          0x000000001001000c        0x0 /usr/local/ps3dev/ppu/lib/librt.a(truncate.o)
 .data          0x000000001001000c        0x0 /usr/local/ps3dev/ppu/lib/librt.a(fsync.o)
 .data          0x000000001001000c        0x0 /usr/local/ps3dev/ppu/lib/librt.a(utime.o)
 .data          0x000000001001000c        0x0 /usr/local/ps3dev/ppu/lib/librt.a(globfile.o)
 .data          0x000000001001000c        0x0 /usr/local/ps3dev/ppu/lib/liblv2.a(sprx.o)
 .data          0x000000001001000c        0x0 /usr/local/ps3dev/ppu/lib/gcc/powerpc64-ps3-elf/7.2.0/../../../../powerpc64-ps3-elf/lib/libsysbase.a(syscalls.o)
 .data          0x000000001001000c        0x0 /usr/local/ps3dev/ppu/lib/gcc/powerpc64-ps3-elf/7.2.0/../../../../powerpc64-ps3-elf/lib/libsysbase.a(sleep.o)
 .data          0x000000001001000c        0x0 /usr/local/ps3dev/ppu/lib/gcc/powerpc64-ps3-elf/7.2.0/../../../../powerpc64-ps3-elf/lib/libc.a(lib_a-calloc.o)
 .data          0x000000001001000c        0x0 /usr/local/ps3dev/ppu/lib/gcc/powerpc64-ps3-elf/7.2.0/../../../../powerpc64-ps3-elf/lib/libc.a(lib_a-callocr.o)
 .data          0x000000001001000c        0x0 /usr/local/ps3dev/ppu/lib/gcc/powerpc64-ps3-elf/7.2.0/../../../../powerpc64-ps3-elf/lib/libc.a(lib_a-errno.o)
 .data          0x000000001001000c        0x0 /usr/local/ps3dev/ppu/lib/gcc/powerpc64-ps3-elf/7.2.0/../../../../powerpc64-ps3-elf/lib/libc.a(lib_a-exit.o)
 .data          0x000000001001000c        0x0 /usr/local/ps3dev/ppu/lib/gcc/powerpc64-ps3-elf/7.2.0/../../../../powerpc64-ps3-elf/lib/libc.a(lib_a-fclose.o)
 .data          0x000000001001000c        0x0 /usr/local/ps3dev/ppu/lib/gcc/powerpc64-ps3-elf/7.2.0/../../../../powerpc64-ps3-elf/lib/libc.a(lib_a-fflush.o)
 .data          0x000000001001000c        0x0 /usr/local/ps3dev/ppu/lib/gcc/powerpc64-ps3-elf/7.2.0/../../../../powerpc64-ps3-elf/lib/libc.a(lib_a-findfp.o)
 .data          0x000000001001000c        0x0 /usr/local/ps3dev/ppu/lib/gcc/powerpc64-ps3-elf/7.2.0/../../../../powerpc64-ps3-elf/lib/libc.a(lib_a-fopen.o)
 .data          0x000000001001000c        0x0 /usr/local/ps3dev/ppu/lib/gcc/powerpc64-ps3-elf/7.2.0/../../../../powerpc64-ps3-elf/lib/libc.a(lib_a-fread.o)
 .data          0x000000001001000c        0x0 /usr/local/ps3dev/ppu/lib/gcc/powerpc64-ps3-elf/7.2.0/../../../../powerpc64-ps3-elf/lib/libc.a(lib_a-freer.o)
 .data          0x000000001001000c        0x0 /usr/local/ps3dev/ppu/lib/gcc/powerpc64-ps3-elf/7.2.0/../../../../powerpc64-ps3-elf/lib/libc.a(lib_a-fseek.o)
 .data          0x000000001001000c        0x0 /usr/local/ps3dev/ppu/lib/gcc/powerpc64-ps3-elf/7.2.0/../../../../powerpc64-ps3-elf/lib/libc.a(lib_a-ftell.o)
 .data          0x000000001001000c        0x0 /usr/local/ps3dev/ppu/lib/gcc/powerpc64-ps3-elf/7.2.0/../../../../powerpc64-ps3-elf/lib/libc.a(lib_a-fwalk.o)
 .data          0x000000001001000c        0x0 /usr/local/ps3dev/ppu/lib/gcc/powerpc64-ps3-elf/7.2.0/../../../../powerpc64-ps3-elf/lib/libc.a(lib_a-getreent.o)
 .data          0x000000001001000c        0x0 /usr/local/ps3dev/ppu/lib/gcc/powerpc64-ps3-elf/7.2.0/../../../../powerpc64-ps3-elf/lib/libc.a(lib_a-impure.o)
 *fill*         0x000000001001000c        0x4 00
 .data._impure_ptr
                0x0000000010010010        0x8 /usr/local/ps3dev/ppu/lib/gcc/powerpc64-ps3-elf/7.2.0/../../../../powerpc64-ps3-elf/lib/libc.a(lib_a-impure.o)
                0x0000000010010010                _impure_ptr
 .data.impure_data
                0x0000000010010018      0x778 /usr/local/ps3dev/ppu/lib/gcc/powerpc64-ps3-elf/7.2.0/../../../../powerpc64-ps3-elf/lib/libc.a(lib_a-impure.o)
 .data          0x0000000010010790        0x0 /usr/local/ps3dev/ppu/lib/gcc/powerpc64-ps3-elf/7.2.0/../../../../powerpc64-ps3-elf/lib/libc.a(lib_a-lock_recursive.o)
 .data          0x0000000010010790        0x0 /usr/local/ps3dev/ppu/lib/gcc/powerpc64-ps3-elf/7.2.0/../../../../powerpc64-ps3-elf/lib/libc.a(lib_a-makebuf.o)
 .data          0x0000000010010790        0x0 /usr/local/ps3dev/ppu/lib/gcc/powerpc64-ps3-elf/7.2.0/../../../../powerpc64-ps3-elf/lib/libc.a(lib_a-malign.o)
 .data          0x0000000010010790        0x0 /usr/local/ps3dev/ppu/lib/gcc/powerpc64-ps3-elf/7.2.0/../../../../powerpc64-ps3-elf/lib/libc.a(lib_a-malignr.o)
 .data          0x0000000010010790        0x0 /usr/local/ps3dev/ppu/lib/gcc/powerpc64-ps3-elf/7.2.0/../../../../powerpc64-ps3-elf/lib/libc.a(lib_a-malloc.o)
 .data          0x0000000010010790        0x0 /usr/local/ps3dev/ppu/lib/gcc/powerpc64-ps3-elf/7.2.0/../../../../powerpc64-ps3-elf/lib/libc.a(lib_a-mallocr.o)
 .data.__malloc_av_
                0x0000000010010790      0x810 /usr/local/ps3dev/ppu/lib/gcc/powerpc64-ps3-elf/7.2.0/../../../../powerpc64-ps3-elf/lib/libc.a(lib_a-mallocr.o)
                0x0000000010010790                __malloc_av_
 .data.__malloc_sbrk_base
                0x0000000010010fa0        0x8 /usr/local/ps3dev/ppu/lib/gcc/powerpc64-ps3-elf/7.2.0/../../../../powerpc64-ps3-elf/lib/libc.a(lib_a-mallocr.o)
                0x0000000010010fa0                __malloc_sbrk_base
 .data.__malloc_trim_threshold
                0x0000000010010fa8        0x8 /usr/local/ps3dev/ppu/lib/gcc/powerpc64-ps3-elf/7.2.0/../../../../powerpc64-ps3-elf/lib/libc.a(lib_a-mallocr.o)
                0x0000000010010fa8                __malloc_trim_threshold
 .data          0x0000000010010fb0        0x0 /usr/local/ps3dev/ppu/lib/gcc/powerpc64-ps3-elf/7.2.0/../../../../powerpc64-ps3-elf/lib/libc.a(lib_a-memcpy.o)
 .data          0x0000000010010fb0        0x0 /usr/local/ps3dev/ppu/lib/gcc/powerpc64-ps3-elf/7.2.0/../../../../powerpc64-ps3-elf/lib/libc.a(lib_a-memset.o)
 .data          0x0000000010010fb0        0x0 /usr/local/ps3dev/ppu/lib/gcc/powerpc64-ps3-elf/7.2.0/../../../../powerpc64-ps3-elf/lib/libc.a(lib_a-mlock.o)
 .data          0x0000000010010fb0        0x0 /usr/local/ps3dev/ppu/lib/gcc/powerpc64-ps3-elf/7.2.0/../../../../powerpc64-ps3-elf/lib/libc.a(lib_a-printf.o)
 .data          0x0000000010010fb0        0x0 /usr/local/ps3dev/ppu/lib/gcc/powerpc64-ps3-elf/7.2.0/../../../../powerpc64-ps3-elf/lib/libc.a(lib_a-puts.o)
 .data          0x0000000010010fb0        0x0 /usr/local/ps3dev/ppu/lib/gcc/powerpc64-ps3-elf/7.2.0/../../../../powerpc64-ps3-elf/lib/libc.a(lib_a-realloc.o)
 .data          0x0000000010010fb0        0x0 /usr/local/ps3dev/ppu/lib/gcc/powerpc64-ps3-elf/7.2.0/../../../../powerpc64-ps3-elf/lib/libc.a(lib_a-reallocr.o)
 .data          0x0000000010010fb0        0x0 /usr/local/ps3dev/ppu/lib/gcc/powerpc64-ps3-elf/7.2.0/../../../../powerpc64-ps3-elf/lib/libc.a(lib_a-refill.o)
 .data          0x0000000010010fb0        0x0 /usr/local/ps3dev/ppu/lib/gcc/powerpc64-ps3-elf/7.2.0/../../../../powerpc64-ps3-elf/lib/libc.a(lib_a-rewind.o)
 .data          0x0000000010010fb0        0x0 /usr/local/ps3dev/ppu/lib/gcc/powerpc64-ps3-elf/7.2.0/../../../../powerpc64-ps3-elf/lib/libc.a(lib_a-sscanf.o)
 .data          0x0000000010010fb0        0x0 /usr/local/ps3dev/ppu/lib/gcc/powerpc64-ps3-elf/7.2.0/../../../../powerpc64-ps3-elf/lib/libc.a(lib_a-stdio.o)
 .data          0x0000000010010fb0        0x0 /usr/local/ps3dev/ppu/lib/gcc/powerpc64-ps3-elf/7.2.0/../../../../powerpc64-ps3-elf/lib/libc.a(lib_a-strcasecmp.o)
 .data          0x0000000010010fb0        0x0 /usr/local/ps3dev/ppu/lib/gcc/powerpc64-ps3-elf/7.2.0/../../../../powerpc64-ps3-elf/lib/libc.a(lib_a-strchr.o)
 .data          0x0000000010010fb0        0x0 /usr/local/ps3dev/ppu/lib/gcc/powerpc64-ps3-elf/7.2.0/../../../../powerpc64-ps3-elf/lib/libc.a(lib_a-strcpy.o)
 .data          0x0000000010010fb0        0x0 /usr/local/ps3dev/ppu/lib/gcc/powerpc64-ps3-elf/7.2.0/../../../../powerpc64-ps3-elf/lib/libc.a(lib_a-strdup.o)
 .data          0x0000000010010fb0        0x0 /usr/local/ps3dev/ppu/lib/gcc/powerpc64-ps3-elf/7.2.0/../../../../powerpc64-ps3-elf/lib/libc.a(lib_a-strdup_r.o)
 .data          0x0000000010010fb0        0x0 /usr/local/ps3dev/ppu/lib/gcc/powerpc64-ps3-elf/7.2.0/../../../../powerpc64-ps3-elf/lib/libc.a(lib_a-strlen.o)
 .data          0x0000000010010fb0        0x0 /usr/local/ps3dev/ppu/lib/gcc/powerpc64-ps3-elf/7.2.0/../../../../powerpc64-ps3-elf/lib/libc.a(lib_a-strncat.o)
 .data          0x0000000010010fb0        0x0 /usr/local/ps3dev/ppu/lib/gcc/powerpc64-ps3-elf/7.2.0/../../../../powerpc64-ps3-elf/lib/libc.a(lib_a-strncpy.o)
 .data          0x0000000010010fb0        0x0 /usr/local/ps3dev/ppu/lib/gcc/powerpc64-ps3-elf/7.2.0/../../../../powerpc64-ps3-elf/lib/libc.a(lib_a-svfscanf.o)
 .data          0x0000000010010fb0        0x0 /usr/local/ps3dev/ppu/lib/gcc/powerpc64-ps3-elf/7.2.0/../../../../powerpc64-ps3-elf/lib/libc.a(lib_a-time.o)
 .data          0x0000000010010fb0        0x0 /usr/local/ps3dev/ppu/lib/gcc/powerpc64-ps3-elf/7.2.0/../../../../powerpc64-ps3-elf/lib/libc.a(lib_a-vfprintf.o)
 .data          0x0000000010010fb0        0x0 /usr/local/ps3dev/ppu/lib/gcc/powerpc64-ps3-elf/7.2.0/../../../../powerpc64-ps3-elf/lib/libc.a(lib_a-wsetup.o)
 .data          0x0000000010010fb0        0x0 /usr/local/ps3dev/ppu/lib/gcc/powerpc64-ps3-elf/7.2.0/../../../../powerpc64-ps3-elf/lib/libc.a(lib_a-__call_atexit.o)
 .data          0x0000000010010fb0        0x0 /usr/local/ps3dev/ppu/lib/gcc/powerpc64-ps3-elf/7.2.0/../../../../powerpc64-ps3-elf/lib/libc.a(lib_a-ctype_.o)
 .data.__ctype_ptr__
                0x0000000010010fb0        0x8 /usr/local/ps3dev/ppu/lib/gcc/powerpc64-ps3-elf/7.2.0/../../../../powerpc64-ps3-elf/lib/libc.a(lib_a-ctype_.o)
                0x0000000010010fb0                __ctype_ptr__
 .data          0x0000000010010fb8        0x0 /usr/local/ps3dev/ppu/lib/gcc/powerpc64-ps3-elf/7.2.0/../../../../powerpc64-ps3-elf/lib/libc.a(lib_a-dtoa.o)
 .data          0x0000000010010fb8        0x0 /usr/local/ps3dev/ppu/lib/gcc/powerpc64-ps3-elf/7.2.0/../../../../powerpc64-ps3-elf/lib/libc.a(lib_a-flags.o)
 .data          0x0000000010010fb8        0x0 /usr/local/ps3dev/ppu/lib/gcc/powerpc64-ps3-elf/7.2.0/../../../../powerpc64-ps3-elf/lib/libc.a(lib_a-fvwrite.o)
 .data          0x0000000010010fb8        0x0 /usr/local/ps3dev/ppu/lib/gcc/powerpc64-ps3-elf/7.2.0/../../../../powerpc64-ps3-elf/lib/libc.a(lib_a-iswspace.o)
 .data          0x0000000010010fb8        0x0 /usr/local/ps3dev/ppu/lib/gcc/powerpc64-ps3-elf/7.2.0/../../../../powerpc64-ps3-elf/lib/libc.a(lib_a-locale.o)
 .data.__mb_cur_max
                0x0000000010010fb8        0x4 /usr/local/ps3dev/ppu/lib/gcc/powerpc64-ps3-elf/7.2.0/../../../../powerpc64-ps3-elf/lib/libc.a(lib_a-locale.o)
                0x0000000010010fb8                __mb_cur_max
 *fill*         0x0000000010010fbc        0x4 00
 .data.lc_ctype_charset
                0x0000000010010fc0       0x20 /usr/local/ps3dev/ppu/lib/gcc/powerpc64-ps3-elf/7.2.0/../../../../powerpc64-ps3-elf/lib/libc.a(lib_a-locale.o)
 .data.lc_message_charset
                0x0000000010010fe0       0x20 /usr/local/ps3dev/ppu/lib/gcc/powerpc64-ps3-elf/7.2.0/../../../../powerpc64-ps3-elf/lib/libc.a(lib_a-locale.o)
 .data.lconv    0x0000000010011000       0x60 /usr/local/ps3dev/ppu/lib/gcc/powerpc64-ps3-elf/7.2.0/../../../../powerpc64-ps3-elf/lib/libc.a(lib_a-locale.o)
 .data          0x0000000010011060        0x0 /usr/local/ps3dev/ppu/lib/gcc/powerpc64-ps3-elf/7.2.0/../../../../powerpc64-ps3-elf/lib/libc.a(lib_a-lock_internal.o)
 .data          0x0000000010011060        0x0 /usr/local/ps3dev/ppu/lib/gcc/powerpc64-ps3-elf/7.2.0/../../../../powerpc64-ps3-elf/lib/libc.a(lib_a-mbrtowc.o)
 .data          0x0000000010011060        0x0 /usr/local/ps3dev/ppu/lib/gcc/powerpc64-ps3-elf/7.2.0/../../../../powerpc64-ps3-elf/lib/libc.a(lib_a-mbtowc_r.o)
 .data.__mbtowc
                0x0000000010011060        0x8 /usr/local/ps3dev/ppu/lib/gcc/powerpc64-ps3-elf/7.2.0/../../../../powerpc64-ps3-elf/lib/libc.a(lib_a-mbtowc_r.o)
                0x0000000010011060                __mbtowc
 .data          0x0000000010011068        0x0 /usr/local/ps3dev/ppu/lib/gcc/powerpc64-ps3-elf/7.2.0/../../../../powerpc64-ps3-elf/lib/libc.a(lib_a-memchr.o)
 .data          0x0000000010011068        0x0 /usr/local/ps3dev/ppu/lib/gcc/powerpc64-ps3-elf/7.2.0/../../../../powerpc64-ps3-elf/lib/libc.a(lib_a-memmove.o)
 .data          0x0000000010011068        0x0 /usr/local/ps3dev/ppu/lib/gcc/powerpc64-ps3-elf/7.2.0/../../../../powerpc64-ps3-elf/lib/libc.a(lib_a-mprec.o)
 .data          0x0000000010011068        0x0 /usr/local/ps3dev/ppu/lib/gcc/powerpc64-ps3-elf/7.2.0/../../../../powerpc64-ps3-elf/lib/libc.a(lib_a-sccl.o)
 .data          0x0000000010011068        0x0 /usr/local/ps3dev/ppu/lib/gcc/powerpc64-ps3-elf/7.2.0/../../../../powerpc64-ps3-elf/lib/libc.a(lib_a-sf_nan.o)
 .data          0x0000000010011068        0x0 /usr/local/ps3dev/ppu/lib/gcc/powerpc64-ps3-elf/7.2.0/../../../../powerpc64-ps3-elf/lib/libc.a(lib_a-s_fpclassify.o)
 .data          0x0000000010011068        0x0 /usr/local/ps3dev/ppu/lib/gcc/powerpc64-ps3-elf/7.2.0/../../../../powerpc64-ps3-elf/lib/libc.a(lib_a-sprintf.o)
 .data          0x0000000010011068        0x0 /usr/local/ps3dev/ppu/lib/gcc/powerpc64-ps3-elf/7.2.0/../../../../powerpc64-ps3-elf/lib/libc.a(lib_a-strcmp.o)
 .data          0x0000000010011068        0x0 /usr/local/ps3dev/ppu/lib/gcc/powerpc64-ps3-elf/7.2.0/../../../../powerpc64-ps3-elf/lib/libc.a(lib_a-strtod.o)
 .data.fpi.3504
                0x0000000010011068       0x14 /usr/local/ps3dev/ppu/lib/gcc/powerpc64-ps3-elf/7.2.0/../../../../powerpc64-ps3-elf/lib/libc.a(lib_a-strtod.o)
 .data.fpinan.3540
                0x000000001001107c       0x14 /usr/local/ps3dev/ppu/lib/gcc/powerpc64-ps3-elf/7.2.0/../../../../powerpc64-ps3-elf/lib/libc.a(lib_a-strtod.o)
 .data          0x0000000010011090        0x0 /usr/local/ps3dev/ppu/lib/gcc/powerpc64-ps3-elf/7.2.0/../../../../powerpc64-ps3-elf/lib/libc.a(lib_a-strtoll_r.o)
 .data          0x0000000010011090        0x0 /usr/local/ps3dev/ppu/lib/gcc/powerpc64-ps3-elf/7.2.0/../../../../powerpc64-ps3-elf/lib/libc.a(lib_a-strtol.o)
 .data          0x0000000010011090        0x0 /usr/local/ps3dev/ppu/lib/gcc/powerpc64-ps3-elf/7.2.0/../../../../powerpc64-ps3-elf/lib/libc.a(lib_a-strtoull_r.o)
 .data          0x0000000010011090        0x0 /usr/local/ps3dev/ppu/lib/gcc/powerpc64-ps3-elf/7.2.0/../../../../powerpc64-ps3-elf/lib/libc.a(lib_a-strtoul.o)
 .data          0x0000000010011090        0x0 /usr/local/ps3dev/ppu/lib/gcc/powerpc64-ps3-elf/7.2.0/../../../../powerpc64-ps3-elf/lib/libc.a(lib_a-svfiscanf.o)
 .data          0x0000000010011090        0x0 /usr/local/ps3dev/ppu/lib/gcc/powerpc64-ps3-elf/7.2.0/../../../../powerpc64-ps3-elf/lib/libc.a(lib_a-svfprintf.o)
 .data          0x0000000010011090        0x0 /usr/local/ps3dev/ppu/lib/gcc/powerpc64-ps3-elf/7.2.0/../../../../powerpc64-ps3-elf/lib/libc.a(lib_a-ungetc.o)
 .data          0x0000000010011090        0x0 /usr/local/ps3dev/ppu/lib/gcc/powerpc64-ps3-elf/7.2.0/../../../../powerpc64-ps3-elf/lib/libc.a(lib_a-vfiprintf.o)
 .data          0x0000000010011090        0x0 /usr/local/ps3dev/ppu/lib/gcc/powerpc64-ps3-elf/7.2.0/../../../../powerpc64-ps3-elf/lib/libc.a(lib_a-abort.o)
 .data          0x0000000010011090        0x0 /usr/local/ps3dev/ppu/lib/gcc/powerpc64-ps3-elf/7.2.0/../../../../powerpc64-ps3-elf/lib/libc.a(lib_a-__atexit.o)
 .data          0x0000000010011090        0x0 /usr/local/ps3dev/ppu/lib/gcc/powerpc64-ps3-elf/7.2.0/../../../../powerpc64-ps3-elf/lib/libc.a(lib_a-fputwc.o)
 .data          0x0000000010011090        0x0 /usr/local/ps3dev/ppu/lib/gcc/powerpc64-ps3-elf/7.2.0/../../../../powerpc64-ps3-elf/lib/libc.a(lib_a-gdtoa-gethex.o)
 .data          0x0000000010011090        0x0 /usr/local/ps3dev/ppu/lib/gcc/powerpc64-ps3-elf/7.2.0/../../../../powerpc64-ps3-elf/lib/libc.a(lib_a-gdtoa-hexnan.o)
 .data          0x0000000010011090        0x0 /usr/local/ps3dev/ppu/lib/gcc/powerpc64-ps3-elf/7.2.0/../../../../powerpc64-ps3-elf/lib/libc.a(lib_a-signal.o)
 .data          0x0000000010011090        0x0 /usr/local/ps3dev/ppu/lib/gcc/powerpc64-ps3-elf/7.2.0/../../../../powerpc64-ps3-elf/lib/libc.a(lib_a-strncmp.o)
 .data          0x0000000010011090        0x0 /usr/local/ps3dev/ppu/lib/gcc/powerpc64-ps3-elf/7.2.0/../../../../powerpc64-ps3-elf/lib/libc.a(lib_a-svfiprintf.o)
 .data          0x0000000010011090        0x0 /usr/local/ps3dev/ppu/lib/gcc/powerpc64-ps3-elf/7.2.0/../../../../powerpc64-ps3-elf/lib/libc.a(lib_a-wbuf.o)
 .data          0x0000000010011090        0x0 /usr/local/ps3dev/ppu/lib/gcc/powerpc64-ps3-elf/7.2.0/../../../../powerpc64-ps3-elf/lib/libc.a(lib_a-wcrtomb.o)
 .data          0x0000000010011090        0x0 /usr/local/ps3dev/ppu/lib/gcc/powerpc64-ps3-elf/7.2.0/../../../../powerpc64-ps3-elf/lib/libc.a(lib_a-wctomb_r.o)
 .data.__wctomb
                0x0000000010011090        0x8 /usr/local/ps3dev/ppu/lib/gcc/powerpc64-ps3-elf/7.2.0/../../../../powerpc64-ps3-elf/lib/libc.a(lib_a-wctomb_r.o)
                0x0000000010011090                __wctomb
 .data          0x0000000010011098        0x0 /usr/local/ps3dev/ppu/lib/gcc/powerpc64-ps3-elf/7.2.0/../../../../powerpc64-ps3-elf/lib/libsysbase.a(close.o)
 .data          0x0000000010011098        0x0 /usr/local/ps3dev/ppu/lib/gcc/powerpc64-ps3-elf/7.2.0/../../../../powerpc64-ps3-elf/lib/libsysbase.a(sbrk.o)
 .data          0x0000000010011098        0x0 /usr/local/ps3dev/ppu/lib/gcc/powerpc64-ps3-elf/7.2.0/../../../../powerpc64-ps3-elf/lib/libsysbase.a(_exit.o)
 .data          0x0000000010011098        0x0 /usr/local/ps3dev/ppu/lib/gcc/powerpc64-ps3-elf/7.2.0/../../../../powerpc64-ps3-elf/lib/libsysbase.a(fstat.o)
 .data          0x0000000010011098        0x0 /usr/local/ps3dev/ppu/lib/gcc/powerpc64-ps3-elf/7.2.0/../../../../powerpc64-ps3-elf/lib/libsysbase.a(isatty.o)
 .data          0x0000000010011098        0x0 /usr/local/ps3dev/ppu/lib/gcc/powerpc64-ps3-elf/7.2.0/../../../../powerpc64-ps3-elf/lib/libsysbase.a(lseek.o)
 .data          0x0000000010011098        0x0 /usr/local/ps3dev/ppu/lib/gcc/powerpc64-ps3-elf/7.2.0/../../../../powerpc64-ps3-elf/lib/libsysbase.a(open.o)
 .data          0x0000000010011098        0x0 /usr/local/ps3dev/ppu/lib/gcc/powerpc64-ps3-elf/7.2.0/../../../../powerpc64-ps3-elf/lib/libsysbase.a(read.o)
 .data          0x0000000010011098        0x0 /usr/local/ps3dev/ppu/lib/gcc/powerpc64-ps3-elf/7.2.0/../../../../powerpc64-ps3-elf/lib/libsysbase.a(write.o)
 .data          0x0000000010011098        0x0 /usr/local/ps3dev/ppu/lib/gcc/powerpc64-ps3-elf/7.2.0/../../../../powerpc64-ps3-elf/lib/libsysbase.a(lock.o)
 .data          0x0000000010011098        0x0 /usr/local/ps3dev/ppu/lib/gcc/powerpc64-ps3-elf/7.2.0/../../../../powerpc64-ps3-elf/lib/libsysbase.a(getpid.o)
 .data          0x0000000010011098        0x0 /usr/local/ps3dev/ppu/lib/gcc/powerpc64-ps3-elf/7.2.0/../../../../powerpc64-ps3-elf/lib/libsysbase.a(kill.o)
 .data          0x0000000010011098        0x0 /usr/local/ps3dev/ppu/lib/gcc/powerpc64-ps3-elf/7.2.0/../../../../powerpc64-ps3-elf/lib/libsysbase.a(gettod.o)
 .data          0x0000000010011098        0x0 /usr/local/ps3dev/ppu/lib/gcc/powerpc64-ps3-elf/7.2.0/crtend.o
 .data          0x0000000010011098        0x0 /usr/local/ps3dev/ppu/lib/gcc/powerpc64-ps3-elf/7.2.0/../../../../powerpc64-ps3-elf/lib/lv2-crtn.o
 *(.gnu.linkonce.d.*personality*)

.tm_clone_table
                0x0000000010011098        0x0
 .tm_clone_table
                0x0000000010011098        0x0 /usr/local/ps3dev/ppu/lib/gcc/powerpc64-ps3-elf/7.2.0/crtbegin.o
 .tm_clone_table
                0x0000000010011098        0x0 /usr/local/ps3dev/ppu/lib/gcc/powerpc64-ps3-elf/7.2.0/crtend.o

.data1
 *(.data1)

.sdata
 *(.sdata .sdata.* .gnu.linkonce.s.*)
                0x0000000010011098                _edata = .
                0x0000000010011098                PROVIDE (edata, .)
                0x0000000010011098                __bss_start = .

.tocbss
 *(.tocbss)

.sbss           0x0000000010011098        0x0
                0x0000000010011098                PROVIDE (__sbss_start, .)
                0x0000000010011098                PROVIDE (___sbss_start, .)
 *(.dynsbss)
 *(.sbss .sbss.* .gnu.linkonce.sb.*)
 *(.scommon)
                0x0000000010011098                PROVIDE (__sbss_end, .)
                0x0000000010011098                PROVIDE (___sbss_end, .)

.plt
 *(.plt)

.bss            0x00000000100110c0    0x406e8
 *(.dynbss)
 *(.bss .bss.* .gnu.linkonce.b.*)
 .bss           0x00000000100110c0        0x0 /usr/local/ps3dev/ppu/lib/gcc/powerpc64-ps3-elf/7.2.0/../../../../powerpc64-ps3-elf/lib/lv2-crti.o
 .bss           0x00000000100110c0        0x0 /usr/local/ps3dev/ppu/lib/gcc/powerpc64-ps3-elf/7.2.0/crtbegin.o
 .bss.completed.6041
                0x00000000100110c0        0x1 /usr/local/ps3dev/ppu/lib/gcc/powerpc64-ps3-elf/7.2.0/crtbegin.o
 *fill*         0x00000000100110c1        0x7 00
 .bss.dtor_idx.6043
                0x00000000100110c8        0x8 /usr/local/ps3dev/ppu/lib/gcc/powerpc64-ps3-elf/7.2.0/crtbegin.o
 .bss.object.6053
                0x00000000100110d0       0x30 /usr/local/ps3dev/ppu/lib/gcc/powerpc64-ps3-elf/7.2.0/crtbegin.o
 .bss           0x0000000010011100        0x8 /usr/local/ps3dev/ppu/lib/gcc/powerpc64-ps3-elf/7.2.0/../../../../powerpc64-ps3-elf/lib/lv2-crt0.o
                0x0000000010011100                __libc_stack_end
 .bss           0x0000000010011108        0x0 /usr/local/ps3dev/ppu/lib/gcc/powerpc64-ps3-elf/7.2.0/../../../../powerpc64-ps3-elf/lib/lv2-sprx.o
 .bss           0x0000000010011108        0x0 main.o
 .bss.host_addr
                0x0000000010011108        0x8 main.o
                0x0000000010011108                host_addr
 .bss.rawTexture
                0x0000000010011110        0x8 main.o
                0x0000000010011110                rawTexture
 .bss           0x0000000010011118        0x0 rsxutil.o
 .bss.depth_offset
                0x0000000010011118        0x4 rsxutil.o
 .bss.depth_pitch
                0x000000001001111c        0x4 rsxutil.o
 .bss           0x0000000010011120        0x0 /usr/local/ps3dev/ppu/lib/libgcm_sys.a(sprx.o)
 .bss           0x0000000010011120        0x0 /usr/local/ps3dev/ppu/lib/librsx.a(init.o)
 .bss.gGcmContext
                0x0000000010011120        0x4 /usr/local/ps3dev/ppu/lib/librsx.a(init.o)
                0x0000000010011120                gGcmContext
 .bss.sUserContext
                0x0000000010011124       0x10 /usr/local/ps3dev/ppu/lib/librsx.a(init.o)
 .bss           0x0000000010011134        0x0 /usr/local/ps3dev/ppu/lib/librsx.a(buffer.o)
 .bss           0x0000000010011134        0x0 /usr/local/ps3dev/ppu/lib/librsx.a(commands.o)
 .bss           0x0000000010011134        0x0 /usr/local/ps3dev/ppu/lib/librsx.a(mm.o)
 .bss.__rsx_config
                0x0000000010011134       0x18 /usr/local/ps3dev/ppu/lib/librsx.a(mm.o)
 *fill*         0x000000001001114c        0x4 00
 .bss.__rsx_heap
                0x0000000010011150       0x58 /usr/local/ps3dev/ppu/lib/librsx.a(mm.o)
 .bss.__rsxheap_initialized
                0x00000000100111a8        0x4 /usr/local/ps3dev/ppu/lib/librsx.a(mm.o)
 .bss           0x00000000100111ac        0x0 /usr/local/ps3dev/ppu/lib/librsx.a(vertex_program.o)
 .bss           0x00000000100111ac        0x0 /usr/local/ps3dev/ppu/lib/librsx.a(fragment_program.o)
 .bss           0x00000000100111ac        0x0 /usr/local/ps3dev/ppu/lib/librsx.a(rsx_internal.o)
 .bss           0x00000000100111ac        0x0 /usr/local/ps3dev/ppu/lib/libsysutil.a(sprx.o)
 .bss           0x00000000100111ac        0x0 /usr/local/ps3dev/ppu/lib/libio.a(sprx.o)
 .bss           0x00000000100111ac        0x0 /usr/local/ps3dev/ppu/lib/librt.a(sbrk.o)
 *fill*         0x00000000100111ac        0x4 00
 .bss.__region_heap
                0x00000000100111b0       0x58 /usr/local/ps3dev/ppu/lib/librt.a(sbrk.o)
 *fill*         0x0000000010011208       0x38 00
 .bss.__region_list_entries
                0x0000000010011240    0x40000 /usr/local/ps3dev/ppu/lib/librt.a(sbrk.o)
 .bss.__sbrk_baseaddr
                0x0000000010051240        0x4 /usr/local/ps3dev/ppu/lib/librt.a(sbrk.o)
 *fill*         0x0000000010051244        0x4 00
 .bss.__sbrk_curr_regionentry
                0x0000000010051248        0x8 /usr/local/ps3dev/ppu/lib/librt.a(sbrk.o)
 .bss.__sbrk_spinlock
                0x0000000010051250        0x4 /usr/local/ps3dev/ppu/lib/librt.a(sbrk.o)
 .bss           0x0000000010051254        0x0 /usr/local/ps3dev/ppu/lib/librt.a(exit.o)
 .bss           0x0000000010051254        0x0 /usr/local/ps3dev/ppu/lib/librt.a(close.o)
 .bss           0x0000000010051254        0x0 /usr/local/ps3dev/ppu/lib/librt.a(lseek.o)
 .bss           0x0000000010051254        0x0 /usr/local/ps3dev/ppu/lib/librt.a(read.o)
 .bss           0x0000000010051254        0x0 /usr/local/ps3dev/ppu/lib/librt.a(open.o)
 .bss           0x0000000010051254        0x0 /usr/local/ps3dev/ppu/lib/librt.a(sleep.o)
 .bss           0x0000000010051254        0x0 /usr/local/ps3dev/ppu/lib/librt.a(write.o)
 .bss           0x0000000010051254        0x0 /usr/local/ps3dev/ppu/lib/librt.a(fstat.o)
 .bss           0x0000000010051254        0x0 /usr/local/ps3dev/ppu/lib/librt.a(socket.o)
 .bss           0x0000000010051254        0x0 /usr/local/ps3dev/ppu/lib/librt.a(lock.o)
 .bss           0x0000000010051254        0x0 /usr/local/ps3dev/ppu/lib/librt.a(dirent.o)
 .bss           0x0000000010051254        0x0 /usr/local/ps3dev/ppu/lib/librt.a(mkdir.o)
 .bss           0x0000000010051254        0x0 /usr/local/ps3dev/ppu/lib/librt.a(times.o)
 .bss           0x0000000010051254        0x0 /usr/local/ps3dev/ppu/lib/librt.a(umask.o)
 .bss           0x0000000010051254        0x0 /usr/local/ps3dev/ppu/lib/librt.a(lv2errno.o)
 .bss           0x0000000010051254        0x0 /usr/local/ps3dev/ppu/lib/librt.a(heap.o)
 .bss           0x0000000010051254        0x0 /usr/local/ps3dev/ppu/lib/librt.a(chmod.o)
 .bss           0x0000000010051254        0x0 /usr/local/ps3dev/ppu/lib/librt.a(rename.o)
 .bss           0x0000000010051254        0x0 /usr/local/ps3dev/ppu/lib/librt.a(rmdir.o)
 .bss           0x0000000010051254        0x0 /usr/local/ps3dev/ppu/lib/librt.a(isatty.o)
 .bss           0x0000000010051254        0x0 /usr/local/ps3dev/ppu/lib/librt.a(gettod.o)
 .bss           0x0000000010051254        0x0 /usr/local/ps3dev/ppu/lib/librt.a(settod.o)
 .bss           0x0000000010051254        0x0 /usr/local/ps3dev/ppu/lib/librt.a(unlink.o)
 .bss           0x0000000010051254        0x0 /usr/local/ps3dev/ppu/lib/librt.a(link.o)
 .bss           0x0000000010051254        0x0 /usr/local/ps3dev/ppu/lib/librt.a(truncate.o)
 .bss           0x0000000010051254        0x0 /usr/local/ps3dev/ppu/lib/librt.a(fsync.o)
 .bss           0x0000000010051254        0x0 /usr/local/ps3dev/ppu/lib/librt.a(utime.o)
 .bss           0x0000000010051254        0x0 /usr/local/ps3dev/ppu/lib/librt.a(globfile.o)
 *fill*         0x0000000010051254        0x4 00
 .bss.__cwd     0x0000000010051258        0x8 /usr/local/ps3dev/ppu/lib/librt.a(globfile.o)
                0x0000000010051258                __cwd
 .bss           0x0000000010051260        0x0 /usr/local/ps3dev/ppu/lib/liblv2.a(sprx.o)
 .bss           0x0000000010051260        0x0 /usr/local/ps3dev/ppu/lib/gcc/powerpc64-ps3-elf/7.2.0/../../../../powerpc64-ps3-elf/lib/libsysbase.a(syscalls.o)
 .bss.__syscalls
                0x0000000010051260      0x170 /usr/local/ps3dev/ppu/lib/gcc/powerpc64-ps3-elf/7.2.0/../../../../powerpc64-ps3-elf/lib/libsysbase.a(syscalls.o)
                0x0000000010051260                __syscalls
 .bss           0x00000000100513d0        0x0 /usr/local/ps3dev/ppu/lib/gcc/powerpc64-ps3-elf/7.2.0/../../../../powerpc64-ps3-elf/lib/libsysbase.a(sleep.o)
 .bss           0x00000000100513d0        0x0 /usr/local/ps3dev/ppu/lib/gcc/powerpc64-ps3-elf/7.2.0/../../../../powerpc64-ps3-elf/lib/libc.a(lib_a-calloc.o)
 .bss           0x00000000100513d0        0x0 /usr/local/ps3dev/ppu/lib/gcc/powerpc64-ps3-elf/7.2.0/../../../../powerpc64-ps3-elf/lib/libc.a(lib_a-callocr.o)
 .bss           0x00000000100513d0        0x0 /usr/local/ps3dev/ppu/lib/gcc/powerpc64-ps3-elf/7.2.0/../../../../powerpc64-ps3-elf/lib/libc.a(lib_a-errno.o)
 .bss           0x00000000100513d0        0x0 /usr/local/ps3dev/ppu/lib/gcc/powerpc64-ps3-elf/7.2.0/../../../../powerpc64-ps3-elf/lib/libc.a(lib_a-exit.o)
 .bss           0x00000000100513d0        0x0 /usr/local/ps3dev/ppu/lib/gcc/powerpc64-ps3-elf/7.2.0/../../../../powerpc64-ps3-elf/lib/libc.a(lib_a-fclose.o)
 .bss           0x00000000100513d0        0x0 /usr/local/ps3dev/ppu/lib/gcc/powerpc64-ps3-elf/7.2.0/../../../../powerpc64-ps3-elf/lib/libc.a(lib_a-fflush.o)
 .bss           0x00000000100513d0        0x0 /usr/local/ps3dev/ppu/lib/gcc/powerpc64-ps3-elf/7.2.0/../../../../powerpc64-ps3-elf/lib/libc.a(lib_a-findfp.o)
 .bss.__sfp_lock
                0x00000000100513d0       0x18 /usr/local/ps3dev/ppu/lib/gcc/powerpc64-ps3-elf/7.2.0/../../../../powerpc64-ps3-elf/lib/libc.a(lib_a-findfp.o)
 .bss.__sinit_lock
                0x00000000100513e8       0x18 /usr/local/ps3dev/ppu/lib/gcc/powerpc64-ps3-elf/7.2.0/../../../../powerpc64-ps3-elf/lib/libc.a(lib_a-findfp.o)
 .bss           0x0000000010051400        0x0 /usr/local/ps3dev/ppu/lib/gcc/powerpc64-ps3-elf/7.2.0/../../../../powerpc64-ps3-elf/lib/libc.a(lib_a-fopen.o)
 .bss           0x0000000010051400        0x0 /usr/local/ps3dev/ppu/lib/gcc/powerpc64-ps3-elf/7.2.0/../../../../powerpc64-ps3-elf/lib/libc.a(lib_a-fread.o)
 .bss           0x0000000010051400        0x0 /usr/local/ps3dev/ppu/lib/gcc/powerpc64-ps3-elf/7.2.0/../../../../powerpc64-ps3-elf/lib/libc.a(lib_a-freer.o)
 .bss           0x0000000010051400        0x0 /usr/local/ps3dev/ppu/lib/gcc/powerpc64-ps3-elf/7.2.0/../../../../powerpc64-ps3-elf/lib/libc.a(lib_a-fseek.o)
 .bss           0x0000000010051400        0x0 /usr/local/ps3dev/ppu/lib/gcc/powerpc64-ps3-elf/7.2.0/../../../../powerpc64-ps3-elf/lib/libc.a(lib_a-ftell.o)
 .bss           0x0000000010051400        0x0 /usr/local/ps3dev/ppu/lib/gcc/powerpc64-ps3-elf/7.2.0/../../../../powerpc64-ps3-elf/lib/libc.a(lib_a-fwalk.o)
 .bss           0x0000000010051400        0x0 /usr/local/ps3dev/ppu/lib/gcc/powerpc64-ps3-elf/7.2.0/../../../../powerpc64-ps3-elf/lib/libc.a(lib_a-getreent.o)
 .bss           0x0000000010051400        0x0 /usr/local/ps3dev/ppu/lib/gcc/powerpc64-ps3-elf/7.2.0/../../../../powerpc64-ps3-elf/lib/libc.a(lib_a-impure.o)
 .bss           0x0000000010051400        0x0 /usr/local/ps3dev/ppu/lib/gcc/powerpc64-ps3-elf/7.2.0/../../../../powerpc64-ps3-elf/lib/libc.a(lib_a-lock_recursive.o)
 .bss           0x0000000010051400        0x0 /usr/local/ps3dev/ppu/lib/gcc/powerpc64-ps3-elf/7.2.0/../../../../powerpc64-ps3-elf/lib/libc.a(lib_a-makebuf.o)
 .bss           0x0000000010051400        0x0 /usr/local/ps3dev/ppu/lib/gcc/powerpc64-ps3-elf/7.2.0/../../../../powerpc64-ps3-elf/lib/libc.a(lib_a-malign.o)
 .bss           0x0000000010051400        0x0 /usr/local/ps3dev/ppu/lib/gcc/powerpc64-ps3-elf/7.2.0/../../../../powerpc64-ps3-elf/lib/libc.a(lib_a-malignr.o)
 .bss           0x0000000010051400        0x0 /usr/local/ps3dev/ppu/lib/gcc/powerpc64-ps3-elf/7.2.0/../../../../powerpc64-ps3-elf/lib/libc.a(lib_a-malloc.o)
 .bss           0x0000000010051400        0x0 /usr/local/ps3dev/ppu/lib/gcc/powerpc64-ps3-elf/7.2.0/../../../../powerpc64-ps3-elf/lib/libc.a(lib_a-mallocr.o)
 .bss.__malloc_current_mallinfo
                0x0000000010051400       0x28 /usr/local/ps3dev/ppu/lib/gcc/powerpc64-ps3-elf/7.2.0/../../../../powerpc64-ps3-elf/lib/libc.a(lib_a-mallocr.o)
                0x0000000010051400                __malloc_current_mallinfo
 .bss.__malloc_max_sbrked_mem
                0x0000000010051428        0x8 /usr/local/ps3dev/ppu/lib/gcc/powerpc64-ps3-elf/7.2.0/../../../../powerpc64-ps3-elf/lib/libc.a(lib_a-mallocr.o)
                0x0000000010051428                __malloc_max_sbrked_mem
 .bss.__malloc_max_total_mem
                0x0000000010051430        0x8 /usr/local/ps3dev/ppu/lib/gcc/powerpc64-ps3-elf/7.2.0/../../../../powerpc64-ps3-elf/lib/libc.a(lib_a-mallocr.o)
                0x0000000010051430                __malloc_max_total_mem
 .bss.__malloc_top_pad
                0x0000000010051438        0x8 /usr/local/ps3dev/ppu/lib/gcc/powerpc64-ps3-elf/7.2.0/../../../../powerpc64-ps3-elf/lib/libc.a(lib_a-mallocr.o)
                0x0000000010051438                __malloc_top_pad
 .bss           0x0000000010051440        0x0 /usr/local/ps3dev/ppu/lib/gcc/powerpc64-ps3-elf/7.2.0/../../../../powerpc64-ps3-elf/lib/libc.a(lib_a-memcpy.o)
 .bss           0x0000000010051440        0x0 /usr/local/ps3dev/ppu/lib/gcc/powerpc64-ps3-elf/7.2.0/../../../../powerpc64-ps3-elf/lib/libc.a(lib_a-memset.o)
 .bss           0x0000000010051440        0x0 /usr/local/ps3dev/ppu/lib/gcc/powerpc64-ps3-elf/7.2.0/../../../../powerpc64-ps3-elf/lib/libc.a(lib_a-mlock.o)
 .bss.__malloc_lock_object
                0x0000000010051440       0x18 /usr/local/ps3dev/ppu/lib/gcc/powerpc64-ps3-elf/7.2.0/../../../../powerpc64-ps3-elf/lib/libc.a(lib_a-mlock.o)
 .bss           0x0000000010051458        0x0 /usr/local/ps3dev/ppu/lib/gcc/powerpc64-ps3-elf/7.2.0/../../../../powerpc64-ps3-elf/lib/libc.a(lib_a-printf.o)
 .bss           0x0000000010051458        0x0 /usr/local/ps3dev/ppu/lib/gcc/powerpc64-ps3-elf/7.2.0/../../../../powerpc64-ps3-elf/lib/libc.a(lib_a-puts.o)
 .bss           0x0000000010051458        0x0 /usr/local/ps3dev/ppu/lib/gcc/powerpc64-ps3-elf/7.2.0/../../../../powerpc64-ps3-elf/lib/libc.a(lib_a-realloc.o)
 .bss           0x0000000010051458        0x0 /usr/local/ps3dev/ppu/lib/gcc/powerpc64-ps3-elf/7.2.0/../../../../powerpc64-ps3-elf/lib/libc.a(lib_a-reallocr.o)
 .bss           0x0000000010051458        0x0 /usr/local/ps3dev/ppu/lib/gcc/powerpc64-ps3-elf/7.2.0/../../../../powerpc64-ps3-elf/lib/libc.a(lib_a-refill.o)
 .bss           0x0000000010051458        0x0 /usr/local/ps3dev/ppu/lib/gcc/powerpc64-ps3-elf/7.2.0/../../../../powerpc64-ps3-elf/lib/libc.a(lib_a-rewind.o)
 .bss           0x0000000010051458        0x0 /usr/local/ps3dev/ppu/lib/gcc/powerpc64-ps3-elf/7.2.0/../../../../powerpc64-ps3-elf/lib/libc.a(lib_a-sscanf.o)
 .bss           0x0000000010051458        0x0 /usr/local/ps3dev/ppu/lib/gcc/powerpc64-ps3-elf/7.2.0/../../../../powerpc64-ps3-elf/lib/libc.a(lib_a-stdio.o)
 .bss           0x0000000010051458        0x0 /usr/local/ps3dev/ppu/lib/gcc/powerpc64-ps3-elf/7.2.0/../../../../powerpc64-ps3-elf/lib/libc.a(lib_a-strcasecmp.o)
 .bss           0x0000000010051458        0x0 /usr/local/ps3dev/ppu/lib/gcc/powerpc64-ps3-elf/7.2.0/../../../../powerpc64-ps3-elf/lib/libc.a(lib_a-strchr.o)
 .bss           0x0000000010051458        0x0 /usr/local/ps3dev/ppu/lib/gcc/powerpc64-ps3-elf/7.2.0/../../../../powerpc64-ps3-elf/lib/libc.a(lib_a-strcpy.o)
 .bss           0x0000000010051458        0x0 /usr/local/ps3dev/ppu/lib/gcc/powerpc64-ps3-elf/7.2.0/../../../../powerpc64-ps3-elf/lib/libc.a(lib_a-strdup.o)
 .bss           0x0000000010051458        0x0 /usr/local/ps3dev/ppu/lib/gcc/powerpc64-ps3-elf/7.2.0/../../../../powerpc64-ps3-elf/lib/libc.a(lib_a-strdup_r.o)
 .bss           0x0000000010051458        0x0 /usr/local/ps3dev/ppu/lib/gcc/powerpc64-ps3-elf/7.2.0/../../../../powerpc64-ps3-elf/lib/libc.a(lib_a-strlen.o)
 .bss           0x0000000010051458        0x0 /usr/local/ps3dev/ppu/lib/gcc/powerpc64-ps3-elf/7.2.0/../../../../powerpc64-ps3-elf/lib/libc.a(lib_a-strncat.o)
 .bss           0x0000000010051458        0x0 /usr/local/ps3dev/ppu/lib/gcc/powerpc64-ps3-elf/7.2.0/../../../../powerpc64-ps3-elf/lib/libc.a(lib_a-strncpy.o)
 .bss           0x0000000010051458        0x0 /usr/local/ps3dev/ppu/lib/gcc/powerpc64-ps3-elf/7.2.0/../../../../powerpc64-ps3-elf/lib/libc.a(lib_a-svfscanf.o)
 .bss           0x0000000010051458        0x0 /usr/local/ps3dev/ppu/lib/gcc/powerpc64-ps3-elf/7.2.0/../../../../powerpc64-ps3-elf/lib/libc.a(lib_a-time.o)
 .bss           0x0000000010051458        0x0 /usr/local/ps3dev/ppu/lib/gcc/powerpc64-ps3-elf/7.2.0/../../../../powerpc64-ps3-elf/lib/libc.a(lib_a-vfprintf.o)
 .bss           0x0000000010051458        0x0 /usr/local/ps3dev/ppu/lib/gcc/powerpc64-ps3-elf/7.2.0/../../../../powerpc64-ps3-elf/lib/libc.a(lib_a-wsetup.o)
 .bss           0x0000000010051458        0x0 /usr/local/ps3dev/ppu/lib/gcc/powerpc64-ps3-elf/7.2.0/../../../../powerpc64-ps3-elf/lib/libc.a(lib_a-__call_atexit.o)
 .bss           0x0000000010051458        0x0 /usr/local/ps3dev/ppu/lib/gcc/powerpc64-ps3-elf/7.2.0/../../../../powerpc64-ps3-elf/lib/libc.a(lib_a-ctype_.o)
 .bss           0x0000000010051458        0x0 /usr/local/ps3dev/ppu/lib/gcc/powerpc64-ps3-elf/7.2.0/../../../../powerpc64-ps3-elf/lib/libc.a(lib_a-dtoa.o)
 .bss           0x0000000010051458        0x0 /usr/local/ps3dev/ppu/lib/gcc/powerpc64-ps3-elf/7.2.0/../../../../powerpc64-ps3-elf/lib/libc.a(lib_a-flags.o)
 .bss           0x0000000010051458        0x0 /usr/local/ps3dev/ppu/lib/gcc/powerpc64-ps3-elf/7.2.0/../../../../powerpc64-ps3-elf/lib/libc.a(lib_a-fvwrite.o)
 .bss           0x0000000010051458        0x0 /usr/local/ps3dev/ppu/lib/gcc/powerpc64-ps3-elf/7.2.0/../../../../powerpc64-ps3-elf/lib/libc.a(lib_a-iswspace.o)
 .bss           0x0000000010051458        0x0 /usr/local/ps3dev/ppu/lib/gcc/powerpc64-ps3-elf/7.2.0/../../../../powerpc64-ps3-elf/lib/libc.a(lib_a-locale.o)
 .bss._PathLocale
                0x0000000010051458        0x8 /usr/local/ps3dev/ppu/lib/gcc/powerpc64-ps3-elf/7.2.0/../../../../powerpc64-ps3-elf/lib/libc.a(lib_a-locale.o)
                0x0000000010051458                _PathLocale
 .bss.__mlocale_changed
                0x0000000010051460        0x4 /usr/local/ps3dev/ppu/lib/gcc/powerpc64-ps3-elf/7.2.0/../../../../powerpc64-ps3-elf/lib/libc.a(lib_a-locale.o)
                0x0000000010051460                __mlocale_changed
 .bss.__nlocale_changed
                0x0000000010051464        0x4 /usr/local/ps3dev/ppu/lib/gcc/powerpc64-ps3-elf/7.2.0/../../../../powerpc64-ps3-elf/lib/libc.a(lib_a-locale.o)
                0x0000000010051464                __nlocale_changed
 .bss           0x0000000010051468        0x0 /usr/local/ps3dev/ppu/lib/gcc/powerpc64-ps3-elf/7.2.0/../../../../powerpc64-ps3-elf/lib/libc.a(lib_a-lock_internal.o)
 .bss.metaLock  0x0000000010051468       0x18 /usr/local/ps3dev/ppu/lib/gcc/powerpc64-ps3-elf/7.2.0/../../../../powerpc64-ps3-elf/lib/libc.a(lib_a-lock_internal.o)
 .bss           0x0000000010051480        0x0 /usr/local/ps3dev/ppu/lib/gcc/powerpc64-ps3-elf/7.2.0/../../../../powerpc64-ps3-elf/lib/libc.a(lib_a-mbrtowc.o)
 .bss           0x0000000010051480        0x0 /usr/local/ps3dev/ppu/lib/gcc/powerpc64-ps3-elf/7.2.0/../../../../powerpc64-ps3-elf/lib/libc.a(lib_a-mbtowc_r.o)
 .bss           0x0000000010051480        0x0 /usr/local/ps3dev/ppu/lib/gcc/powerpc64-ps3-elf/7.2.0/../../../../powerpc64-ps3-elf/lib/libc.a(lib_a-memchr.o)
 .bss           0x0000000010051480        0x0 /usr/local/ps3dev/ppu/lib/gcc/powerpc64-ps3-elf/7.2.0/../../../../powerpc64-ps3-elf/lib/libc.a(lib_a-memmove.o)
 .bss           0x0000000010051480        0x0 /usr/local/ps3dev/ppu/lib/gcc/powerpc64-ps3-elf/7.2.0/../../../../powerpc64-ps3-elf/lib/libc.a(lib_a-mprec.o)
 .bss           0x0000000010051480        0x0 /usr/local/ps3dev/ppu/lib/gcc/powerpc64-ps3-elf/7.2.0/../../../../powerpc64-ps3-elf/lib/libc.a(lib_a-sccl.o)
 .bss           0x0000000010051480        0x0 /usr/local/ps3dev/ppu/lib/gcc/powerpc64-ps3-elf/7.2.0/../../../../powerpc64-ps3-elf/lib/libc.a(lib_a-sf_nan.o)
 .bss           0x0000000010051480        0x0 /usr/local/ps3dev/ppu/lib/gcc/powerpc64-ps3-elf/7.2.0/../../../../powerpc64-ps3-elf/lib/libc.a(lib_a-s_fpclassify.o)
 .bss           0x0000000010051480        0x0 /usr/local/ps3dev/ppu/lib/gcc/powerpc64-ps3-elf/7.2.0/../../../../powerpc64-ps3-elf/lib/libc.a(lib_a-sprintf.o)
 .bss           0x0000000010051480        0x0 /usr/local/ps3dev/ppu/lib/gcc/powerpc64-ps3-elf/7.2.0/../../../../powerpc64-ps3-elf/lib/libc.a(lib_a-strcmp.o)
 .bss           0x0000000010051480        0x0 /usr/local/ps3dev/ppu/lib/gcc/powerpc64-ps3-elf/7.2.0/../../../../powerpc64-ps3-elf/lib/libc.a(lib_a-strtod.o)
 .bss           0x0000000010051480        0x0 /usr/local/ps3dev/ppu/lib/gcc/powerpc64-ps3-elf/7.2.0/../../../../powerpc64-ps3-elf/lib/libc.a(lib_a-strtoll_r.o)
 .bss           0x0000000010051480        0x0 /usr/local/ps3dev/ppu/lib/gcc/powerpc64-ps3-elf/7.2.0/../../../../powerpc64-ps3-elf/lib/libc.a(lib_a-strtol.o)
 .bss           0x0000000010051480        0x0 /usr/local/ps3dev/ppu/lib/gcc/powerpc64-ps3-elf/7.2.0/../../../../powerpc64-ps3-elf/lib/libc.a(lib_a-strtoull_r.o)
 .bss           0x0000000010051480        0x0 /usr/local/ps3dev/ppu/lib/gcc/powerpc64-ps3-elf/7.2.0/../../../../powerpc64-ps3-elf/lib/libc.a(lib_a-strtoul.o)
 .bss           0x0000000010051480        0x0 /usr/local/ps3dev/ppu/lib/gcc/powerpc64-ps3-elf/7.2.0/../../../../powerpc64-ps3-elf/lib/libc.a(lib_a-svfiscanf.o)
 .bss           0x0000000010051480        0x0 /usr/local/ps3dev/ppu/lib/gcc/powerpc64-ps3-elf/7.2.0/../../../../powerpc64-ps3-elf/lib/libc.a(lib_a-svfprintf.o)
 .bss           0x0000000010051480        0x0 /usr/local/ps3dev/ppu/lib/gcc/powerpc64-ps3-elf/7.2.0/../../../../powerpc64-ps3-elf/lib/libc.a(lib_a-ungetc.o)
 .bss           0x0000000010051480        0x0 /usr/local/ps3dev/ppu/lib/gcc/powerpc64-ps3-elf/7.2.0/../../../../powerpc64-ps3-elf/lib/libc.a(lib_a-vfiprintf.o)
 .bss           0x0000000010051480        0x0 /usr/local/ps3dev/ppu/lib/gcc/powerpc64-ps3-elf/7.2.0/../../../../powerpc64-ps3-elf/lib/libc.a(lib_a-abort.o)
 .bss           0x0000000010051480        0x0 /usr/local/ps3dev/ppu/lib/gcc/powerpc64-ps3-elf/7.2.0/../../../../powerpc64-ps3-elf/lib/libc.a(lib_a-__atexit.o)
 .bss.__atexit_lock
                0x0000000010051480       0x18 /usr/local/ps3dev/ppu/lib/gcc/powerpc64-ps3-elf/7.2.0/../../../../powerpc64-ps3-elf/lib/libc.a(lib_a-__atexit.o)
                0x0000000010051480                __atexit_lock
 .bss           0x0000000010051498        0x0 /usr/local/ps3dev/ppu/lib/gcc/powerpc64-ps3-elf/7.2.0/../../../../powerpc64-ps3-elf/lib/libc.a(lib_a-fputwc.o)
 .bss           0x0000000010051498        0x0 /usr/local/ps3dev/ppu/lib/gcc/powerpc64-ps3-elf/7.2.0/../../../../powerpc64-ps3-elf/lib/libc.a(lib_a-gdtoa-gethex.o)
 .bss           0x0000000010051498        0x0 /usr/local/ps3dev/ppu/lib/gcc/powerpc64-ps3-elf/7.2.0/../../../../powerpc64-ps3-elf/lib/libc.a(lib_a-gdtoa-hexnan.o)
 .bss           0x0000000010051498        0x0 /usr/local/ps3dev/ppu/lib/gcc/powerpc64-ps3-elf/7.2.0/../../../../powerpc64-ps3-elf/lib/libc.a(lib_a-signal.o)
 .bss           0x0000000010051498        0x0 /usr/local/ps3dev/ppu/lib/gcc/powerpc64-ps3-elf/7.2.0/../../../../powerpc64-ps3-elf/lib/libc.a(lib_a-strncmp.o)
 .bss           0x0000000010051498        0x0 /usr/local/ps3dev/ppu/lib/gcc/powerpc64-ps3-elf/7.2.0/../../../../powerpc64-ps3-elf/lib/libc.a(lib_a-svfiprintf.o)
 .bss           0x0000000010051498        0x0 /usr/local/ps3dev/ppu/lib/gcc/powerpc64-ps3-elf/7.2.0/../../../../powerpc64-ps3-elf/lib/libc.a(lib_a-wbuf.o)
 .bss           0x0000000010051498        0x0 /usr/local/ps3dev/ppu/lib/gcc/powerpc64-ps3-elf/7.2.0/../../../../powerpc64-ps3-elf/lib/libc.a(lib_a-wcrtomb.o)
 .bss           0x0000000010051498        0x0 /usr/local/ps3dev/ppu/lib/gcc/powerpc64-ps3-elf/7.2.0/../../../../powerpc64-ps3-elf/lib/libc.a(lib_a-wctomb_r.o)
 .bss           0x0000000010051498        0x0 /usr/local/ps3dev/ppu/lib/gcc/powerpc64-ps3-elf/7.2.0/../../../../powerpc64-ps3-elf/lib/libsysbase.a(close.o)
 .bss           0x0000000010051498        0x0 /usr/local/ps3dev/ppu/lib/gcc/powerpc64-ps3-elf/7.2.0/../../../../powerpc64-ps3-elf/lib/libsysbase.a(sbrk.o)
 .bss           0x0000000010051498        0x0 /usr/local/ps3dev/ppu/lib/gcc/powerpc64-ps3-elf/7.2.0/../../../../powerpc64-ps3-elf/lib/libsysbase.a(_exit.o)
 .bss           0x0000000010051498        0x0 /usr/local/ps3dev/ppu/lib/gcc/powerpc64-ps3-elf/7.2.0/../../../../powerpc64-ps3-elf/lib/libsysbase.a(fstat.o)
 .bss           0x0000000010051498        0x0 /usr/local/ps3dev/ppu/lib/gcc/powerpc64-ps3-elf/7.2.0/../../../../powerpc64-ps3-elf/lib/libsysbase.a(isatty.o)
 .bss           0x0000000010051498        0x0 /usr/local/ps3dev/ppu/lib/gcc/powerpc64-ps3-elf/7.2.0/../../../../powerpc64-ps3-elf/lib/libsysbase.a(lseek.o)
 .bss           0x0000000010051498        0x0 /usr/local/ps3dev/ppu/lib/gcc/powerpc64-ps3-elf/7.2.0/../../../../powerpc64-ps3-elf/lib/libsysbase.a(open.o)
 .bss           0x0000000010051498        0x0 /usr/local/ps3dev/ppu/lib/gcc/powerpc64-ps3-elf/7.2.0/../../../../powerpc64-ps3-elf/lib/libsysbase.a(read.o)
 .bss           0x0000000010051498        0x0 /usr/local/ps3dev/ppu/lib/gcc/powerpc64-ps3-elf/7.2.0/../../../../powerpc64-ps3-elf/lib/libsysbase.a(write.o)
 .bss           0x0000000010051498        0x0 /usr/local/ps3dev/ppu/lib/gcc/powerpc64-ps3-elf/7.2.0/../../../../powerpc64-ps3-elf/lib/libsysbase.a(lock.o)
 .bss           0x0000000010051498        0x0 /usr/local/ps3dev/ppu/lib/gcc/powerpc64-ps3-elf/7.2.0/../../../../powerpc64-ps3-elf/lib/libsysbase.a(getpid.o)
 .bss           0x0000000010051498        0x0 /usr/local/ps3dev/ppu/lib/gcc/powerpc64-ps3-elf/7.2.0/../../../../powerpc64-ps3-elf/lib/libsysbase.a(kill.o)
 .bss           0x0000000010051498        0x0 /usr/local/ps3dev/ppu/lib/gcc/powerpc64-ps3-elf/7.2.0/../../../../powerpc64-ps3-elf/lib/libsysbase.a(gettod.o)
 .bss           0x0000000010051498        0x0 /usr/local/ps3dev/ppu/lib/gcc/powerpc64-ps3-elf/7.2.0/crtend.o
 .bss           0x0000000010051498        0x0 /usr/local/ps3dev/ppu/lib/gcc/powerpc64-ps3-elf/7.2.0/../../../../powerpc64-ps3-elf/lib/lv2-crtn.o
 *(COMMON)
 COMMON         0x0000000010051498      0x20c main.o
                0x0000000010051498                fragShader
                0x00000000100514a0                buffers
                0x00000000100514e0                vertexProgram
                0x0000000010051508                texture_buffer
                0x0000000010051510                shader
                0x0000000010051518                texture_offset
                0x0000000010051520                path_buffer
                0x0000000010051620                context
                0x0000000010051628                currentBuffer
                0x000000001005162c                fragmentProgram
                0x0000000010051650                testSurface
                0x000000001005168c                backgroundTexture
 *fill*         0x00000000100516a4        0x4 00
 COMMON         0x00000000100516a8      0x100 /usr/local/ps3dev/ppu/lib/gcc/powerpc64-ps3-elf/7.2.0/../../../../powerpc64-ps3-elf/lib/libc.a(lib_a-gdtoa-gethex.o)
                0x00000000100516a8                __hexdig
                0x00000000100517a8                . = ALIGN (0x8)

.iplt           0x00000000100517a8        0x0
 .iplt          0x0000000000000000        0x0 linker stubs
                0x0000000020000000                . = ALIGN (0x10000000)

.rsx_image
 *(.rsx_*)
                0x0000000020000000                _end = .
                0x0000000020000000                __end = .
                0x0000000020000000                PROVIDE (end, .)
                0x0000000020000000                . = ALIGN (0x8)

.stab
 *(.stab)

.stabstr
 *(.stabstr)

.stab.excl
 *(.stab.excl)

.stab.exclstr
 *(.stab.exclstr)

.stab.index
 *(.stab.index)

.stab.indexstr
 *(.stab.indexstr)

.comment        0x0000000000000000       0x11
 *(.comment)
 .comment       0x0000000000000000       0x11 /usr/local/ps3dev/ppu/lib/gcc/powerpc64-ps3-elf/7.2.0/crtbegin.o
                                         0x12 (size before relaxing)
 .comment       0x0000000000000000       0x12 /usr/local/ps3dev/ppu/lib/gcc/powerpc64-ps3-elf/7.2.0/../../../../powerpc64-ps3-elf/lib/lv2-crt0.o
 .comment       0x0000000000000000       0x12 main.o
 .comment       0x0000000000000000       0x12 rsxutil.o
 .comment       0x0000000000000000       0x12 /usr/local/ps3dev/ppu/lib/libgcm_sys.a(sprx.o)
 .comment       0x0000000000000000       0x12 /usr/local/ps3dev/ppu/lib/librsx.a(init.o)
 .comment       0x0000000000000000       0x12 /usr/local/ps3dev/ppu/lib/librsx.a(buffer.o)
 .comment       0x0000000000000000       0x12 /usr/local/ps3dev/ppu/lib/librsx.a(commands.o)
 .comment       0x0000000000000000       0x12 /usr/local/ps3dev/ppu/lib/librsx.a(mm.o)
 .comment       0x0000000000000000       0x12 /usr/local/ps3dev/ppu/lib/librsx.a(vertex_program.o)
 .comment       0x0000000000000000       0x12 /usr/local/ps3dev/ppu/lib/librsx.a(fragment_program.o)
 .comment       0x0000000000000000       0x12 /usr/local/ps3dev/ppu/lib/librsx.a(rsx_internal.o)
 .comment       0x0000000000000000       0x12 /usr/local/ps3dev/ppu/lib/libsysutil.a(sprx.o)
 .comment       0x0000000000000000       0x12 /usr/local/ps3dev/ppu/lib/libio.a(sprx.o)
 .comment       0x0000000000000000       0x12 /usr/local/ps3dev/ppu/lib/librt.a(sbrk.o)
 .comment       0x0000000000000000       0x12 /usr/local/ps3dev/ppu/lib/librt.a(exit.o)
 .comment       0x0000000000000000       0x12 /usr/local/ps3dev/ppu/lib/librt.a(close.o)
 .comment       0x0000000000000000       0x12 /usr/local/ps3dev/ppu/lib/librt.a(lseek.o)
 .comment       0x0000000000000000       0x12 /usr/local/ps3dev/ppu/lib/librt.a(read.o)
 .comment       0x0000000000000000       0x12 /usr/local/ps3dev/ppu/lib/librt.a(open.o)
 .comment       0x0000000000000000       0x12 /usr/local/ps3dev/ppu/lib/librt.a(sleep.o)
 .comment       0x0000000000000000       0x12 /usr/local/ps3dev/ppu/lib/librt.a(write.o)
 .comment       0x0000000000000000       0x12 /usr/local/ps3dev/ppu/lib/librt.a(fstat.o)
 .comment       0x0000000000000000       0x12 /usr/local/ps3dev/ppu/lib/librt.a(socket.o)
 .comment       0x0000000000000000       0x12 /usr/local/ps3dev/ppu/lib/librt.a(lock.o)
 .comment       0x0000000000000000       0x12 /usr/local/ps3dev/ppu/lib/librt.a(dirent.o)
 .comment       0x0000000000000000       0x12 /usr/local/ps3dev/ppu/lib/librt.a(mkdir.o)
 .comment       0x0000000000000000       0x12 /usr/local/ps3dev/ppu/lib/librt.a(times.o)
 .comment       0x0000000000000000       0x12 /usr/local/ps3dev/ppu/lib/librt.a(umask.o)
 .comment       0x0000000000000000       0x12 /usr/local/ps3dev/ppu/lib/librt.a(lv2errno.o)
 .comment       0x0000000000000000       0x12 /usr/local/ps3dev/ppu/lib/librt.a(heap.o)
 .comment       0x0000000000000000       0x12 /usr/local/ps3dev/ppu/lib/librt.a(chmod.o)
 .comment       0x0000000000000000       0x12 /usr/local/ps3dev/ppu/lib/librt.a(rename.o)
 .comment       0x0000000000000000       0x12 /usr/local/ps3dev/ppu/lib/librt.a(rmdir.o)
 .comment       0x0000000000000000       0x12 /usr/local/ps3dev/ppu/lib/librt.a(isatty.o)
 .comment       0x0000000000000000       0x12 /usr/local/ps3dev/ppu/lib/librt.a(gettod.o)
 .comment       0x0000000000000000       0x12 /usr/local/ps3dev/ppu/lib/librt.a(settod.o)
 .comment       0x0000000000000000       0x12 /usr/local/ps3dev/ppu/lib/librt.a(unlink.o)
 .comment       0x0000000000000000       0x12 /usr/local/ps3dev/ppu/lib/librt.a(link.o)
 .comment       0x0000000000000000       0x12 /usr/local/ps3dev/ppu/lib/librt.a(truncate.o)
 .comment       0x0000000000000000       0x12 /usr/local/ps3dev/ppu/lib/librt.a(fsync.o)
 .comment       0x0000000000000000       0x12 /usr/local/ps3dev/ppu/lib/librt.a(utime.o)
 .comment       0x0000000000000000       0x12 /usr/local/ps3dev/ppu/lib/librt.a(globfile.o)
 .comment       0x0000000000000000       0x12 /usr/local/ps3dev/ppu/lib/liblv2.a(sprx.o)
 .comment       0x0000000000000000       0x12 /usr/local/ps3dev/ppu/lib/gcc/powerpc64-ps3-elf/7.2.0/../../../../powerpc64-ps3-elf/lib/libsysbase.a(syscalls.o)
 .comment       0x0000000000000000       0x12 /usr/local/ps3dev/ppu/lib/gcc/powerpc64-ps3-elf/7.2.0/../../../../powerpc64-ps3-elf/lib/libsysbase.a(sleep.o)
 .comment       0x0000000000000000       0x12 /usr/local/ps3dev/ppu/lib/gcc/powerpc64-ps3-elf/7.2.0/../../../../powerpc64-ps3-elf/lib/libc.a(lib_a-calloc.o)
 .comment       0x0000000000000000       0x12 /usr/local/ps3dev/ppu/lib/gcc/powerpc64-ps3-elf/7.2.0/../../../../powerpc64-ps3-elf/lib/libc.a(lib_a-callocr.o)
 .comment       0x0000000000000000       0x12 /usr/local/ps3dev/ppu/lib/gcc/powerpc64-ps3-elf/7.2.0/../../../../powerpc64-ps3-elf/lib/libc.a(lib_a-errno.o)
 .comment       0x0000000000000000       0x12 /usr/local/ps3dev/ppu/lib/gcc/powerpc64-ps3-elf/7.2.0/../../../../powerpc64-ps3-elf/lib/libc.a(lib_a-exit.o)
 .comment       0x0000000000000000       0x12 /usr/local/ps3dev/ppu/lib/gcc/powerpc64-ps3-elf/7.2.0/../../../../powerpc64-ps3-elf/lib/libc.a(lib_a-fclose.o)
 .comment       0x0000000000000000       0x12 /usr/local/ps3dev/ppu/lib/gcc/powerpc64-ps3-elf/7.2.0/../../../../powerpc64-ps3-elf/lib/libc.a(lib_a-fflush.o)
 .comment       0x0000000000000000       0x12 /usr/local/ps3dev/ppu/lib/gcc/powerpc64-ps3-elf/7.2.0/../../../../powerpc64-ps3-elf/lib/libc.a(lib_a-findfp.o)
 .comment       0x0000000000000000       0x12 /usr/local/ps3dev/ppu/lib/gcc/powerpc64-ps3-elf/7.2.0/../../../../powerpc64-ps3-elf/lib/libc.a(lib_a-fopen.o)
 .comment       0x0000000000000000       0x12 /usr/local/ps3dev/ppu/lib/gcc/powerpc64-ps3-elf/7.2.0/../../../../powerpc64-ps3-elf/lib/libc.a(lib_a-fread.o)
 .comment       0x0000000000000000       0x12 /usr/local/ps3dev/ppu/lib/gcc/powerpc64-ps3-elf/7.2.0/../../../../powerpc64-ps3-elf/lib/libc.a(lib_a-freer.o)
 .comment       0x0000000000000000       0x12 /usr/local/ps3dev/ppu/lib/gcc/powerpc64-ps3-elf/7.2.0/../../../../powerpc64-ps3-elf/lib/libc.a(lib_a-fseek.o)
 .comment       0x0000000000000000       0x12 /usr/local/ps3dev/ppu/lib/gcc/powerpc64-ps3-elf/7.2.0/../../../../powerpc64-ps3-elf/lib/libc.a(lib_a-ftell.o)
 .comment       0x0000000000000000       0x12 /usr/local/ps3dev/ppu/lib/gcc/powerpc64-ps3-elf/7.2.0/../../../../powerpc64-ps3-elf/lib/libc.a(lib_a-fwalk.o)
 .comment       0x0000000000000000       0x12 /usr/local/ps3dev/ppu/lib/gcc/powerpc64-ps3-elf/7.2.0/../../../../powerpc64-ps3-elf/lib/libc.a(lib_a-getreent.o)
 .comment       0x0000000000000000       0x12 /usr/local/ps3dev/ppu/lib/gcc/powerpc64-ps3-elf/7.2.0/../../../../powerpc64-ps3-elf/lib/libc.a(lib_a-impure.o)
 .comment       0x0000000000000000       0x12 /usr/local/ps3dev/ppu/lib/gcc/powerpc64-ps3-elf/7.2.0/../../../../powerpc64-ps3-elf/lib/libc.a(lib_a-lock_recursive.o)
 .comment       0x0000000000000000       0x12 /usr/local/ps3dev/ppu/lib/gcc/powerpc64-ps3-elf/7.2.0/../../../../powerpc64-ps3-elf/lib/libc.a(lib_a-makebuf.o)
 .comment       0x0000000000000000       0x12 /usr/local/ps3dev/ppu/lib/gcc/powerpc64-ps3-elf/7.2.0/../../../../powerpc64-ps3-elf/lib/libc.a(lib_a-malign.o)
 .comment       0x0000000000000000       0x12 /usr/local/ps3dev/ppu/lib/gcc/powerpc64-ps3-elf/7.2.0/../../../../powerpc64-ps3-elf/lib/libc.a(lib_a-malignr.o)
 .comment       0x0000000000000000       0x12 /usr/local/ps3dev/ppu/lib/gcc/powerpc64-ps3-elf/7.2.0/../../../../powerpc64-ps3-elf/lib/libc.a(lib_a-malloc.o)
 .comment       0x0000000000000000       0x12 /usr/local/ps3dev/ppu/lib/gcc/powerpc64-ps3-elf/7.2.0/../../../../powerpc64-ps3-elf/lib/libc.a(lib_a-mallocr.o)
 .comment       0x0000000000000000       0x12 /usr/local/ps3dev/ppu/lib/gcc/powerpc64-ps3-elf/7.2.0/../../../../powerpc64-ps3-elf/lib/libc.a(lib_a-memcpy.o)
 .comment       0x0000000000000000       0x12 /usr/local/ps3dev/ppu/lib/gcc/powerpc64-ps3-elf/7.2.0/../../../../powerpc64-ps3-elf/lib/libc.a(lib_a-memset.o)
 .comment       0x0000000000000000       0x12 /usr/local/ps3dev/ppu/lib/gcc/powerpc64-ps3-elf/7.2.0/../../../../powerpc64-ps3-elf/lib/libc.a(lib_a-mlock.o)
 .comment       0x0000000000000000       0x12 /usr/local/ps3dev/ppu/lib/gcc/powerpc64-ps3-elf/7.2.0/../../../../powerpc64-ps3-elf/lib/libc.a(lib_a-printf.o)
 .comment       0x0000000000000000       0x12 /usr/local/ps3dev/ppu/lib/gcc/powerpc64-ps3-elf/7.2.0/../../../../powerpc64-ps3-elf/lib/libc.a(lib_a-puts.o)
 .comment       0x0000000000000000       0x12 /usr/local/ps3dev/ppu/lib/gcc/powerpc64-ps3-elf/7.2.0/../../../../powerpc64-ps3-elf/lib/libc.a(lib_a-realloc.o)
 .comment       0x0000000000000000       0x12 /usr/local/ps3dev/ppu/lib/gcc/powerpc64-ps3-elf/7.2.0/../../../../powerpc64-ps3-elf/lib/libc.a(lib_a-reallocr.o)
 .comment       0x0000000000000000       0x12 /usr/local/ps3dev/ppu/lib/gcc/powerpc64-ps3-elf/7.2.0/../../../../powerpc64-ps3-elf/lib/libc.a(lib_a-refill.o)
 .comment       0x0000000000000000       0x12 /usr/local/ps3dev/ppu/lib/gcc/powerpc64-ps3-elf/7.2.0/../../../../powerpc64-ps3-elf/lib/libc.a(lib_a-rewind.o)
 .comment       0x0000000000000000       0x12 /usr/local/ps3dev/ppu/lib/gcc/powerpc64-ps3-elf/7.2.0/../../../../powerpc64-ps3-elf/lib/libc.a(lib_a-sscanf.o)
 .comment       0x0000000000000000       0x12 /usr/local/ps3dev/ppu/lib/gcc/powerpc64-ps3-elf/7.2.0/../../../../powerpc64-ps3-elf/lib/libc.a(lib_a-stdio.o)
 .comment       0x0000000000000000       0x12 /usr/local/ps3dev/ppu/lib/gcc/powerpc64-ps3-elf/7.2.0/../../../../powerpc64-ps3-elf/lib/libc.a(lib_a-strcasecmp.o)
 .comment       0x0000000000000000       0x12 /usr/local/ps3dev/ppu/lib/gcc/powerpc64-ps3-elf/7.2.0/../../../../powerpc64-ps3-elf/lib/libc.a(lib_a-strchr.o)
 .comment       0x0000000000000000       0x12 /usr/local/ps3dev/ppu/lib/gcc/powerpc64-ps3-elf/7.2.0/../../../../powerpc64-ps3-elf/lib/libc.a(lib_a-strcpy.o)
 .comment       0x0000000000000000       0x12 /usr/local/ps3dev/ppu/lib/gcc/powerpc64-ps3-elf/7.2.0/../../../../powerpc64-ps3-elf/lib/libc.a(lib_a-strdup.o)
 .comment       0x0000000000000000       0x12 /usr/local/ps3dev/ppu/lib/gcc/powerpc64-ps3-elf/7.2.0/../../../../powerpc64-ps3-elf/lib/libc.a(lib_a-strdup_r.o)
 .comment       0x0000000000000000       0x12 /usr/local/ps3dev/ppu/lib/gcc/powerpc64-ps3-elf/7.2.0/../../../../powerpc64-ps3-elf/lib/libc.a(lib_a-strlen.o)
 .comment       0x0000000000000000       0x12 /usr/local/ps3dev/ppu/lib/gcc/powerpc64-ps3-elf/7.2.0/../../../../powerpc64-ps3-elf/lib/libc.a(lib_a-strncat.o)
 .comment       0x0000000000000000       0x12 /usr/local/ps3dev/ppu/lib/gcc/powerpc64-ps3-elf/7.2.0/../../../../powerpc64-ps3-elf/lib/libc.a(lib_a-strncpy.o)
 .comment       0x0000000000000000       0x12 /usr/local/ps3dev/ppu/lib/gcc/powerpc64-ps3-elf/7.2.0/../../../../powerpc64-ps3-elf/lib/libc.a(lib_a-svfscanf.o)
 .comment       0x0000000000000000       0x12 /usr/local/ps3dev/ppu/lib/gcc/powerpc64-ps3-elf/7.2.0/../../../../powerpc64-ps3-elf/lib/libc.a(lib_a-time.o)
 .comment       0x0000000000000000       0x12 /usr/local/ps3dev/ppu/lib/gcc/powerpc64-ps3-elf/7.2.0/../../../../powerpc64-ps3-elf/lib/libc.a(lib_a-vfprintf.o)
 .comment       0x0000000000000000       0x12 /usr/local/ps3dev/ppu/lib/gcc/powerpc64-ps3-elf/7.2.0/../../../../powerpc64-ps3-elf/lib/libc.a(lib_a-wsetup.o)
 .comment       0x0000000000000000       0x12 /usr/local/ps3dev/ppu/lib/gcc/powerpc64-ps3-elf/7.2.0/../../../../powerpc64-ps3-elf/lib/libc.a(lib_a-__call_atexit.o)
 .comment       0x0000000000000000       0x12 /usr/local/ps3dev/ppu/lib/gcc/powerpc64-ps3-elf/7.2.0/../../../../powerpc64-ps3-elf/lib/libc.a(lib_a-ctype_.o)
 .comment       0x0000000000000000       0x12 /usr/local/ps3dev/ppu/lib/gcc/powerpc64-ps3-elf/7.2.0/../../../../powerpc64-ps3-elf/lib/libc.a(lib_a-dtoa.o)
 .comment       0x0000000000000000       0x12 /usr/local/ps3dev/ppu/lib/gcc/powerpc64-ps3-elf/7.2.0/../../../../powerpc64-ps3-elf/lib/libc.a(lib_a-flags.o)
 .comment       0x0000000000000000       0x12 /usr/local/ps3dev/ppu/lib/gcc/powerpc64-ps3-elf/7.2.0/../../../../powerpc64-ps3-elf/lib/libc.a(lib_a-fvwrite.o)
 .comment       0x0000000000000000       0x12 /usr/local/ps3dev/ppu/lib/gcc/powerpc64-ps3-elf/7.2.0/../../../../powerpc64-ps3-elf/lib/libc.a(lib_a-iswspace.o)
 .comment       0x0000000000000000       0x12 /usr/local/ps3dev/ppu/lib/gcc/powerpc64-ps3-elf/7.2.0/../../../../powerpc64-ps3-elf/lib/libc.a(lib_a-locale.o)
 .comment       0x0000000000000000       0x12 /usr/local/ps3dev/ppu/lib/gcc/powerpc64-ps3-elf/7.2.0/../../../../powerpc64-ps3-elf/lib/libc.a(lib_a-lock_internal.o)
 .comment       0x0000000000000000       0x12 /usr/local/ps3dev/ppu/lib/gcc/powerpc64-ps3-elf/7.2.0/../../../../powerpc64-ps3-elf/lib/libc.a(lib_a-mbrtowc.o)
 .comment       0x0000000000000000       0x12 /usr/local/ps3dev/ppu/lib/gcc/powerpc64-ps3-elf/7.2.0/../../../../powerpc64-ps3-elf/lib/libc.a(lib_a-mbtowc_r.o)
 .comment       0x0000000000000000       0x12 /usr/local/ps3dev/ppu/lib/gcc/powerpc64-ps3-elf/7.2.0/../../../../powerpc64-ps3-elf/lib/libc.a(lib_a-memchr.o)
 .comment       0x0000000000000000       0x12 /usr/local/ps3dev/ppu/lib/gcc/powerpc64-ps3-elf/7.2.0/../../../../powerpc64-ps3-elf/lib/libc.a(lib_a-memmove.o)
 .comment       0x0000000000000000       0x12 /usr/local/ps3dev/ppu/lib/gcc/powerpc64-ps3-elf/7.2.0/../../../../powerpc64-ps3-elf/lib/libc.a(lib_a-mprec.o)
 .comment       0x0000000000000000       0x12 /usr/local/ps3dev/ppu/lib/gcc/powerpc64-ps3-elf/7.2.0/../../../../powerpc64-ps3-elf/lib/libc.a(lib_a-sccl.o)
 .comment       0x0000000000000000       0x12 /usr/local/ps3dev/ppu/lib/gcc/powerpc64-ps3-elf/7.2.0/../../../../powerpc64-ps3-elf/lib/libc.a(lib_a-sf_nan.o)
 .comment       0x0000000000000000       0x12 /usr/local/ps3dev/ppu/lib/gcc/powerpc64-ps3-elf/7.2.0/../../../../powerpc64-ps3-elf/lib/libc.a(lib_a-s_fpclassify.o)
 .comment       0x0000000000000000       0x12 /usr/local/ps3dev/ppu/lib/gcc/powerpc64-ps3-elf/7.2.0/../../../../powerpc64-ps3-elf/lib/libc.a(lib_a-sprintf.o)
 .comment       0x0000000000000000       0x12 /usr/local/ps3dev/ppu/lib/gcc/powerpc64-ps3-elf/7.2.0/../../../../powerpc64-ps3-elf/lib/libc.a(lib_a-strcmp.o)
 .comment       0x0000000000000000       0x12 /usr/local/ps3dev/ppu/lib/gcc/powerpc64-ps3-elf/7.2.0/../../../../powerpc64-ps3-elf/lib/libc.a(lib_a-strtod.o)
 .comment       0x0000000000000000       0x12 /usr/local/ps3dev/ppu/lib/gcc/powerpc64-ps3-elf/7.2.0/../../../../powerpc64-ps3-elf/lib/libc.a(lib_a-strtoll_r.o)
 .comment       0x0000000000000000       0x12 /usr/local/ps3dev/ppu/lib/gcc/powerpc64-ps3-elf/7.2.0/../../../../powerpc64-ps3-elf/lib/libc.a(lib_a-strtol.o)
 .comment       0x0000000000000000       0x12 /usr/local/ps3dev/ppu/lib/gcc/powerpc64-ps3-elf/7.2.0/../../../../powerpc64-ps3-elf/lib/libc.a(lib_a-strtoull_r.o)
 .comment       0x0000000000000000       0x12 /usr/local/ps3dev/ppu/lib/gcc/powerpc64-ps3-elf/7.2.0/../../../../powerpc64-ps3-elf/lib/libc.a(lib_a-strtoul.o)
 .comment       0x0000000000000000       0x12 /usr/local/ps3dev/ppu/lib/gcc/powerpc64-ps3-elf/7.2.0/../../../../powerpc64-ps3-elf/lib/libc.a(lib_a-svfiscanf.o)
 .comment       0x0000000000000000       0x12 /usr/local/ps3dev/ppu/lib/gcc/powerpc64-ps3-elf/7.2.0/../../../../powerpc64-ps3-elf/lib/libc.a(lib_a-svfprintf.o)
 .comment       0x0000000000000000       0x12 /usr/local/ps3dev/ppu/lib/gcc/powerpc64-ps3-elf/7.2.0/../../../../powerpc64-ps3-elf/lib/libc.a(lib_a-ungetc.o)
 .comment       0x0000000000000000       0x12 /usr/local/ps3dev/ppu/lib/gcc/powerpc64-ps3-elf/7.2.0/../../../../powerpc64-ps3-elf/lib/libc.a(lib_a-vfiprintf.o)
 .comment       0x0000000000000000       0x12 /usr/local/ps3dev/ppu/lib/gcc/powerpc64-ps3-elf/7.2.0/../../../../powerpc64-ps3-elf/lib/libc.a(lib_a-abort.o)
 .comment       0x0000000000000000       0x12 /usr/local/ps3dev/ppu/lib/gcc/powerpc64-ps3-elf/7.2.0/../../../../powerpc64-ps3-elf/lib/libc.a(lib_a-__atexit.o)
 .comment       0x0000000000000000       0x12 /usr/local/ps3dev/ppu/lib/gcc/powerpc64-ps3-elf/7.2.0/../../../../powerpc64-ps3-elf/lib/libc.a(lib_a-fputwc.o)
 .comment       0x0000000000000000       0x12 /usr/local/ps3dev/ppu/lib/gcc/powerpc64-ps3-elf/7.2.0/../../../../powerpc64-ps3-elf/lib/libc.a(lib_a-gdtoa-gethex.o)
 .comment       0x0000000000000000       0x12 /usr/local/ps3dev/ppu/lib/gcc/powerpc64-ps3-elf/7.2.0/../../../../powerpc64-ps3-elf/lib/libc.a(lib_a-gdtoa-hexnan.o)
 .comment       0x0000000000000000       0x12 /usr/local/ps3dev/ppu/lib/gcc/powerpc64-ps3-elf/7.2.0/../../../../powerpc64-ps3-elf/lib/libc.a(lib_a-signal.o)
 .comment       0x0000000000000000       0x12 /usr/local/ps3dev/ppu/lib/gcc/powerpc64-ps3-elf/7.2.0/../../../../powerpc64-ps3-elf/lib/libc.a(lib_a-strncmp.o)
 .comment       0x0000000000000000       0x12 /usr/local/ps3dev/ppu/lib/gcc/powerpc64-ps3-elf/7.2.0/../../../../powerpc64-ps3-elf/lib/libc.a(lib_a-svfiprintf.o)
 .comment       0x0000000000000000       0x12 /usr/local/ps3dev/ppu/lib/gcc/powerpc64-ps3-elf/7.2.0/../../../../powerpc64-ps3-elf/lib/libc.a(lib_a-wbuf.o)
 .comment       0x0000000000000000       0x12 /usr/local/ps3dev/ppu/lib/gcc/powerpc64-ps3-elf/7.2.0/../../../../powerpc64-ps3-elf/lib/libc.a(lib_a-wcrtomb.o)
 .comment       0x0000000000000000       0x12 /usr/local/ps3dev/ppu/lib/gcc/powerpc64-ps3-elf/7.2.0/../../../../powerpc64-ps3-elf/lib/libc.a(lib_a-wctomb_r.o)
 .comment       0x0000000000000000       0x12 /usr/local/ps3dev/ppu/lib/gcc/powerpc64-ps3-elf/7.2.0/../../../../powerpc64-ps3-elf/lib/libsysbase.a(close.o)
 .comment       0x0000000000000000       0x12 /usr/local/ps3dev/ppu/lib/gcc/powerpc64-ps3-elf/7.2.0/../../../../powerpc64-ps3-elf/lib/libsysbase.a(sbrk.o)
 .comment       0x0000000000000000       0x12 /usr/local/ps3dev/ppu/lib/gcc/powerpc64-ps3-elf/7.2.0/../../../../powerpc64-ps3-elf/lib/libsysbase.a(_exit.o)
 .comment       0x0000000000000000       0x12 /usr/local/ps3dev/ppu/lib/gcc/powerpc64-ps3-elf/7.2.0/../../../../powerpc64-ps3-elf/lib/libsysbase.a(fstat.o)
 .comment       0x0000000000000000       0x12 /usr/local/ps3dev/ppu/lib/gcc/powerpc64-ps3-elf/7.2.0/../../../../powerpc64-ps3-elf/lib/libsysbase.a(isatty.o)
 .comment       0x0000000000000000       0x12 /usr/local/ps3dev/ppu/lib/gcc/powerpc64-ps3-elf/7.2.0/../../../../powerpc64-ps3-elf/lib/libsysbase.a(lseek.o)
 .comment       0x0000000000000000       0x12 /usr/local/ps3dev/ppu/lib/gcc/powerpc64-ps3-elf/7.2.0/../../../../powerpc64-ps3-elf/lib/libsysbase.a(open.o)
 .comment       0x0000000000000000       0x12 /usr/local/ps3dev/ppu/lib/gcc/powerpc64-ps3-elf/7.2.0/../../../../powerpc64-ps3-elf/lib/libsysbase.a(read.o)
 .comment       0x0000000000000000       0x12 /usr/local/ps3dev/ppu/lib/gcc/powerpc64-ps3-elf/7.2.0/../../../../powerpc64-ps3-elf/lib/libsysbase.a(write.o)
 .comment       0x0000000000000000       0x12 /usr/local/ps3dev/ppu/lib/gcc/powerpc64-ps3-elf/7.2.0/../../../../powerpc64-ps3-elf/lib/libsysbase.a(lock.o)
 .comment       0x0000000000000000       0x12 /usr/local/ps3dev/ppu/lib/gcc/powerpc64-ps3-elf/7.2.0/../../../../powerpc64-ps3-elf/lib/libsysbase.a(getpid.o)
 .comment       0x0000000000000000       0x12 /usr/local/ps3dev/ppu/lib/gcc/powerpc64-ps3-elf/7.2.0/../../../../powerpc64-ps3-elf/lib/libsysbase.a(kill.o)
 .comment       0x0000000000000000       0x12 /usr/local/ps3dev/ppu/lib/gcc/powerpc64-ps3-elf/7.2.0/../../../../powerpc64-ps3-elf/lib/libsysbase.a(gettod.o)
 .comment       0x0000000000000000       0x12 /usr/local/ps3dev/ppu/lib/gcc/powerpc64-ps3-elf/7.2.0/crtend.o

.debug
 *(.debug)

.line
 *(.line)

.debug_srcinfo
 *(.debug_srcinfo)

.debug_sfnames
 *(.debug_sfnames)

.debug_aranges  0x0000000000000000     0x1840
 *(.debug_aranges)
 .debug_aranges
                0x0000000000000000       0x20 /usr/local/ps3dev/ppu/lib/gcc/powerpc64-ps3-elf/7.2.0/../../../../powerpc64-ps3-elf/lib/libsysbase.a(syscalls.o)
 .debug_aranges
                0x0000000000000020       0x40 /usr/local/ps3dev/ppu/lib/gcc/powerpc64-ps3-elf/7.2.0/../../../../powerpc64-ps3-elf/lib/libsysbase.a(sleep.o)
 .debug_aranges
                0x0000000000000060       0x30 /usr/local/ps3dev/ppu/lib/gcc/powerpc64-ps3-elf/7.2.0/../../../../powerpc64-ps3-elf/lib/libc.a(lib_a-calloc.o)
 .debug_aranges
                0x0000000000000090       0x30 /usr/local/ps3dev/ppu/lib/gcc/powerpc64-ps3-elf/7.2.0/../../../../powerpc64-ps3-elf/lib/libc.a(lib_a-callocr.o)
 .debug_aranges
                0x00000000000000c0       0x30 /usr/local/ps3dev/ppu/lib/gcc/powerpc64-ps3-elf/7.2.0/../../../../powerpc64-ps3-elf/lib/libc.a(lib_a-errno.o)
 .debug_aranges
                0x00000000000000f0       0x30 /usr/local/ps3dev/ppu/lib/gcc/powerpc64-ps3-elf/7.2.0/../../../../powerpc64-ps3-elf/lib/libc.a(lib_a-exit.o)
 .debug_aranges
                0x0000000000000120       0x40 /usr/local/ps3dev/ppu/lib/gcc/powerpc64-ps3-elf/7.2.0/../../../../powerpc64-ps3-elf/lib/libc.a(lib_a-fclose.o)
 .debug_aranges
                0x0000000000000160       0x50 /usr/local/ps3dev/ppu/lib/gcc/powerpc64-ps3-elf/7.2.0/../../../../powerpc64-ps3-elf/lib/libc.a(lib_a-fflush.o)
 .debug_aranges
                0x00000000000001b0      0x100 /usr/local/ps3dev/ppu/lib/gcc/powerpc64-ps3-elf/7.2.0/../../../../powerpc64-ps3-elf/lib/libc.a(lib_a-findfp.o)
 .debug_aranges
                0x00000000000002b0       0x40 /usr/local/ps3dev/ppu/lib/gcc/powerpc64-ps3-elf/7.2.0/../../../../powerpc64-ps3-elf/lib/libc.a(lib_a-fopen.o)
 .debug_aranges
                0x00000000000002f0       0x40 /usr/local/ps3dev/ppu/lib/gcc/powerpc64-ps3-elf/7.2.0/../../../../powerpc64-ps3-elf/lib/libc.a(lib_a-fread.o)
 .debug_aranges
                0x0000000000000330       0x40 /usr/local/ps3dev/ppu/lib/gcc/powerpc64-ps3-elf/7.2.0/../../../../powerpc64-ps3-elf/lib/libc.a(lib_a-freer.o)
 .debug_aranges
                0x0000000000000370       0x40 /usr/local/ps3dev/ppu/lib/gcc/powerpc64-ps3-elf/7.2.0/../../../../powerpc64-ps3-elf/lib/libc.a(lib_a-fseek.o)
 .debug_aranges
                0x00000000000003b0       0x40 /usr/local/ps3dev/ppu/lib/gcc/powerpc64-ps3-elf/7.2.0/../../../../powerpc64-ps3-elf/lib/libc.a(lib_a-ftell.o)
 .debug_aranges
                0x00000000000003f0       0x40 /usr/local/ps3dev/ppu/lib/gcc/powerpc64-ps3-elf/7.2.0/../../../../powerpc64-ps3-elf/lib/libc.a(lib_a-fwalk.o)
 .debug_aranges
                0x0000000000000430       0x30 /usr/local/ps3dev/ppu/lib/gcc/powerpc64-ps3-elf/7.2.0/../../../../powerpc64-ps3-elf/lib/libc.a(lib_a-getreent.o)
 .debug_aranges
                0x0000000000000460       0x20 /usr/local/ps3dev/ppu/lib/gcc/powerpc64-ps3-elf/7.2.0/../../../../powerpc64-ps3-elf/lib/libc.a(lib_a-impure.o)
 .debug_aranges
                0x0000000000000480       0x70 /usr/local/ps3dev/ppu/lib/gcc/powerpc64-ps3-elf/7.2.0/../../../../powerpc64-ps3-elf/lib/libc.a(lib_a-lock_recursive.o)
 .debug_aranges
                0x00000000000004f0       0x30 /usr/local/ps3dev/ppu/lib/gcc/powerpc64-ps3-elf/7.2.0/../../../../powerpc64-ps3-elf/lib/libc.a(lib_a-makebuf.o)
 .debug_aranges
                0x0000000000000520       0x30 /usr/local/ps3dev/ppu/lib/gcc/powerpc64-ps3-elf/7.2.0/../../../../powerpc64-ps3-elf/lib/libc.a(lib_a-malign.o)
 .debug_aranges
                0x0000000000000550       0x30 /usr/local/ps3dev/ppu/lib/gcc/powerpc64-ps3-elf/7.2.0/../../../../powerpc64-ps3-elf/lib/libc.a(lib_a-malignr.o)
 .debug_aranges
                0x0000000000000580       0x40 /usr/local/ps3dev/ppu/lib/gcc/powerpc64-ps3-elf/7.2.0/../../../../powerpc64-ps3-elf/lib/libc.a(lib_a-malloc.o)
 .debug_aranges
                0x00000000000005c0       0x30 /usr/local/ps3dev/ppu/lib/gcc/powerpc64-ps3-elf/7.2.0/../../../../powerpc64-ps3-elf/lib/libc.a(lib_a-mallocr.o)
 .debug_aranges
                0x00000000000005f0       0x30 /usr/local/ps3dev/ppu/lib/gcc/powerpc64-ps3-elf/7.2.0/../../../../powerpc64-ps3-elf/lib/libc.a(lib_a-memcpy.o)
 .debug_aranges
                0x0000000000000620       0x30 /usr/local/ps3dev/ppu/lib/gcc/powerpc64-ps3-elf/7.2.0/../../../../powerpc64-ps3-elf/lib/libc.a(lib_a-memset.o)
 .debug_aranges
                0x0000000000000650       0x40 /usr/local/ps3dev/ppu/lib/gcc/powerpc64-ps3-elf/7.2.0/../../../../powerpc64-ps3-elf/lib/libc.a(lib_a-mlock.o)
 .debug_aranges
                0x0000000000000690       0x40 /usr/local/ps3dev/ppu/lib/gcc/powerpc64-ps3-elf/7.2.0/../../../../powerpc64-ps3-elf/lib/libc.a(lib_a-printf.o)
 .debug_aranges
                0x00000000000006d0       0x40 /usr/local/ps3dev/ppu/lib/gcc/powerpc64-ps3-elf/7.2.0/../../../../powerpc64-ps3-elf/lib/libc.a(lib_a-puts.o)
 .debug_aranges
                0x0000000000000710       0x30 /usr/local/ps3dev/ppu/lib/gcc/powerpc64-ps3-elf/7.2.0/../../../../powerpc64-ps3-elf/lib/libc.a(lib_a-realloc.o)
 .debug_aranges
                0x0000000000000740       0x30 /usr/local/ps3dev/ppu/lib/gcc/powerpc64-ps3-elf/7.2.0/../../../../powerpc64-ps3-elf/lib/libc.a(lib_a-reallocr.o)
 .debug_aranges
                0x0000000000000770       0x40 /usr/local/ps3dev/ppu/lib/gcc/powerpc64-ps3-elf/7.2.0/../../../../powerpc64-ps3-elf/lib/libc.a(lib_a-refill.o)
 .debug_aranges
                0x00000000000007b0       0x40 /usr/local/ps3dev/ppu/lib/gcc/powerpc64-ps3-elf/7.2.0/../../../../powerpc64-ps3-elf/lib/libc.a(lib_a-rewind.o)
 .debug_aranges
                0x00000000000007f0       0x40 /usr/local/ps3dev/ppu/lib/gcc/powerpc64-ps3-elf/7.2.0/../../../../powerpc64-ps3-elf/lib/libc.a(lib_a-sscanf.o)
 .debug_aranges
                0x0000000000000830       0x70 /usr/local/ps3dev/ppu/lib/gcc/powerpc64-ps3-elf/7.2.0/../../../../powerpc64-ps3-elf/lib/libc.a(lib_a-stdio.o)
 .debug_aranges
                0x00000000000008a0       0x30 /usr/local/ps3dev/ppu/lib/gcc/powerpc64-ps3-elf/7.2.0/../../../../powerpc64-ps3-elf/lib/libc.a(lib_a-strcasecmp.o)
 .debug_aranges
                0x00000000000008d0       0x30 /usr/local/ps3dev/ppu/lib/gcc/powerpc64-ps3-elf/7.2.0/../../../../powerpc64-ps3-elf/lib/libc.a(lib_a-strchr.o)
 .debug_aranges
                0x0000000000000900       0x30 /usr/local/ps3dev/ppu/lib/gcc/powerpc64-ps3-elf/7.2.0/../../../../powerpc64-ps3-elf/lib/libc.a(lib_a-strcpy.o)
 .debug_aranges
                0x0000000000000930       0x30 /usr/local/ps3dev/ppu/lib/gcc/powerpc64-ps3-elf/7.2.0/../../../../powerpc64-ps3-elf/lib/libc.a(lib_a-strdup.o)
 .debug_aranges
                0x0000000000000960       0x30 /usr/local/ps3dev/ppu/lib/gcc/powerpc64-ps3-elf/7.2.0/../../../../powerpc64-ps3-elf/lib/libc.a(lib_a-strdup_r.o)
 .debug_aranges
                0x0000000000000990       0x30 /usr/local/ps3dev/ppu/lib/gcc/powerpc64-ps3-elf/7.2.0/../../../../powerpc64-ps3-elf/lib/libc.a(lib_a-strlen.o)
 .debug_aranges
                0x00000000000009c0       0x30 /usr/local/ps3dev/ppu/lib/gcc/powerpc64-ps3-elf/7.2.0/../../../../powerpc64-ps3-elf/lib/libc.a(lib_a-strncat.o)
 .debug_aranges
                0x00000000000009f0       0x30 /usr/local/ps3dev/ppu/lib/gcc/powerpc64-ps3-elf/7.2.0/../../../../powerpc64-ps3-elf/lib/libc.a(lib_a-strncpy.o)
 .debug_aranges
                0x0000000000000a20       0x30 /usr/local/ps3dev/ppu/lib/gcc/powerpc64-ps3-elf/7.2.0/../../../../powerpc64-ps3-elf/lib/libc.a(lib_a-svfscanf.o)
 .debug_aranges
                0x0000000000000a50       0x30 /usr/local/ps3dev/ppu/lib/gcc/powerpc64-ps3-elf/7.2.0/../../../../powerpc64-ps3-elf/lib/libc.a(lib_a-time.o)
 .debug_aranges
                0x0000000000000a80       0x40 /usr/local/ps3dev/ppu/lib/gcc/powerpc64-ps3-elf/7.2.0/../../../../powerpc64-ps3-elf/lib/libc.a(lib_a-vfprintf.o)
 .debug_aranges
                0x0000000000000ac0       0x30 /usr/local/ps3dev/ppu/lib/gcc/powerpc64-ps3-elf/7.2.0/../../../../powerpc64-ps3-elf/lib/libc.a(lib_a-wsetup.o)
 .debug_aranges
                0x0000000000000af0       0x30 /usr/local/ps3dev/ppu/lib/gcc/powerpc64-ps3-elf/7.2.0/../../../../powerpc64-ps3-elf/lib/libc.a(lib_a-__call_atexit.o)
 .debug_aranges
                0x0000000000000b20       0x20 /usr/local/ps3dev/ppu/lib/gcc/powerpc64-ps3-elf/7.2.0/../../../../powerpc64-ps3-elf/lib/libc.a(lib_a-ctype_.o)
 .debug_aranges
                0x0000000000000b40       0x40 /usr/local/ps3dev/ppu/lib/gcc/powerpc64-ps3-elf/7.2.0/../../../../powerpc64-ps3-elf/lib/libc.a(lib_a-dtoa.o)
 .debug_aranges
                0x0000000000000b80       0x30 /usr/local/ps3dev/ppu/lib/gcc/powerpc64-ps3-elf/7.2.0/../../../../powerpc64-ps3-elf/lib/libc.a(lib_a-flags.o)
 .debug_aranges
                0x0000000000000bb0       0x30 /usr/local/ps3dev/ppu/lib/gcc/powerpc64-ps3-elf/7.2.0/../../../../powerpc64-ps3-elf/lib/libc.a(lib_a-fvwrite.o)
 .debug_aranges
                0x0000000000000be0       0x30 /usr/local/ps3dev/ppu/lib/gcc/powerpc64-ps3-elf/7.2.0/../../../../powerpc64-ps3-elf/lib/libc.a(lib_a-iswspace.o)
 .debug_aranges
                0x0000000000000c10       0xa0 /usr/local/ps3dev/ppu/lib/gcc/powerpc64-ps3-elf/7.2.0/../../../../powerpc64-ps3-elf/lib/libc.a(lib_a-locale.o)
 .debug_aranges
                0x0000000000000cb0       0x40 /usr/local/ps3dev/ppu/lib/gcc/powerpc64-ps3-elf/7.2.0/../../../../powerpc64-ps3-elf/lib/libc.a(lib_a-lock_internal.o)
 .debug_aranges
                0x0000000000000cf0       0x40 /usr/local/ps3dev/ppu/lib/gcc/powerpc64-ps3-elf/7.2.0/../../../../powerpc64-ps3-elf/lib/libc.a(lib_a-mbrtowc.o)
 .debug_aranges
                0x0000000000000d30       0x40 /usr/local/ps3dev/ppu/lib/gcc/powerpc64-ps3-elf/7.2.0/../../../../powerpc64-ps3-elf/lib/libc.a(lib_a-mbtowc_r.o)
 .debug_aranges
                0x0000000000000d70       0x30 /usr/local/ps3dev/ppu/lib/gcc/powerpc64-ps3-elf/7.2.0/../../../../powerpc64-ps3-elf/lib/libc.a(lib_a-memchr.o)
 .debug_aranges
                0x0000000000000da0       0x30 /usr/local/ps3dev/ppu/lib/gcc/powerpc64-ps3-elf/7.2.0/../../../../powerpc64-ps3-elf/lib/libc.a(lib_a-memmove.o)
 .debug_aranges
                0x0000000000000dd0      0x150 /usr/local/ps3dev/ppu/lib/gcc/powerpc64-ps3-elf/7.2.0/../../../../powerpc64-ps3-elf/lib/libc.a(lib_a-mprec.o)
 .debug_aranges
                0x0000000000000f20       0x30 /usr/local/ps3dev/ppu/lib/gcc/powerpc64-ps3-elf/7.2.0/../../../../powerpc64-ps3-elf/lib/libc.a(lib_a-sccl.o)
 .debug_aranges
                0x0000000000000f50       0x30 /usr/local/ps3dev/ppu/lib/gcc/powerpc64-ps3-elf/7.2.0/../../../../powerpc64-ps3-elf/lib/libc.a(lib_a-sf_nan.o)
 .debug_aranges
                0x0000000000000f80       0x30 /usr/local/ps3dev/ppu/lib/gcc/powerpc64-ps3-elf/7.2.0/../../../../powerpc64-ps3-elf/lib/libc.a(lib_a-s_fpclassify.o)
 .debug_aranges
                0x0000000000000fb0       0x40 /usr/local/ps3dev/ppu/lib/gcc/powerpc64-ps3-elf/7.2.0/../../../../powerpc64-ps3-elf/lib/libc.a(lib_a-sprintf.o)
 .debug_aranges
                0x0000000000000ff0       0x30 /usr/local/ps3dev/ppu/lib/gcc/powerpc64-ps3-elf/7.2.0/../../../../powerpc64-ps3-elf/lib/libc.a(lib_a-strcmp.o)
 .debug_aranges
                0x0000000000001020       0x50 /usr/local/ps3dev/ppu/lib/gcc/powerpc64-ps3-elf/7.2.0/../../../../powerpc64-ps3-elf/lib/libc.a(lib_a-strtod.o)
 .debug_aranges
                0x0000000000001070       0x30 /usr/local/ps3dev/ppu/lib/gcc/powerpc64-ps3-elf/7.2.0/../../../../powerpc64-ps3-elf/lib/libc.a(lib_a-strtoll_r.o)
 .debug_aranges
                0x00000000000010a0       0x40 /usr/local/ps3dev/ppu/lib/gcc/powerpc64-ps3-elf/7.2.0/../../../../powerpc64-ps3-elf/lib/libc.a(lib_a-strtol.o)
 .debug_aranges
                0x00000000000010e0       0x30 /usr/local/ps3dev/ppu/lib/gcc/powerpc64-ps3-elf/7.2.0/../../../../powerpc64-ps3-elf/lib/libc.a(lib_a-strtoull_r.o)
 .debug_aranges
                0x0000000000001110       0x40 /usr/local/ps3dev/ppu/lib/gcc/powerpc64-ps3-elf/7.2.0/../../../../powerpc64-ps3-elf/lib/libc.a(lib_a-strtoul.o)
 .debug_aranges
                0x0000000000001150       0x60 /usr/local/ps3dev/ppu/lib/gcc/powerpc64-ps3-elf/7.2.0/../../../../powerpc64-ps3-elf/lib/libc.a(lib_a-svfiscanf.o)
 .debug_aranges
                0x00000000000011b0       0x30 /usr/local/ps3dev/ppu/lib/gcc/powerpc64-ps3-elf/7.2.0/../../../../powerpc64-ps3-elf/lib/libc.a(lib_a-svfprintf.o)
 .debug_aranges
                0x00000000000011e0       0x50 /usr/local/ps3dev/ppu/lib/gcc/powerpc64-ps3-elf/7.2.0/../../../../powerpc64-ps3-elf/lib/libc.a(lib_a-ungetc.o)
 .debug_aranges
                0x0000000000001230       0x60 /usr/local/ps3dev/ppu/lib/gcc/powerpc64-ps3-elf/7.2.0/../../../../powerpc64-ps3-elf/lib/libc.a(lib_a-vfiprintf.o)
 .debug_aranges
                0x0000000000001290       0x30 /usr/local/ps3dev/ppu/lib/gcc/powerpc64-ps3-elf/7.2.0/../../../../powerpc64-ps3-elf/lib/libc.a(lib_a-abort.o)
 .debug_aranges
                0x00000000000012c0       0x30 /usr/local/ps3dev/ppu/lib/gcc/powerpc64-ps3-elf/7.2.0/../../../../powerpc64-ps3-elf/lib/libc.a(lib_a-__atexit.o)
 .debug_aranges
                0x00000000000012f0       0x40 /usr/local/ps3dev/ppu/lib/gcc/powerpc64-ps3-elf/7.2.0/../../../../powerpc64-ps3-elf/lib/libc.a(lib_a-fputwc.o)
 .debug_aranges
                0x0000000000001330       0x50 /usr/local/ps3dev/ppu/lib/gcc/powerpc64-ps3-elf/7.2.0/../../../../powerpc64-ps3-elf/lib/libc.a(lib_a-gdtoa-gethex.o)
 .debug_aranges
                0x0000000000001380       0x30 /usr/local/ps3dev/ppu/lib/gcc/powerpc64-ps3-elf/7.2.0/../../../../powerpc64-ps3-elf/lib/libc.a(lib_a-gdtoa-hexnan.o)
 .debug_aranges
                0x00000000000013b0       0xb0 /usr/local/ps3dev/ppu/lib/gcc/powerpc64-ps3-elf/7.2.0/../../../../powerpc64-ps3-elf/lib/libc.a(lib_a-signal.o)
 .debug_aranges
                0x0000000000001460       0x30 /usr/local/ps3dev/ppu/lib/gcc/powerpc64-ps3-elf/7.2.0/../../../../powerpc64-ps3-elf/lib/libc.a(lib_a-strncmp.o)
 .debug_aranges
                0x0000000000001490       0x40 /usr/local/ps3dev/ppu/lib/gcc/powerpc64-ps3-elf/7.2.0/../../../../powerpc64-ps3-elf/lib/libc.a(lib_a-svfiprintf.o)
 .debug_aranges
                0x00000000000014d0       0x40 /usr/local/ps3dev/ppu/lib/gcc/powerpc64-ps3-elf/7.2.0/../../../../powerpc64-ps3-elf/lib/libc.a(lib_a-wbuf.o)
 .debug_aranges
                0x0000000000001510       0x40 /usr/local/ps3dev/ppu/lib/gcc/powerpc64-ps3-elf/7.2.0/../../../../powerpc64-ps3-elf/lib/libc.a(lib_a-wcrtomb.o)
 .debug_aranges
                0x0000000000001550       0x40 /usr/local/ps3dev/ppu/lib/gcc/powerpc64-ps3-elf/7.2.0/../../../../powerpc64-ps3-elf/lib/libc.a(lib_a-wctomb_r.o)
 .debug_aranges
                0x0000000000001590       0x30 /usr/local/ps3dev/ppu/lib/gcc/powerpc64-ps3-elf/7.2.0/../../../../powerpc64-ps3-elf/lib/libsysbase.a(close.o)
 .debug_aranges
                0x00000000000015c0       0x30 /usr/local/ps3dev/ppu/lib/gcc/powerpc64-ps3-elf/7.2.0/../../../../powerpc64-ps3-elf/lib/libsysbase.a(sbrk.o)
 .debug_aranges
                0x00000000000015f0       0x30 /usr/local/ps3dev/ppu/lib/gcc/powerpc64-ps3-elf/7.2.0/../../../../powerpc64-ps3-elf/lib/libsysbase.a(_exit.o)
 .debug_aranges
                0x0000000000001620       0x30 /usr/local/ps3dev/ppu/lib/gcc/powerpc64-ps3-elf/7.2.0/../../../../powerpc64-ps3-elf/lib/libsysbase.a(fstat.o)
 .debug_aranges
                0x0000000000001650       0x30 /usr/local/ps3dev/ppu/lib/gcc/powerpc64-ps3-elf/7.2.0/../../../../powerpc64-ps3-elf/lib/libsysbase.a(isatty.o)
 .debug_aranges
                0x0000000000001680       0x30 /usr/local/ps3dev/ppu/lib/gcc/powerpc64-ps3-elf/7.2.0/../../../../powerpc64-ps3-elf/lib/libsysbase.a(lseek.o)
 .debug_aranges
                0x00000000000016b0       0x30 /usr/local/ps3dev/ppu/lib/gcc/powerpc64-ps3-elf/7.2.0/../../../../powerpc64-ps3-elf/lib/libsysbase.a(open.o)
 .debug_aranges
                0x00000000000016e0       0x30 /usr/local/ps3dev/ppu/lib/gcc/powerpc64-ps3-elf/7.2.0/../../../../powerpc64-ps3-elf/lib/libsysbase.a(read.o)
 .debug_aranges
                0x0000000000001710       0x30 /usr/local/ps3dev/ppu/lib/gcc/powerpc64-ps3-elf/7.2.0/../../../../powerpc64-ps3-elf/lib/libsysbase.a(write.o)
 .debug_aranges
                0x0000000000001740       0x70 /usr/local/ps3dev/ppu/lib/gcc/powerpc64-ps3-elf/7.2.0/../../../../powerpc64-ps3-elf/lib/libsysbase.a(lock.o)
 .debug_aranges
                0x00000000000017b0       0x30 /usr/local/ps3dev/ppu/lib/gcc/powerpc64-ps3-elf/7.2.0/../../../../powerpc64-ps3-elf/lib/libsysbase.a(getpid.o)
 .debug_aranges
                0x00000000000017e0       0x30 /usr/local/ps3dev/ppu/lib/gcc/powerpc64-ps3-elf/7.2.0/../../../../powerpc64-ps3-elf/lib/libsysbase.a(kill.o)
 .debug_aranges
                0x0000000000001810       0x30 /usr/local/ps3dev/ppu/lib/gcc/powerpc64-ps3-elf/7.2.0/../../../../powerpc64-ps3-elf/lib/libsysbase.a(gettod.o)

.debug_pubnames
 *(.debug_pubnames)

.debug_info     0x0000000000000000    0x52ea6
 *(.debug_info .gnu.linkonce.wi.*)
 .debug_info    0x0000000000000000     0x13ed /usr/local/ps3dev/ppu/lib/gcc/powerpc64-ps3-elf/7.2.0/../../../../powerpc64-ps3-elf/lib/libsysbase.a(syscalls.o)
 .debug_info    0x00000000000013ed     0x14d7 /usr/local/ps3dev/ppu/lib/gcc/powerpc64-ps3-elf/7.2.0/../../../../powerpc64-ps3-elf/lib/libsysbase.a(sleep.o)
 .debug_info    0x00000000000028c4      0x971 /usr/local/ps3dev/ppu/lib/gcc/powerpc64-ps3-elf/7.2.0/../../../../powerpc64-ps3-elf/lib/libc.a(lib_a-calloc.o)
 .debug_info    0x0000000000003235      0xbc9 /usr/local/ps3dev/ppu/lib/gcc/powerpc64-ps3-elf/7.2.0/../../../../powerpc64-ps3-elf/lib/libc.a(lib_a-callocr.o)
 .debug_info    0x0000000000003dfe      0x94b /usr/local/ps3dev/ppu/lib/gcc/powerpc64-ps3-elf/7.2.0/../../../../powerpc64-ps3-elf/lib/libc.a(lib_a-errno.o)
 .debug_info    0x0000000000004749      0x9ad /usr/local/ps3dev/ppu/lib/gcc/powerpc64-ps3-elf/7.2.0/../../../../powerpc64-ps3-elf/lib/libc.a(lib_a-exit.o)
 .debug_info    0x00000000000050f6      0xd16 /usr/local/ps3dev/ppu/lib/gcc/powerpc64-ps3-elf/7.2.0/../../../../powerpc64-ps3-elf/lib/libc.a(lib_a-fclose.o)
 .debug_info    0x0000000000005e0c      0xdc4 /usr/local/ps3dev/ppu/lib/gcc/powerpc64-ps3-elf/7.2.0/../../../../powerpc64-ps3-elf/lib/libc.a(lib_a-fflush.o)
 .debug_info    0x0000000000006bd0     0x128a /usr/local/ps3dev/ppu/lib/gcc/powerpc64-ps3-elf/7.2.0/../../../../powerpc64-ps3-elf/lib/libc.a(lib_a-findfp.o)
 .debug_info    0x0000000000007e5a      0xd3f /usr/local/ps3dev/ppu/lib/gcc/powerpc64-ps3-elf/7.2.0/../../../../powerpc64-ps3-elf/lib/libc.a(lib_a-fopen.o)
 .debug_info    0x0000000000008b99      0xdbc /usr/local/ps3dev/ppu/lib/gcc/powerpc64-ps3-elf/7.2.0/../../../../powerpc64-ps3-elf/lib/libc.a(lib_a-fread.o)
 .debug_info    0x0000000000009955      0xd57 /usr/local/ps3dev/ppu/lib/gcc/powerpc64-ps3-elf/7.2.0/../../../../powerpc64-ps3-elf/lib/libc.a(lib_a-freer.o)
 .debug_info    0x000000000000a6ac     0x109b /usr/local/ps3dev/ppu/lib/gcc/powerpc64-ps3-elf/7.2.0/../../../../powerpc64-ps3-elf/lib/libc.a(lib_a-fseek.o)
 .debug_info    0x000000000000b747      0xc63 /usr/local/ps3dev/ppu/lib/gcc/powerpc64-ps3-elf/7.2.0/../../../../powerpc64-ps3-elf/lib/libc.a(lib_a-ftell.o)
 .debug_info    0x000000000000c3aa      0xc3e /usr/local/ps3dev/ppu/lib/gcc/powerpc64-ps3-elf/7.2.0/../../../../powerpc64-ps3-elf/lib/libc.a(lib_a-fwalk.o)
 .debug_info    0x000000000000cfe8      0x9bd /usr/local/ps3dev/ppu/lib/gcc/powerpc64-ps3-elf/7.2.0/../../../../powerpc64-ps3-elf/lib/libc.a(lib_a-getreent.o)
 .debug_info    0x000000000000d9a5      0x906 /usr/local/ps3dev/ppu/lib/gcc/powerpc64-ps3-elf/7.2.0/../../../../powerpc64-ps3-elf/lib/libc.a(lib_a-impure.o)
 .debug_info    0x000000000000e2ab      0xb4f /usr/local/ps3dev/ppu/lib/gcc/powerpc64-ps3-elf/7.2.0/../../../../powerpc64-ps3-elf/lib/libc.a(lib_a-lock_recursive.o)
 .debug_info    0x000000000000edfa      0xd77 /usr/local/ps3dev/ppu/lib/gcc/powerpc64-ps3-elf/7.2.0/../../../../powerpc64-ps3-elf/lib/libc.a(lib_a-makebuf.o)
 .debug_info    0x000000000000fb71      0x973 /usr/local/ps3dev/ppu/lib/gcc/powerpc64-ps3-elf/7.2.0/../../../../powerpc64-ps3-elf/lib/libc.a(lib_a-malign.o)
 .debug_info    0x00000000000104e4      0xc63 /usr/local/ps3dev/ppu/lib/gcc/powerpc64-ps3-elf/7.2.0/../../../../powerpc64-ps3-elf/lib/libc.a(lib_a-malignr.o)
 .debug_info    0x0000000000011147      0x9b7 /usr/local/ps3dev/ppu/lib/gcc/powerpc64-ps3-elf/7.2.0/../../../../powerpc64-ps3-elf/lib/libc.a(lib_a-malloc.o)
 .debug_info    0x0000000000011afe      0xeac /usr/local/ps3dev/ppu/lib/gcc/powerpc64-ps3-elf/7.2.0/../../../../powerpc64-ps3-elf/lib/libc.a(lib_a-mallocr.o)
 .debug_info    0x00000000000129aa      0x98b /usr/local/ps3dev/ppu/lib/gcc/powerpc64-ps3-elf/7.2.0/../../../../powerpc64-ps3-elf/lib/libc.a(lib_a-memcpy.o)
 .debug_info    0x0000000000013335      0x97c /usr/local/ps3dev/ppu/lib/gcc/powerpc64-ps3-elf/7.2.0/../../../../powerpc64-ps3-elf/lib/libc.a(lib_a-memset.o)
 .debug_info    0x0000000000013cb1      0x99a /usr/local/ps3dev/ppu/lib/gcc/powerpc64-ps3-elf/7.2.0/../../../../powerpc64-ps3-elf/lib/libc.a(lib_a-mlock.o)
 .debug_info    0x000000000001464b      0xbfa /usr/local/ps3dev/ppu/lib/gcc/powerpc64-ps3-elf/7.2.0/../../../../powerpc64-ps3-elf/lib/libc.a(lib_a-printf.o)
 .debug_info    0x0000000000015245      0xc75 /usr/local/ps3dev/ppu/lib/gcc/powerpc64-ps3-elf/7.2.0/../../../../powerpc64-ps3-elf/lib/libc.a(lib_a-puts.o)
 .debug_info    0x0000000000015eba      0x972 /usr/local/ps3dev/ppu/lib/gcc/powerpc64-ps3-elf/7.2.0/../../../../powerpc64-ps3-elf/lib/libc.a(lib_a-realloc.o)
 .debug_info    0x000000000001682c      0xe68 /usr/local/ps3dev/ppu/lib/gcc/powerpc64-ps3-elf/7.2.0/../../../../powerpc64-ps3-elf/lib/libc.a(lib_a-reallocr.o)
 .debug_info    0x0000000000017694      0xc94 /usr/local/ps3dev/ppu/lib/gcc/powerpc64-ps3-elf/7.2.0/../../../../powerpc64-ps3-elf/lib/libc.a(lib_a-refill.o)
 .debug_info    0x0000000000018328      0xa06 /usr/local/ps3dev/ppu/lib/gcc/powerpc64-ps3-elf/7.2.0/../../../../powerpc64-ps3-elf/lib/libc.a(lib_a-rewind.o)
 .debug_info    0x0000000000018d2e      0xc83 /usr/local/ps3dev/ppu/lib/gcc/powerpc64-ps3-elf/7.2.0/../../../../powerpc64-ps3-elf/lib/libc.a(lib_a-sscanf.o)
 .debug_info    0x00000000000199b1      0xdd2 /usr/local/ps3dev/ppu/lib/gcc/powerpc64-ps3-elf/7.2.0/../../../../powerpc64-ps3-elf/lib/libc.a(lib_a-stdio.o)
 .debug_info    0x000000000001a783      0x9ea /usr/local/ps3dev/ppu/lib/gcc/powerpc64-ps3-elf/7.2.0/../../../../powerpc64-ps3-elf/lib/libc.a(lib_a-strcasecmp.o)
 .debug_info    0x000000000001b16d      0x970 /usr/local/ps3dev/ppu/lib/gcc/powerpc64-ps3-elf/7.2.0/../../../../powerpc64-ps3-elf/lib/libc.a(lib_a-strchr.o)
 .debug_info    0x000000000001badd      0x96a /usr/local/ps3dev/ppu/lib/gcc/powerpc64-ps3-elf/7.2.0/../../../../powerpc64-ps3-elf/lib/libc.a(lib_a-strcpy.o)
 .debug_info    0x000000000001c447      0x953 /usr/local/ps3dev/ppu/lib/gcc/powerpc64-ps3-elf/7.2.0/../../../../powerpc64-ps3-elf/lib/libc.a(lib_a-strdup.o)
 .debug_info    0x000000000001cd9a      0x9ca /usr/local/ps3dev/ppu/lib/gcc/powerpc64-ps3-elf/7.2.0/../../../../powerpc64-ps3-elf/lib/libc.a(lib_a-strdup_r.o)
 .debug_info    0x000000000001d764      0x93f /usr/local/ps3dev/ppu/lib/gcc/powerpc64-ps3-elf/7.2.0/../../../../powerpc64-ps3-elf/lib/libc.a(lib_a-strlen.o)
 .debug_info    0x000000000001e0a3      0x967 /usr/local/ps3dev/ppu/lib/gcc/powerpc64-ps3-elf/7.2.0/../../../../powerpc64-ps3-elf/lib/libc.a(lib_a-strncat.o)
 .debug_info    0x000000000001ea0a      0x980 /usr/local/ps3dev/ppu/lib/gcc/powerpc64-ps3-elf/7.2.0/../../../../powerpc64-ps3-elf/lib/libc.a(lib_a-strncpy.o)
 .debug_info    0x000000000001f38a     0x161b /usr/local/ps3dev/ppu/lib/gcc/powerpc64-ps3-elf/7.2.0/../../../../powerpc64-ps3-elf/lib/libc.a(lib_a-svfscanf.o)
 .debug_info    0x00000000000209a5      0x9a2 /usr/local/ps3dev/ppu/lib/gcc/powerpc64-ps3-elf/7.2.0/../../../../powerpc64-ps3-elf/lib/libc.a(lib_a-time.o)
 .debug_info    0x0000000000021347     0x1be0 /usr/local/ps3dev/ppu/lib/gcc/powerpc64-ps3-elf/7.2.0/../../../../powerpc64-ps3-elf/lib/libc.a(lib_a-vfprintf.o)
 .debug_info    0x0000000000022f27      0xbd1 /usr/local/ps3dev/ppu/lib/gcc/powerpc64-ps3-elf/7.2.0/../../../../powerpc64-ps3-elf/lib/libc.a(lib_a-wsetup.o)
 .debug_info    0x0000000000023af8      0xa23 /usr/local/ps3dev/ppu/lib/gcc/powerpc64-ps3-elf/7.2.0/../../../../powerpc64-ps3-elf/lib/libc.a(lib_a-__call_atexit.o)
 .debug_info    0x000000000002451b       0x7b /usr/local/ps3dev/ppu/lib/gcc/powerpc64-ps3-elf/7.2.0/../../../../powerpc64-ps3-elf/lib/libc.a(lib_a-ctype_.o)
 .debug_info    0x0000000000024596     0x143a /usr/local/ps3dev/ppu/lib/gcc/powerpc64-ps3-elf/7.2.0/../../../../powerpc64-ps3-elf/lib/libc.a(lib_a-dtoa.o)
 .debug_info    0x00000000000259d0      0x9bc /usr/local/ps3dev/ppu/lib/gcc/powerpc64-ps3-elf/7.2.0/../../../../powerpc64-ps3-elf/lib/libc.a(lib_a-flags.o)
 .debug_info    0x000000000002638c      0xe9d /usr/local/ps3dev/ppu/lib/gcc/powerpc64-ps3-elf/7.2.0/../../../../powerpc64-ps3-elf/lib/libc.a(lib_a-fvwrite.o)
 .debug_info    0x0000000000027229      0x930 /usr/local/ps3dev/ppu/lib/gcc/powerpc64-ps3-elf/7.2.0/../../../../powerpc64-ps3-elf/lib/libc.a(lib_a-iswspace.o)
 .debug_info    0x0000000000027b59      0xe27 /usr/local/ps3dev/ppu/lib/gcc/powerpc64-ps3-elf/7.2.0/../../../../powerpc64-ps3-elf/lib/libc.a(lib_a-locale.o)
 .debug_info    0x0000000000028980      0xa84 /usr/local/ps3dev/ppu/lib/gcc/powerpc64-ps3-elf/7.2.0/../../../../powerpc64-ps3-elf/lib/libc.a(lib_a-lock_internal.o)
 .debug_info    0x0000000000029404      0xbfd /usr/local/ps3dev/ppu/lib/gcc/powerpc64-ps3-elf/7.2.0/../../../../powerpc64-ps3-elf/lib/libc.a(lib_a-mbrtowc.o)
 .debug_info    0x000000000002a001      0xb2f /usr/local/ps3dev/ppu/lib/gcc/powerpc64-ps3-elf/7.2.0/../../../../powerpc64-ps3-elf/lib/libc.a(lib_a-mbtowc_r.o)
 .debug_info    0x000000000002ab30      0x994 /usr/local/ps3dev/ppu/lib/gcc/powerpc64-ps3-elf/7.2.0/../../../../powerpc64-ps3-elf/lib/libc.a(lib_a-memchr.o)
 .debug_info    0x000000000002b4c4      0x992 /usr/local/ps3dev/ppu/lib/gcc/powerpc64-ps3-elf/7.2.0/../../../../powerpc64-ps3-elf/lib/libc.a(lib_a-memmove.o)
 .debug_info    0x000000000002be56     0x18d9 /usr/local/ps3dev/ppu/lib/gcc/powerpc64-ps3-elf/7.2.0/../../../../powerpc64-ps3-elf/lib/libc.a(lib_a-mprec.o)
 .debug_info    0x000000000002d72f      0xb46 /usr/local/ps3dev/ppu/lib/gcc/powerpc64-ps3-elf/7.2.0/../../../../powerpc64-ps3-elf/lib/libc.a(lib_a-sccl.o)
 .debug_info    0x000000000002e275      0x9ab /usr/local/ps3dev/ppu/lib/gcc/powerpc64-ps3-elf/7.2.0/../../../../powerpc64-ps3-elf/lib/libc.a(lib_a-sf_nan.o)
 .debug_info    0x000000000002ec20      0x9dc /usr/local/ps3dev/ppu/lib/gcc/powerpc64-ps3-elf/7.2.0/../../../../powerpc64-ps3-elf/lib/libc.a(lib_a-s_fpclassify.o)
 .debug_info    0x000000000002f5fc      0xc47 /usr/local/ps3dev/ppu/lib/gcc/powerpc64-ps3-elf/7.2.0/../../../../powerpc64-ps3-elf/lib/libc.a(lib_a-sprintf.o)
 .debug_info    0x0000000000030243      0x93f /usr/local/ps3dev/ppu/lib/gcc/powerpc64-ps3-elf/7.2.0/../../../../powerpc64-ps3-elf/lib/libc.a(lib_a-strcmp.o)
 .debug_info    0x0000000000030b82     0x16ed /usr/local/ps3dev/ppu/lib/gcc/powerpc64-ps3-elf/7.2.0/../../../../powerpc64-ps3-elf/lib/libc.a(lib_a-strtod.o)
 .debug_info    0x000000000003226f      0xa0d /usr/local/ps3dev/ppu/lib/gcc/powerpc64-ps3-elf/7.2.0/../../../../powerpc64-ps3-elf/lib/libc.a(lib_a-strtoll_r.o)
 .debug_info    0x0000000000032c7c      0xa8f /usr/local/ps3dev/ppu/lib/gcc/powerpc64-ps3-elf/7.2.0/../../../../powerpc64-ps3-elf/lib/libc.a(lib_a-strtol.o)
 .debug_info    0x000000000003370b      0xa0d /usr/local/ps3dev/ppu/lib/gcc/powerpc64-ps3-elf/7.2.0/../../../../powerpc64-ps3-elf/lib/libc.a(lib_a-strtoull_r.o)
 .debug_info    0x0000000000034118      0xa8f /usr/local/ps3dev/ppu/lib/gcc/powerpc64-ps3-elf/7.2.0/../../../../powerpc64-ps3-elf/lib/libc.a(lib_a-strtoul.o)
 .debug_info    0x0000000000034ba7     0x1511 /usr/local/ps3dev/ppu/lib/gcc/powerpc64-ps3-elf/7.2.0/../../../../powerpc64-ps3-elf/lib/libc.a(lib_a-svfiscanf.o)
 .debug_info    0x00000000000360b8     0x191f /usr/local/ps3dev/ppu/lib/gcc/powerpc64-ps3-elf/7.2.0/../../../../powerpc64-ps3-elf/lib/libc.a(lib_a-svfprintf.o)
 .debug_info    0x00000000000379d7      0xd6f /usr/local/ps3dev/ppu/lib/gcc/powerpc64-ps3-elf/7.2.0/../../../../powerpc64-ps3-elf/lib/libc.a(lib_a-ungetc.o)
 .debug_info    0x0000000000038746     0x1986 /usr/local/ps3dev/ppu/lib/gcc/powerpc64-ps3-elf/7.2.0/../../../../powerpc64-ps3-elf/lib/libc.a(lib_a-vfiprintf.o)
 .debug_info    0x000000000003a0cc      0x997 /usr/local/ps3dev/ppu/lib/gcc/powerpc64-ps3-elf/7.2.0/../../../../powerpc64-ps3-elf/lib/libc.a(lib_a-abort.o)
 .debug_info    0x000000000003aa63      0xa25 /usr/local/ps3dev/ppu/lib/gcc/powerpc64-ps3-elf/7.2.0/../../../../powerpc64-ps3-elf/lib/libc.a(lib_a-__atexit.o)
 .debug_info    0x000000000003b488      0xd9d /usr/local/ps3dev/ppu/lib/gcc/powerpc64-ps3-elf/7.2.0/../../../../powerpc64-ps3-elf/lib/libc.a(lib_a-fputwc.o)
 .debug_info    0x000000000003c225     0x11a9 /usr/local/ps3dev/ppu/lib/gcc/powerpc64-ps3-elf/7.2.0/../../../../powerpc64-ps3-elf/lib/libc.a(lib_a-gdtoa-gethex.o)
 .debug_info    0x000000000003d3ce      0xc30 /usr/local/ps3dev/ppu/lib/gcc/powerpc64-ps3-elf/7.2.0/../../../../powerpc64-ps3-elf/lib/libc.a(lib_a-gdtoa-hexnan.o)
 .debug_info    0x000000000003dffe      0xe73 /usr/local/ps3dev/ppu/lib/gcc/powerpc64-ps3-elf/7.2.0/../../../../powerpc64-ps3-elf/lib/libc.a(lib_a-signal.o)
 .debug_info    0x000000000003ee71      0x957 /usr/local/ps3dev/ppu/lib/gcc/powerpc64-ps3-elf/7.2.0/../../../../powerpc64-ps3-elf/lib/libc.a(lib_a-strncmp.o)
 .debug_info    0x000000000003f7c8     0x1382 /usr/local/ps3dev/ppu/lib/gcc/powerpc64-ps3-elf/7.2.0/../../../../powerpc64-ps3-elf/lib/libc.a(lib_a-svfiprintf.o)
 .debug_info    0x0000000000040b4a      0xc49 /usr/local/ps3dev/ppu/lib/gcc/powerpc64-ps3-elf/7.2.0/../../../../powerpc64-ps3-elf/lib/libc.a(lib_a-wbuf.o)
 .debug_info    0x0000000000041793      0xbe9 /usr/local/ps3dev/ppu/lib/gcc/powerpc64-ps3-elf/7.2.0/../../../../powerpc64-ps3-elf/lib/libc.a(lib_a-wcrtomb.o)
 .debug_info    0x000000000004237c      0xb03 /usr/local/ps3dev/ppu/lib/gcc/powerpc64-ps3-elf/7.2.0/../../../../powerpc64-ps3-elf/lib/libc.a(lib_a-wctomb_r.o)
 .debug_info    0x0000000000042e7f     0x1461 /usr/local/ps3dev/ppu/lib/gcc/powerpc64-ps3-elf/7.2.0/../../../../powerpc64-ps3-elf/lib/libsysbase.a(close.o)
 .debug_info    0x00000000000442e0     0x1469 /usr/local/ps3dev/ppu/lib/gcc/powerpc64-ps3-elf/7.2.0/../../../../powerpc64-ps3-elf/lib/libsysbase.a(sbrk.o)
 .debug_info    0x0000000000045749     0x1412 /usr/local/ps3dev/ppu/lib/gcc/powerpc64-ps3-elf/7.2.0/../../../../powerpc64-ps3-elf/lib/libsysbase.a(_exit.o)
 .debug_info    0x0000000000046b5b     0x1474 /usr/local/ps3dev/ppu/lib/gcc/powerpc64-ps3-elf/7.2.0/../../../../powerpc64-ps3-elf/lib/libsysbase.a(fstat.o)
 .debug_info    0x0000000000047fcf     0x1461 /usr/local/ps3dev/ppu/lib/gcc/powerpc64-ps3-elf/7.2.0/../../../../powerpc64-ps3-elf/lib/libsysbase.a(isatty.o)
 .debug_info    0x0000000000049430     0x1484 /usr/local/ps3dev/ppu/lib/gcc/powerpc64-ps3-elf/7.2.0/../../../../powerpc64-ps3-elf/lib/libsysbase.a(lseek.o)
 .debug_info    0x000000000004a8b4     0x14ab /usr/local/ps3dev/ppu/lib/gcc/powerpc64-ps3-elf/7.2.0/../../../../powerpc64-ps3-elf/lib/libsysbase.a(open.o)
 .debug_info    0x000000000004bd5f     0x148b /usr/local/ps3dev/ppu/lib/gcc/powerpc64-ps3-elf/7.2.0/../../../../powerpc64-ps3-elf/lib/libsysbase.a(read.o)
 .debug_info    0x000000000004d1ea     0x148b /usr/local/ps3dev/ppu/lib/gcc/powerpc64-ps3-elf/7.2.0/../../../../powerpc64-ps3-elf/lib/libsysbase.a(write.o)
 .debug_info    0x000000000004e675     0x1612 /usr/local/ps3dev/ppu/lib/gcc/powerpc64-ps3-elf/7.2.0/../../../../powerpc64-ps3-elf/lib/libsysbase.a(lock.o)
 .debug_info    0x000000000004fc87     0x1453 /usr/local/ps3dev/ppu/lib/gcc/powerpc64-ps3-elf/7.2.0/../../../../powerpc64-ps3-elf/lib/libsysbase.a(getpid.o)
 .debug_info    0x00000000000510da      0x94f /usr/local/ps3dev/ppu/lib/gcc/powerpc64-ps3-elf/7.2.0/../../../../powerpc64-ps3-elf/lib/libsysbase.a(kill.o)
 .debug_info    0x0000000000051a29     0x147d /usr/local/ps3dev/ppu/lib/gcc/powerpc64-ps3-elf/7.2.0/../../../../powerpc64-ps3-elf/lib/libsysbase.a(gettod.o)

.debug_abbrev   0x0000000000000000     0xe051
 *(.debug_abbrev)
 .debug_abbrev  0x0000000000000000      0x1d4 /usr/local/ps3dev/ppu/lib/gcc/powerpc64-ps3-elf/7.2.0/../../../../powerpc64-ps3-elf/lib/libsysbase.a(syscalls.o)
 .debug_abbrev  0x00000000000001d4      0x24e /usr/local/ps3dev/ppu/lib/gcc/powerpc64-ps3-elf/7.2.0/../../../../powerpc64-ps3-elf/lib/libsysbase.a(sleep.o)
 .debug_abbrev  0x0000000000000422      0x211 /usr/local/ps3dev/ppu/lib/gcc/powerpc64-ps3-elf/7.2.0/../../../../powerpc64-ps3-elf/lib/libc.a(lib_a-calloc.o)
 .debug_abbrev  0x0000000000000633      0x239 /usr/local/ps3dev/ppu/lib/gcc/powerpc64-ps3-elf/7.2.0/../../../../powerpc64-ps3-elf/lib/libc.a(lib_a-callocr.o)
 .debug_abbrev  0x000000000000086c      0x1d0 /usr/local/ps3dev/ppu/lib/gcc/powerpc64-ps3-elf/7.2.0/../../../../powerpc64-ps3-elf/lib/libc.a(lib_a-errno.o)
 .debug_abbrev  0x0000000000000a3c      0x1f4 /usr/local/ps3dev/ppu/lib/gcc/powerpc64-ps3-elf/7.2.0/../../../../powerpc64-ps3-elf/lib/libc.a(lib_a-exit.o)
 .debug_abbrev  0x0000000000000c30      0x2c4 /usr/local/ps3dev/ppu/lib/gcc/powerpc64-ps3-elf/7.2.0/../../../../powerpc64-ps3-elf/lib/libc.a(lib_a-fclose.o)
 .debug_abbrev  0x0000000000000ef4      0x2ee /usr/local/ps3dev/ppu/lib/gcc/powerpc64-ps3-elf/7.2.0/../../../../powerpc64-ps3-elf/lib/libc.a(lib_a-fflush.o)
 .debug_abbrev  0x00000000000011e2      0x3ab /usr/local/ps3dev/ppu/lib/gcc/powerpc64-ps3-elf/7.2.0/../../../../powerpc64-ps3-elf/lib/libc.a(lib_a-findfp.o)
 .debug_abbrev  0x000000000000158d      0x292 /usr/local/ps3dev/ppu/lib/gcc/powerpc64-ps3-elf/7.2.0/../../../../powerpc64-ps3-elf/lib/libc.a(lib_a-fopen.o)
 .debug_abbrev  0x000000000000181f      0x2ae /usr/local/ps3dev/ppu/lib/gcc/powerpc64-ps3-elf/7.2.0/../../../../powerpc64-ps3-elf/lib/libc.a(lib_a-fread.o)
 .debug_abbrev  0x0000000000001acd      0x277 /usr/local/ps3dev/ppu/lib/gcc/powerpc64-ps3-elf/7.2.0/../../../../powerpc64-ps3-elf/lib/libc.a(lib_a-freer.o)
 .debug_abbrev  0x0000000000001d44      0x2eb /usr/local/ps3dev/ppu/lib/gcc/powerpc64-ps3-elf/7.2.0/../../../../powerpc64-ps3-elf/lib/libc.a(lib_a-fseek.o)
 .debug_abbrev  0x000000000000202f      0x27b /usr/local/ps3dev/ppu/lib/gcc/powerpc64-ps3-elf/7.2.0/../../../../powerpc64-ps3-elf/lib/libc.a(lib_a-ftell.o)
 .debug_abbrev  0x00000000000022aa      0x219 /usr/local/ps3dev/ppu/lib/gcc/powerpc64-ps3-elf/7.2.0/../../../../powerpc64-ps3-elf/lib/libc.a(lib_a-fwalk.o)
 .debug_abbrev  0x00000000000024c3      0x210 /usr/local/ps3dev/ppu/lib/gcc/powerpc64-ps3-elf/7.2.0/../../../../powerpc64-ps3-elf/lib/libc.a(lib_a-getreent.o)
 .debug_abbrev  0x00000000000026d3      0x196 /usr/local/ps3dev/ppu/lib/gcc/powerpc64-ps3-elf/7.2.0/../../../../powerpc64-ps3-elf/lib/libc.a(lib_a-impure.o)
 .debug_abbrev  0x0000000000002869      0x202 /usr/local/ps3dev/ppu/lib/gcc/powerpc64-ps3-elf/7.2.0/../../../../powerpc64-ps3-elf/lib/libc.a(lib_a-lock_recursive.o)
 .debug_abbrev  0x0000000000002a6b      0x241 /usr/local/ps3dev/ppu/lib/gcc/powerpc64-ps3-elf/7.2.0/../../../../powerpc64-ps3-elf/lib/libc.a(lib_a-makebuf.o)
 .debug_abbrev  0x0000000000002cac      0x202 /usr/local/ps3dev/ppu/lib/gcc/powerpc64-ps3-elf/7.2.0/../../../../powerpc64-ps3-elf/lib/libc.a(lib_a-malign.o)
 .debug_abbrev  0x0000000000002eae      0x22e /usr/local/ps3dev/ppu/lib/gcc/powerpc64-ps3-elf/7.2.0/../../../../powerpc64-ps3-elf/lib/libc.a(lib_a-malignr.o)
 .debug_abbrev  0x00000000000030dc      0x21c /usr/local/ps3dev/ppu/lib/gcc/powerpc64-ps3-elf/7.2.0/../../../../powerpc64-ps3-elf/lib/libc.a(lib_a-malloc.o)
 .debug_abbrev  0x00000000000032f8      0x2d1 /usr/local/ps3dev/ppu/lib/gcc/powerpc64-ps3-elf/7.2.0/../../../../powerpc64-ps3-elf/lib/libc.a(lib_a-mallocr.o)
 .debug_abbrev  0x00000000000035c9      0x1df /usr/local/ps3dev/ppu/lib/gcc/powerpc64-ps3-elf/7.2.0/../../../../powerpc64-ps3-elf/lib/libc.a(lib_a-memcpy.o)
 .debug_abbrev  0x00000000000037a8      0x1da /usr/local/ps3dev/ppu/lib/gcc/powerpc64-ps3-elf/7.2.0/../../../../powerpc64-ps3-elf/lib/libc.a(lib_a-memset.o)
 .debug_abbrev  0x0000000000003982      0x1e0 /usr/local/ps3dev/ppu/lib/gcc/powerpc64-ps3-elf/7.2.0/../../../../powerpc64-ps3-elf/lib/libc.a(lib_a-mlock.o)
 .debug_abbrev  0x0000000000003b62      0x25e /usr/local/ps3dev/ppu/lib/gcc/powerpc64-ps3-elf/7.2.0/../../../../powerpc64-ps3-elf/lib/libc.a(lib_a-printf.o)
 .debug_abbrev  0x0000000000003dc0      0x274 /usr/local/ps3dev/ppu/lib/gcc/powerpc64-ps3-elf/7.2.0/../../../../powerpc64-ps3-elf/lib/libc.a(lib_a-puts.o)
 .debug_abbrev  0x0000000000004034      0x211 /usr/local/ps3dev/ppu/lib/gcc/powerpc64-ps3-elf/7.2.0/../../../../powerpc64-ps3-elf/lib/libc.a(lib_a-realloc.o)
 .debug_abbrev  0x0000000000004245      0x256 /usr/local/ps3dev/ppu/lib/gcc/powerpc64-ps3-elf/7.2.0/../../../../powerpc64-ps3-elf/lib/libc.a(lib_a-reallocr.o)
 .debug_abbrev  0x000000000000449b      0x276 /usr/local/ps3dev/ppu/lib/gcc/powerpc64-ps3-elf/7.2.0/../../../../powerpc64-ps3-elf/lib/libc.a(lib_a-refill.o)
 .debug_abbrev  0x0000000000004711      0x22a /usr/local/ps3dev/ppu/lib/gcc/powerpc64-ps3-elf/7.2.0/../../../../powerpc64-ps3-elf/lib/libc.a(lib_a-rewind.o)
 .debug_abbrev  0x000000000000493b      0x27c /usr/local/ps3dev/ppu/lib/gcc/powerpc64-ps3-elf/7.2.0/../../../../powerpc64-ps3-elf/lib/libc.a(lib_a-sscanf.o)
 .debug_abbrev  0x0000000000004bb7      0x261 /usr/local/ps3dev/ppu/lib/gcc/powerpc64-ps3-elf/7.2.0/../../../../powerpc64-ps3-elf/lib/libc.a(lib_a-stdio.o)
 .debug_abbrev  0x0000000000004e18      0x20b /usr/local/ps3dev/ppu/lib/gcc/powerpc64-ps3-elf/7.2.0/../../../../powerpc64-ps3-elf/lib/libc.a(lib_a-strcasecmp.o)
 .debug_abbrev  0x0000000000005023      0x1da /usr/local/ps3dev/ppu/lib/gcc/powerpc64-ps3-elf/7.2.0/../../../../powerpc64-ps3-elf/lib/libc.a(lib_a-strchr.o)
 .debug_abbrev  0x00000000000051fd      0x1da /usr/local/ps3dev/ppu/lib/gcc/powerpc64-ps3-elf/7.2.0/../../../../powerpc64-ps3-elf/lib/libc.a(lib_a-strcpy.o)
 .debug_abbrev  0x00000000000053d7      0x202 /usr/local/ps3dev/ppu/lib/gcc/powerpc64-ps3-elf/7.2.0/../../../../powerpc64-ps3-elf/lib/libc.a(lib_a-strdup.o)
 .debug_abbrev  0x00000000000055d9      0x220 /usr/local/ps3dev/ppu/lib/gcc/powerpc64-ps3-elf/7.2.0/../../../../powerpc64-ps3-elf/lib/libc.a(lib_a-strdup_r.o)
 .debug_abbrev  0x00000000000057f9      0x1bc /usr/local/ps3dev/ppu/lib/gcc/powerpc64-ps3-elf/7.2.0/../../../../powerpc64-ps3-elf/lib/libc.a(lib_a-strlen.o)
 .debug_abbrev  0x00000000000059b5      0x1d4 /usr/local/ps3dev/ppu/lib/gcc/powerpc64-ps3-elf/7.2.0/../../../../powerpc64-ps3-elf/lib/libc.a(lib_a-strncat.o)
 .debug_abbrev  0x0000000000005b89      0x1e7 /usr/local/ps3dev/ppu/lib/gcc/powerpc64-ps3-elf/7.2.0/../../../../powerpc64-ps3-elf/lib/libc.a(lib_a-strncpy.o)
 .debug_abbrev  0x0000000000005d70      0x329 /usr/local/ps3dev/ppu/lib/gcc/powerpc64-ps3-elf/7.2.0/../../../../powerpc64-ps3-elf/lib/libc.a(lib_a-svfscanf.o)
 .debug_abbrev  0x0000000000006099      0x200 /usr/local/ps3dev/ppu/lib/gcc/powerpc64-ps3-elf/7.2.0/../../../../powerpc64-ps3-elf/lib/libc.a(lib_a-time.o)
 .debug_abbrev  0x0000000000006299      0x400 /usr/local/ps3dev/ppu/lib/gcc/powerpc64-ps3-elf/7.2.0/../../../../powerpc64-ps3-elf/lib/libc.a(lib_a-vfprintf.o)
 .debug_abbrev  0x0000000000006699      0x22c /usr/local/ps3dev/ppu/lib/gcc/powerpc64-ps3-elf/7.2.0/../../../../powerpc64-ps3-elf/lib/libc.a(lib_a-wsetup.o)
 .debug_abbrev  0x00000000000068c5      0x23b /usr/local/ps3dev/ppu/lib/gcc/powerpc64-ps3-elf/7.2.0/../../../../powerpc64-ps3-elf/lib/libc.a(lib_a-__call_atexit.o)
 .debug_abbrev  0x0000000000006b00       0x53 /usr/local/ps3dev/ppu/lib/gcc/powerpc64-ps3-elf/7.2.0/../../../../powerpc64-ps3-elf/lib/libc.a(lib_a-ctype_.o)
 .debug_abbrev  0x0000000000006b53      0x2d4 /usr/local/ps3dev/ppu/lib/gcc/powerpc64-ps3-elf/7.2.0/../../../../powerpc64-ps3-elf/lib/libc.a(lib_a-dtoa.o)
 .debug_abbrev  0x0000000000006e27      0x1e1 /usr/local/ps3dev/ppu/lib/gcc/powerpc64-ps3-elf/7.2.0/../../../../powerpc64-ps3-elf/lib/libc.a(lib_a-flags.o)
 .debug_abbrev  0x0000000000007008      0x270 /usr/local/ps3dev/ppu/lib/gcc/powerpc64-ps3-elf/7.2.0/../../../../powerpc64-ps3-elf/lib/libc.a(lib_a-fvwrite.o)
 .debug_abbrev  0x0000000000007278      0x1c1 /usr/local/ps3dev/ppu/lib/gcc/powerpc64-ps3-elf/7.2.0/../../../../powerpc64-ps3-elf/lib/libc.a(lib_a-iswspace.o)
 .debug_abbrev  0x0000000000007439      0x2e7 /usr/local/ps3dev/ppu/lib/gcc/powerpc64-ps3-elf/7.2.0/../../../../powerpc64-ps3-elf/lib/libc.a(lib_a-locale.o)
 .debug_abbrev  0x0000000000007720      0x218 /usr/local/ps3dev/ppu/lib/gcc/powerpc64-ps3-elf/7.2.0/../../../../powerpc64-ps3-elf/lib/libc.a(lib_a-lock_internal.o)
 .debug_abbrev  0x0000000000007938      0x21f /usr/local/ps3dev/ppu/lib/gcc/powerpc64-ps3-elf/7.2.0/../../../../powerpc64-ps3-elf/lib/libc.a(lib_a-mbrtowc.o)
 .debug_abbrev  0x0000000000007b57      0x24c /usr/local/ps3dev/ppu/lib/gcc/powerpc64-ps3-elf/7.2.0/../../../../powerpc64-ps3-elf/lib/libc.a(lib_a-mbtowc_r.o)
 .debug_abbrev  0x0000000000007da3      0x1ee /usr/local/ps3dev/ppu/lib/gcc/powerpc64-ps3-elf/7.2.0/../../../../powerpc64-ps3-elf/lib/libc.a(lib_a-memchr.o)
 .debug_abbrev  0x0000000000007f91      0x1df /usr/local/ps3dev/ppu/lib/gcc/powerpc64-ps3-elf/7.2.0/../../../../powerpc64-ps3-elf/lib/libc.a(lib_a-memmove.o)
 .debug_abbrev  0x0000000000008170      0x3a3 /usr/local/ps3dev/ppu/lib/gcc/powerpc64-ps3-elf/7.2.0/../../../../powerpc64-ps3-elf/lib/libc.a(lib_a-mprec.o)
 .debug_abbrev  0x0000000000008513      0x1fd /usr/local/ps3dev/ppu/lib/gcc/powerpc64-ps3-elf/7.2.0/../../../../powerpc64-ps3-elf/lib/libc.a(lib_a-sccl.o)
 .debug_abbrev  0x0000000000008710      0x1fe /usr/local/ps3dev/ppu/lib/gcc/powerpc64-ps3-elf/7.2.0/../../../../powerpc64-ps3-elf/lib/libc.a(lib_a-sf_nan.o)
 .debug_abbrev  0x000000000000890e      0x200 /usr/local/ps3dev/ppu/lib/gcc/powerpc64-ps3-elf/7.2.0/../../../../powerpc64-ps3-elf/lib/libc.a(lib_a-s_fpclassify.o)
 .debug_abbrev  0x0000000000008b0e      0x26f /usr/local/ps3dev/ppu/lib/gcc/powerpc64-ps3-elf/7.2.0/../../../../powerpc64-ps3-elf/lib/libc.a(lib_a-sprintf.o)
 .debug_abbrev  0x0000000000008d7d      0x1bc /usr/local/ps3dev/ppu/lib/gcc/powerpc64-ps3-elf/7.2.0/../../../../powerpc64-ps3-elf/lib/libc.a(lib_a-strcmp.o)
 .debug_abbrev  0x0000000000008f39      0x3c3 /usr/local/ps3dev/ppu/lib/gcc/powerpc64-ps3-elf/7.2.0/../../../../powerpc64-ps3-elf/lib/libc.a(lib_a-strtod.o)
 .debug_abbrev  0x00000000000092fc      0x1f0 /usr/local/ps3dev/ppu/lib/gcc/powerpc64-ps3-elf/7.2.0/../../../../powerpc64-ps3-elf/lib/libc.a(lib_a-strtoll_r.o)
 .debug_abbrev  0x00000000000094ec      0x235 /usr/local/ps3dev/ppu/lib/gcc/powerpc64-ps3-elf/7.2.0/../../../../powerpc64-ps3-elf/lib/libc.a(lib_a-strtol.o)
 .debug_abbrev  0x0000000000009721      0x1f0 /usr/local/ps3dev/ppu/lib/gcc/powerpc64-ps3-elf/7.2.0/../../../../powerpc64-ps3-elf/lib/libc.a(lib_a-strtoull_r.o)
 .debug_abbrev  0x0000000000009911      0x235 /usr/local/ps3dev/ppu/lib/gcc/powerpc64-ps3-elf/7.2.0/../../../../powerpc64-ps3-elf/lib/libc.a(lib_a-strtoul.o)
 .debug_abbrev  0x0000000000009b46      0x33d /usr/local/ps3dev/ppu/lib/gcc/powerpc64-ps3-elf/7.2.0/../../../../powerpc64-ps3-elf/lib/libc.a(lib_a-svfiscanf.o)
 .debug_abbrev  0x0000000000009e83      0x3c2 /usr/local/ps3dev/ppu/lib/gcc/powerpc64-ps3-elf/7.2.0/../../../../powerpc64-ps3-elf/lib/libc.a(lib_a-svfprintf.o)
 .debug_abbrev  0x000000000000a245      0x2eb /usr/local/ps3dev/ppu/lib/gcc/powerpc64-ps3-elf/7.2.0/../../../../powerpc64-ps3-elf/lib/libc.a(lib_a-ungetc.o)
 .debug_abbrev  0x000000000000a530      0x410 /usr/local/ps3dev/ppu/lib/gcc/powerpc64-ps3-elf/7.2.0/../../../../powerpc64-ps3-elf/lib/libc.a(lib_a-vfiprintf.o)
 .debug_abbrev  0x000000000000a940      0x1e5 /usr/local/ps3dev/ppu/lib/gcc/powerpc64-ps3-elf/7.2.0/../../../../powerpc64-ps3-elf/lib/libc.a(lib_a-abort.o)
 .debug_abbrev  0x000000000000ab25      0x24d /usr/local/ps3dev/ppu/lib/gcc/powerpc64-ps3-elf/7.2.0/../../../../powerpc64-ps3-elf/lib/libc.a(lib_a-__atexit.o)
 .debug_abbrev  0x000000000000ad72      0x2b5 /usr/local/ps3dev/ppu/lib/gcc/powerpc64-ps3-elf/7.2.0/../../../../powerpc64-ps3-elf/lib/libc.a(lib_a-fputwc.o)
 .debug_abbrev  0x000000000000b027      0x3b5 /usr/local/ps3dev/ppu/lib/gcc/powerpc64-ps3-elf/7.2.0/../../../../powerpc64-ps3-elf/lib/libc.a(lib_a-gdtoa-gethex.o)
 .debug_abbrev  0x000000000000b3dc      0x2b8 /usr/local/ps3dev/ppu/lib/gcc/powerpc64-ps3-elf/7.2.0/../../../../powerpc64-ps3-elf/lib/libc.a(lib_a-gdtoa-hexnan.o)
 .debug_abbrev  0x000000000000b694      0x31f /usr/local/ps3dev/ppu/lib/gcc/powerpc64-ps3-elf/7.2.0/../../../../powerpc64-ps3-elf/lib/libc.a(lib_a-signal.o)
 .debug_abbrev  0x000000000000b9b3      0x1bc /usr/local/ps3dev/ppu/lib/gcc/powerpc64-ps3-elf/7.2.0/../../../../powerpc64-ps3-elf/lib/libc.a(lib_a-strncmp.o)
 .debug_abbrev  0x000000000000bb6f      0x329 /usr/local/ps3dev/ppu/lib/gcc/powerpc64-ps3-elf/7.2.0/../../../../powerpc64-ps3-elf/lib/libc.a(lib_a-svfiprintf.o)
 .debug_abbrev  0x000000000000be98      0x265 /usr/local/ps3dev/ppu/lib/gcc/powerpc64-ps3-elf/7.2.0/../../../../powerpc64-ps3-elf/lib/libc.a(lib_a-wbuf.o)
 .debug_abbrev  0x000000000000c0fd      0x22e /usr/local/ps3dev/ppu/lib/gcc/powerpc64-ps3-elf/7.2.0/../../../../powerpc64-ps3-elf/lib/libc.a(lib_a-wcrtomb.o)
 .debug_abbrev  0x000000000000c32b      0x23d /usr/local/ps3dev/ppu/lib/gcc/powerpc64-ps3-elf/7.2.0/../../../../powerpc64-ps3-elf/lib/libc.a(lib_a-wctomb_r.o)
 .debug_abbrev  0x000000000000c568      0x212 /usr/local/ps3dev/ppu/lib/gcc/powerpc64-ps3-elf/7.2.0/../../../../powerpc64-ps3-elf/lib/libsysbase.a(close.o)
 .debug_abbrev  0x000000000000c77a      0x221 /usr/local/ps3dev/ppu/lib/gcc/powerpc64-ps3-elf/7.2.0/../../../../powerpc64-ps3-elf/lib/libsysbase.a(sbrk.o)
 .debug_abbrev  0x000000000000c99b      0x1f9 /usr/local/ps3dev/ppu/lib/gcc/powerpc64-ps3-elf/7.2.0/../../../../powerpc64-ps3-elf/lib/libsysbase.a(_exit.o)
 .debug_abbrev  0x000000000000cb94      0x212 /usr/local/ps3dev/ppu/lib/gcc/powerpc64-ps3-elf/7.2.0/../../../../powerpc64-ps3-elf/lib/libsysbase.a(fstat.o)
 .debug_abbrev  0x000000000000cda6      0x212 /usr/local/ps3dev/ppu/lib/gcc/powerpc64-ps3-elf/7.2.0/../../../../powerpc64-ps3-elf/lib/libsysbase.a(isatty.o)
 .debug_abbrev  0x000000000000cfb8      0x212 /usr/local/ps3dev/ppu/lib/gcc/powerpc64-ps3-elf/7.2.0/../../../../powerpc64-ps3-elf/lib/libsysbase.a(lseek.o)
 .debug_abbrev  0x000000000000d1ca      0x221 /usr/local/ps3dev/ppu/lib/gcc/powerpc64-ps3-elf/7.2.0/../../../../powerpc64-ps3-elf/lib/libsysbase.a(open.o)
 .debug_abbrev  0x000000000000d3eb      0x212 /usr/local/ps3dev/ppu/lib/gcc/powerpc64-ps3-elf/7.2.0/../../../../powerpc64-ps3-elf/lib/libsysbase.a(read.o)
 .debug_abbrev  0x000000000000d5fd      0x212 /usr/local/ps3dev/ppu/lib/gcc/powerpc64-ps3-elf/7.2.0/../../../../powerpc64-ps3-elf/lib/libsysbase.a(write.o)
 .debug_abbrev  0x000000000000d80f      0x23f /usr/local/ps3dev/ppu/lib/gcc/powerpc64-ps3-elf/7.2.0/../../../../powerpc64-ps3-elf/lib/libsysbase.a(lock.o)
 .debug_abbrev  0x000000000000da4e      0x212 /usr/local/ps3dev/ppu/lib/gcc/powerpc64-ps3-elf/7.2.0/../../../../powerpc64-ps3-elf/lib/libsysbase.a(getpid.o)
 .debug_abbrev  0x000000000000dc60      0x1d0 /usr/local/ps3dev/ppu/lib/gcc/powerpc64-ps3-elf/7.2.0/../../../../powerpc64-ps3-elf/lib/libsysbase.a(kill.o)
 .debug_abbrev  0x000000000000de30      0x221 /usr/local/ps3dev/ppu/lib/gcc/powerpc64-ps3-elf/7.2.0/../../../../powerpc64-ps3-elf/lib/libsysbase.a(gettod.o)

.debug_line     0x0000000000000000    0x1363b
 *(.debug_line)
 .debug_line    0x0000000000000000      0x250 /usr/local/ps3dev/ppu/lib/gcc/powerpc64-ps3-elf/7.2.0/../../../../powerpc64-ps3-elf/lib/libsysbase.a(syscalls.o)
 .debug_line    0x0000000000000250      0x2bc /usr/local/ps3dev/ppu/lib/gcc/powerpc64-ps3-elf/7.2.0/../../../../powerpc64-ps3-elf/lib/libsysbase.a(sleep.o)
 .debug_line    0x000000000000050c      0x22c /usr/local/ps3dev/ppu/lib/gcc/powerpc64-ps3-elf/7.2.0/../../../../powerpc64-ps3-elf/lib/libc.a(lib_a-calloc.o)
 .debug_line    0x0000000000000738      0x26e /usr/local/ps3dev/ppu/lib/gcc/powerpc64-ps3-elf/7.2.0/../../../../powerpc64-ps3-elf/lib/libc.a(lib_a-callocr.o)
 .debug_line    0x00000000000009a6      0x229 /usr/local/ps3dev/ppu/lib/gcc/powerpc64-ps3-elf/7.2.0/../../../../powerpc64-ps3-elf/lib/libc.a(lib_a-errno.o)
 .debug_line    0x0000000000000bcf      0x246 /usr/local/ps3dev/ppu/lib/gcc/powerpc64-ps3-elf/7.2.0/../../../../powerpc64-ps3-elf/lib/libc.a(lib_a-exit.o)
 .debug_line    0x0000000000000e15      0x2b8 /usr/local/ps3dev/ppu/lib/gcc/powerpc64-ps3-elf/7.2.0/../../../../powerpc64-ps3-elf/lib/libc.a(lib_a-fclose.o)
 .debug_line    0x00000000000010cd      0x3b7 /usr/local/ps3dev/ppu/lib/gcc/powerpc64-ps3-elf/7.2.0/../../../../powerpc64-ps3-elf/lib/libc.a(lib_a-fflush.o)
 .debug_line    0x0000000000001484      0x4bc /usr/local/ps3dev/ppu/lib/gcc/powerpc64-ps3-elf/7.2.0/../../../../powerpc64-ps3-elf/lib/libc.a(lib_a-findfp.o)
 .debug_line    0x0000000000001940      0x2be /usr/local/ps3dev/ppu/lib/gcc/powerpc64-ps3-elf/7.2.0/../../../../powerpc64-ps3-elf/lib/libc.a(lib_a-fopen.o)
 .debug_line    0x0000000000001bfe      0x31f /usr/local/ps3dev/ppu/lib/gcc/powerpc64-ps3-elf/7.2.0/../../../../powerpc64-ps3-elf/lib/libc.a(lib_a-fread.o)
 .debug_line    0x0000000000001f1d      0x366 /usr/local/ps3dev/ppu/lib/gcc/powerpc64-ps3-elf/7.2.0/../../../../powerpc64-ps3-elf/lib/libc.a(lib_a-freer.o)
 .debug_line    0x0000000000002283      0x41b /usr/local/ps3dev/ppu/lib/gcc/powerpc64-ps3-elf/7.2.0/../../../../powerpc64-ps3-elf/lib/libc.a(lib_a-fseek.o)
 .debug_line    0x000000000000269e      0x2f3 /usr/local/ps3dev/ppu/lib/gcc/powerpc64-ps3-elf/7.2.0/../../../../powerpc64-ps3-elf/lib/libc.a(lib_a-ftell.o)
 .debug_line    0x0000000000002991      0x2b6 /usr/local/ps3dev/ppu/lib/gcc/powerpc64-ps3-elf/7.2.0/../../../../powerpc64-ps3-elf/lib/libc.a(lib_a-fwalk.o)
 .debug_line    0x0000000000002c47      0x1cf /usr/local/ps3dev/ppu/lib/gcc/powerpc64-ps3-elf/7.2.0/../../../../powerpc64-ps3-elf/lib/libc.a(lib_a-getreent.o)
 .debug_line    0x0000000000002e16      0x20a /usr/local/ps3dev/ppu/lib/gcc/powerpc64-ps3-elf/7.2.0/../../../../powerpc64-ps3-elf/lib/libc.a(lib_a-impure.o)
 .debug_line    0x0000000000003020      0x245 /usr/local/ps3dev/ppu/lib/gcc/powerpc64-ps3-elf/7.2.0/../../../../powerpc64-ps3-elf/lib/libc.a(lib_a-lock_recursive.o)
 .debug_line    0x0000000000003265      0x2fc /usr/local/ps3dev/ppu/lib/gcc/powerpc64-ps3-elf/7.2.0/../../../../powerpc64-ps3-elf/lib/libc.a(lib_a-makebuf.o)
 .debug_line    0x0000000000003561      0x238 /usr/local/ps3dev/ppu/lib/gcc/powerpc64-ps3-elf/7.2.0/../../../../powerpc64-ps3-elf/lib/libc.a(lib_a-malign.o)
 .debug_line    0x0000000000003799      0x2c0 /usr/local/ps3dev/ppu/lib/gcc/powerpc64-ps3-elf/7.2.0/../../../../powerpc64-ps3-elf/lib/libc.a(lib_a-malignr.o)
 .debug_line    0x0000000000003a59      0x24f /usr/local/ps3dev/ppu/lib/gcc/powerpc64-ps3-elf/7.2.0/../../../../powerpc64-ps3-elf/lib/libc.a(lib_a-malloc.o)
 .debug_line    0x0000000000003ca8      0x4b5 /usr/local/ps3dev/ppu/lib/gcc/powerpc64-ps3-elf/7.2.0/../../../../powerpc64-ps3-elf/lib/libc.a(lib_a-mallocr.o)
 .debug_line    0x000000000000415d      0x254 /usr/local/ps3dev/ppu/lib/gcc/powerpc64-ps3-elf/7.2.0/../../../../powerpc64-ps3-elf/lib/libc.a(lib_a-memcpy.o)
 .debug_line    0x00000000000043b1      0x261 /usr/local/ps3dev/ppu/lib/gcc/powerpc64-ps3-elf/7.2.0/../../../../powerpc64-ps3-elf/lib/libc.a(lib_a-memset.o)
 .debug_line    0x0000000000004612      0x238 /usr/local/ps3dev/ppu/lib/gcc/powerpc64-ps3-elf/7.2.0/../../../../powerpc64-ps3-elf/lib/libc.a(lib_a-mlock.o)
 .debug_line    0x000000000000484a      0x279 /usr/local/ps3dev/ppu/lib/gcc/powerpc64-ps3-elf/7.2.0/../../../../powerpc64-ps3-elf/lib/libc.a(lib_a-printf.o)
 .debug_line    0x0000000000004ac3      0x298 /usr/local/ps3dev/ppu/lib/gcc/powerpc64-ps3-elf/7.2.0/../../../../powerpc64-ps3-elf/lib/libc.a(lib_a-puts.o)
 .debug_line    0x0000000000004d5b      0x239 /usr/local/ps3dev/ppu/lib/gcc/powerpc64-ps3-elf/7.2.0/../../../../powerpc64-ps3-elf/lib/libc.a(lib_a-realloc.o)
 .debug_line    0x0000000000004f94      0x3e2 /usr/local/ps3dev/ppu/lib/gcc/powerpc64-ps3-elf/7.2.0/../../../../powerpc64-ps3-elf/lib/libc.a(lib_a-reallocr.o)
 .debug_line    0x0000000000005376      0x30d /usr/local/ps3dev/ppu/lib/gcc/powerpc64-ps3-elf/7.2.0/../../../../powerpc64-ps3-elf/lib/libc.a(lib_a-refill.o)
 .debug_line    0x0000000000005683      0x252 /usr/local/ps3dev/ppu/lib/gcc/powerpc64-ps3-elf/7.2.0/../../../../powerpc64-ps3-elf/lib/libc.a(lib_a-rewind.o)
 .debug_line    0x00000000000058d5      0x2b0 /usr/local/ps3dev/ppu/lib/gcc/powerpc64-ps3-elf/7.2.0/../../../../powerpc64-ps3-elf/lib/libc.a(lib_a-sscanf.o)
 .debug_line    0x0000000000005b85      0x2e8 /usr/local/ps3dev/ppu/lib/gcc/powerpc64-ps3-elf/7.2.0/../../../../powerpc64-ps3-elf/lib/libc.a(lib_a-stdio.o)
 .debug_line    0x0000000000005e6d      0x27b /usr/local/ps3dev/ppu/lib/gcc/powerpc64-ps3-elf/7.2.0/../../../../powerpc64-ps3-elf/lib/libc.a(lib_a-strcasecmp.o)
 .debug_line    0x00000000000060e8      0x261 /usr/local/ps3dev/ppu/lib/gcc/powerpc64-ps3-elf/7.2.0/../../../../powerpc64-ps3-elf/lib/libc.a(lib_a-strchr.o)
 .debug_line    0x0000000000006349      0x23d /usr/local/ps3dev/ppu/lib/gcc/powerpc64-ps3-elf/7.2.0/../../../../powerpc64-ps3-elf/lib/libc.a(lib_a-strcpy.o)
 .debug_line    0x0000000000006586      0x236 /usr/local/ps3dev/ppu/lib/gcc/powerpc64-ps3-elf/7.2.0/../../../../powerpc64-ps3-elf/lib/libc.a(lib_a-strdup.o)
 .debug_line    0x00000000000067bc      0x23d /usr/local/ps3dev/ppu/lib/gcc/powerpc64-ps3-elf/7.2.0/../../../../powerpc64-ps3-elf/lib/libc.a(lib_a-strdup_r.o)
 .debug_line    0x00000000000069f9      0x23b /usr/local/ps3dev/ppu/lib/gcc/powerpc64-ps3-elf/7.2.0/../../../../powerpc64-ps3-elf/lib/libc.a(lib_a-strlen.o)
 .debug_line    0x0000000000006c34      0x249 /usr/local/ps3dev/ppu/lib/gcc/powerpc64-ps3-elf/7.2.0/../../../../powerpc64-ps3-elf/lib/libc.a(lib_a-strncat.o)
 .debug_line    0x0000000000006e7d      0x25f /usr/local/ps3dev/ppu/lib/gcc/powerpc64-ps3-elf/7.2.0/../../../../powerpc64-ps3-elf/lib/libc.a(lib_a-strncpy.o)
 .debug_line    0x00000000000070dc      0x739 /usr/local/ps3dev/ppu/lib/gcc/powerpc64-ps3-elf/7.2.0/../../../../powerpc64-ps3-elf/lib/libc.a(lib_a-svfscanf.o)
 .debug_line    0x0000000000007815      0x23f /usr/local/ps3dev/ppu/lib/gcc/powerpc64-ps3-elf/7.2.0/../../../../powerpc64-ps3-elf/lib/libc.a(lib_a-time.o)
 .debug_line    0x0000000000007a54      0xa96 /usr/local/ps3dev/ppu/lib/gcc/powerpc64-ps3-elf/7.2.0/../../../../powerpc64-ps3-elf/lib/libc.a(lib_a-vfprintf.o)
 .debug_line    0x00000000000084ea      0x2cb /usr/local/ps3dev/ppu/lib/gcc/powerpc64-ps3-elf/7.2.0/../../../../powerpc64-ps3-elf/lib/libc.a(lib_a-wsetup.o)
 .debug_line    0x00000000000087b5      0x29e /usr/local/ps3dev/ppu/lib/gcc/powerpc64-ps3-elf/7.2.0/../../../../powerpc64-ps3-elf/lib/libc.a(lib_a-__call_atexit.o)
 .debug_line    0x0000000000008a53       0x65 /usr/local/ps3dev/ppu/lib/gcc/powerpc64-ps3-elf/7.2.0/../../../../powerpc64-ps3-elf/lib/libc.a(lib_a-ctype_.o)
 .debug_line    0x0000000000008ab8      0x818 /usr/local/ps3dev/ppu/lib/gcc/powerpc64-ps3-elf/7.2.0/../../../../powerpc64-ps3-elf/lib/libc.a(lib_a-dtoa.o)
 .debug_line    0x00000000000092d0      0x266 /usr/local/ps3dev/ppu/lib/gcc/powerpc64-ps3-elf/7.2.0/../../../../powerpc64-ps3-elf/lib/libc.a(lib_a-flags.o)
 .debug_line    0x0000000000009536      0x3d9 /usr/local/ps3dev/ppu/lib/gcc/powerpc64-ps3-elf/7.2.0/../../../../powerpc64-ps3-elf/lib/libc.a(lib_a-fvwrite.o)
 .debug_line    0x000000000000990f      0x243 /usr/local/ps3dev/ppu/lib/gcc/powerpc64-ps3-elf/7.2.0/../../../../powerpc64-ps3-elf/lib/libc.a(lib_a-iswspace.o)
 .debug_line    0x0000000000009b52      0x33f /usr/local/ps3dev/ppu/lib/gcc/powerpc64-ps3-elf/7.2.0/../../../../powerpc64-ps3-elf/lib/libc.a(lib_a-locale.o)
 .debug_line    0x0000000000009e91      0x208 /usr/local/ps3dev/ppu/lib/gcc/powerpc64-ps3-elf/7.2.0/../../../../powerpc64-ps3-elf/lib/libc.a(lib_a-lock_internal.o)
 .debug_line    0x000000000000a099      0x2a3 /usr/local/ps3dev/ppu/lib/gcc/powerpc64-ps3-elf/7.2.0/../../../../powerpc64-ps3-elf/lib/libc.a(lib_a-mbrtowc.o)
 .debug_line    0x000000000000a33c      0x27b /usr/local/ps3dev/ppu/lib/gcc/powerpc64-ps3-elf/7.2.0/../../../../powerpc64-ps3-elf/lib/libc.a(lib_a-mbtowc_r.o)
 .debug_line    0x000000000000a5b7      0x267 /usr/local/ps3dev/ppu/lib/gcc/powerpc64-ps3-elf/7.2.0/../../../../powerpc64-ps3-elf/lib/libc.a(lib_a-memchr.o)
 .debug_line    0x000000000000a81e      0x25f /usr/local/ps3dev/ppu/lib/gcc/powerpc64-ps3-elf/7.2.0/../../../../powerpc64-ps3-elf/lib/libc.a(lib_a-memmove.o)
 .debug_line    0x000000000000aa7d      0x957 /usr/local/ps3dev/ppu/lib/gcc/powerpc64-ps3-elf/7.2.0/../../../../powerpc64-ps3-elf/lib/libc.a(lib_a-mprec.o)
 .debug_line    0x000000000000b3d4      0x28b /usr/local/ps3dev/ppu/lib/gcc/powerpc64-ps3-elf/7.2.0/../../../../powerpc64-ps3-elf/lib/libc.a(lib_a-sccl.o)
 .debug_line    0x000000000000b65f      0x28d /usr/local/ps3dev/ppu/lib/gcc/powerpc64-ps3-elf/7.2.0/../../../../powerpc64-ps3-elf/lib/libc.a(lib_a-sf_nan.o)
 .debug_line    0x000000000000b8ec      0x2cd /usr/local/ps3dev/ppu/lib/gcc/powerpc64-ps3-elf/7.2.0/../../../../powerpc64-ps3-elf/lib/libc.a(lib_a-s_fpclassify.o)
 .debug_line    0x000000000000bbb9      0x2af /usr/local/ps3dev/ppu/lib/gcc/powerpc64-ps3-elf/7.2.0/../../../../powerpc64-ps3-elf/lib/libc.a(lib_a-sprintf.o)
 .debug_line    0x000000000000be68      0x24a /usr/local/ps3dev/ppu/lib/gcc/powerpc64-ps3-elf/7.2.0/../../../../powerpc64-ps3-elf/lib/libc.a(lib_a-strcmp.o)
 .debug_line    0x000000000000c0b2      0x6ec /usr/local/ps3dev/ppu/lib/gcc/powerpc64-ps3-elf/7.2.0/../../../../powerpc64-ps3-elf/lib/libc.a(lib_a-strtod.o)
 .debug_line    0x000000000000c79e      0x30d /usr/local/ps3dev/ppu/lib/gcc/powerpc64-ps3-elf/7.2.0/../../../../powerpc64-ps3-elf/lib/libc.a(lib_a-strtoll_r.o)
 .debug_line    0x000000000000caab      0x324 /usr/local/ps3dev/ppu/lib/gcc/powerpc64-ps3-elf/7.2.0/../../../../powerpc64-ps3-elf/lib/libc.a(lib_a-strtol.o)
 .debug_line    0x000000000000cdcf      0x2dd /usr/local/ps3dev/ppu/lib/gcc/powerpc64-ps3-elf/7.2.0/../../../../powerpc64-ps3-elf/lib/libc.a(lib_a-strtoull_r.o)
 .debug_line    0x000000000000d0ac      0x2f3 /usr/local/ps3dev/ppu/lib/gcc/powerpc64-ps3-elf/7.2.0/../../../../powerpc64-ps3-elf/lib/libc.a(lib_a-strtoul.o)
 .debug_line    0x000000000000d39f      0x6ca /usr/local/ps3dev/ppu/lib/gcc/powerpc64-ps3-elf/7.2.0/../../../../powerpc64-ps3-elf/lib/libc.a(lib_a-svfiscanf.o)
 .debug_line    0x000000000000da69      0xa1a /usr/local/ps3dev/ppu/lib/gcc/powerpc64-ps3-elf/7.2.0/../../../../powerpc64-ps3-elf/lib/libc.a(lib_a-svfprintf.o)
 .debug_line    0x000000000000e483      0x351 /usr/local/ps3dev/ppu/lib/gcc/powerpc64-ps3-elf/7.2.0/../../../../powerpc64-ps3-elf/lib/libc.a(lib_a-ungetc.o)
 .debug_line    0x000000000000e7d4      0x7b1 /usr/local/ps3dev/ppu/lib/gcc/powerpc64-ps3-elf/7.2.0/../../../../powerpc64-ps3-elf/lib/libc.a(lib_a-vfiprintf.o)
 .debug_line    0x000000000000ef85      0x247 /usr/local/ps3dev/ppu/lib/gcc/powerpc64-ps3-elf/7.2.0/../../../../powerpc64-ps3-elf/lib/libc.a(lib_a-abort.o)
 .debug_line    0x000000000000f1cc      0x26f /usr/local/ps3dev/ppu/lib/gcc/powerpc64-ps3-elf/7.2.0/../../../../powerpc64-ps3-elf/lib/libc.a(lib_a-__atexit.o)
 .debug_line    0x000000000000f43b      0x2e2 /usr/local/ps3dev/ppu/lib/gcc/powerpc64-ps3-elf/7.2.0/../../../../powerpc64-ps3-elf/lib/libc.a(lib_a-fputwc.o)
 .debug_line    0x000000000000f71d      0x4a5 /usr/local/ps3dev/ppu/lib/gcc/powerpc64-ps3-elf/7.2.0/../../../../powerpc64-ps3-elf/lib/libc.a(lib_a-gdtoa-gethex.o)
 .debug_line    0x000000000000fbc2      0x302 /usr/local/ps3dev/ppu/lib/gcc/powerpc64-ps3-elf/7.2.0/../../../../powerpc64-ps3-elf/lib/libc.a(lib_a-gdtoa-hexnan.o)
 .debug_line    0x000000000000fec4      0x3c0 /usr/local/ps3dev/ppu/lib/gcc/powerpc64-ps3-elf/7.2.0/../../../../powerpc64-ps3-elf/lib/libc.a(lib_a-signal.o)
 .debug_line    0x0000000000010284      0x276 /usr/local/ps3dev/ppu/lib/gcc/powerpc64-ps3-elf/7.2.0/../../../../powerpc64-ps3-elf/lib/libc.a(lib_a-strncmp.o)
 .debug_line    0x00000000000104fa      0x6ea /usr/local/ps3dev/ppu/lib/gcc/powerpc64-ps3-elf/7.2.0/../../../../powerpc64-ps3-elf/lib/libc.a(lib_a-svfiprintf.o)
 .debug_line    0x0000000000010be4      0x2ee /usr/local/ps3dev/ppu/lib/gcc/powerpc64-ps3-elf/7.2.0/../../../../powerpc64-ps3-elf/lib/libc.a(lib_a-wbuf.o)
 .debug_line    0x0000000000010ed2      0x2a2 /usr/local/ps3dev/ppu/lib/gcc/powerpc64-ps3-elf/7.2.0/../../../../powerpc64-ps3-elf/lib/libc.a(lib_a-wcrtomb.o)
 .debug_line    0x0000000000011174      0x274 /usr/local/ps3dev/ppu/lib/gcc/powerpc64-ps3-elf/7.2.0/../../../../powerpc64-ps3-elf/lib/libc.a(lib_a-wctomb_r.o)
 .debug_line    0x00000000000113e8      0x2a5 /usr/local/ps3dev/ppu/lib/gcc/powerpc64-ps3-elf/7.2.0/../../../../powerpc64-ps3-elf/lib/libsysbase.a(close.o)
 .debug_line    0x000000000001168d      0x2a4 /usr/local/ps3dev/ppu/lib/gcc/powerpc64-ps3-elf/7.2.0/../../../../powerpc64-ps3-elf/lib/libsysbase.a(sbrk.o)
 .debug_line    0x0000000000011931      0x293 /usr/local/ps3dev/ppu/lib/gcc/powerpc64-ps3-elf/7.2.0/../../../../powerpc64-ps3-elf/lib/libsysbase.a(_exit.o)
 .debug_line    0x0000000000011bc4      0x2a5 /usr/local/ps3dev/ppu/lib/gcc/powerpc64-ps3-elf/7.2.0/../../../../powerpc64-ps3-elf/lib/libsysbase.a(fstat.o)
 .debug_line    0x0000000000011e69      0x2a6 /usr/local/ps3dev/ppu/lib/gcc/powerpc64-ps3-elf/7.2.0/../../../../powerpc64-ps3-elf/lib/libsysbase.a(isatty.o)
 .debug_line    0x000000000001210f      0x2a9 /usr/local/ps3dev/ppu/lib/gcc/powerpc64-ps3-elf/7.2.0/../../../../powerpc64-ps3-elf/lib/libsysbase.a(lseek.o)
 .debug_line    0x00000000000123b8      0x2b3 /usr/local/ps3dev/ppu/lib/gcc/powerpc64-ps3-elf/7.2.0/../../../../powerpc64-ps3-elf/lib/libsysbase.a(open.o)
 .debug_line    0x000000000001266b      0x2a8 /usr/local/ps3dev/ppu/lib/gcc/powerpc64-ps3-elf/7.2.0/../../../../powerpc64-ps3-elf/lib/libsysbase.a(read.o)
 .debug_line    0x0000000000012913      0x2a9 /usr/local/ps3dev/ppu/lib/gcc/powerpc64-ps3-elf/7.2.0/../../../../powerpc64-ps3-elf/lib/libsysbase.a(write.o)
 .debug_line    0x0000000000012bbc      0x30c /usr/local/ps3dev/ppu/lib/gcc/powerpc64-ps3-elf/7.2.0/../../../../powerpc64-ps3-elf/lib/libsysbase.a(lock.o)
 .debug_line    0x0000000000012ec8      0x2a6 /usr/local/ps3dev/ppu/lib/gcc/powerpc64-ps3-elf/7.2.0/../../../../powerpc64-ps3-elf/lib/libsysbase.a(getpid.o)
 .debug_line    0x000000000001316e      0x227 /usr/local/ps3dev/ppu/lib/gcc/powerpc64-ps3-elf/7.2.0/../../../../powerpc64-ps3-elf/lib/libsysbase.a(kill.o)
 .debug_line    0x0000000000013395      0x2a6 /usr/local/ps3dev/ppu/lib/gcc/powerpc64-ps3-elf/7.2.0/../../../../powerpc64-ps3-elf/lib/libsysbase.a(gettod.o)

.debug_frame    0x0000000000000000     0x3a20
 *(.debug_frame)
 .debug_frame   0x0000000000000000       0x70 /usr/local/ps3dev/ppu/lib/gcc/powerpc64-ps3-elf/7.2.0/../../../../powerpc64-ps3-elf/lib/libsysbase.a(sleep.o)
 .debug_frame   0x0000000000000070       0x40 /usr/local/ps3dev/ppu/lib/gcc/powerpc64-ps3-elf/7.2.0/../../../../powerpc64-ps3-elf/lib/libc.a(lib_a-calloc.o)
 .debug_frame   0x00000000000000b0       0x48 /usr/local/ps3dev/ppu/lib/gcc/powerpc64-ps3-elf/7.2.0/../../../../powerpc64-ps3-elf/lib/libc.a(lib_a-callocr.o)
 .debug_frame   0x00000000000000f8       0x38 /usr/local/ps3dev/ppu/lib/gcc/powerpc64-ps3-elf/7.2.0/../../../../powerpc64-ps3-elf/lib/libc.a(lib_a-errno.o)
 .debug_frame   0x0000000000000130       0x38 /usr/local/ps3dev/ppu/lib/gcc/powerpc64-ps3-elf/7.2.0/../../../../powerpc64-ps3-elf/lib/libc.a(lib_a-exit.o)
 .debug_frame   0x0000000000000168       0xa0 /usr/local/ps3dev/ppu/lib/gcc/powerpc64-ps3-elf/7.2.0/../../../../powerpc64-ps3-elf/lib/libc.a(lib_a-fclose.o)
 .debug_frame   0x0000000000000208      0x158 /usr/local/ps3dev/ppu/lib/gcc/powerpc64-ps3-elf/7.2.0/../../../../powerpc64-ps3-elf/lib/libc.a(lib_a-fflush.o)
 .debug_frame   0x0000000000000360      0x278 /usr/local/ps3dev/ppu/lib/gcc/powerpc64-ps3-elf/7.2.0/../../../../powerpc64-ps3-elf/lib/libc.a(lib_a-findfp.o)
 .debug_frame   0x00000000000005d8       0xb8 /usr/local/ps3dev/ppu/lib/gcc/powerpc64-ps3-elf/7.2.0/../../../../powerpc64-ps3-elf/lib/libc.a(lib_a-fopen.o)
 .debug_frame   0x0000000000000690       0xd8 /usr/local/ps3dev/ppu/lib/gcc/powerpc64-ps3-elf/7.2.0/../../../../powerpc64-ps3-elf/lib/libc.a(lib_a-fread.o)
 .debug_frame   0x0000000000000768       0xa0 /usr/local/ps3dev/ppu/lib/gcc/powerpc64-ps3-elf/7.2.0/../../../../powerpc64-ps3-elf/lib/libc.a(lib_a-freer.o)
 .debug_frame   0x0000000000000808       0xe0 /usr/local/ps3dev/ppu/lib/gcc/powerpc64-ps3-elf/7.2.0/../../../../powerpc64-ps3-elf/lib/libc.a(lib_a-fseek.o)
 .debug_frame   0x00000000000008e8       0x98 /usr/local/ps3dev/ppu/lib/gcc/powerpc64-ps3-elf/7.2.0/../../../../powerpc64-ps3-elf/lib/libc.a(lib_a-ftell.o)
 .debug_frame   0x0000000000000980       0xb8 /usr/local/ps3dev/ppu/lib/gcc/powerpc64-ps3-elf/7.2.0/../../../../powerpc64-ps3-elf/lib/libc.a(lib_a-fwalk.o)
 .debug_frame   0x0000000000000a38       0x58 /usr/local/ps3dev/ppu/lib/gcc/powerpc64-ps3-elf/7.2.0/../../../../powerpc64-ps3-elf/lib/libc.a(lib_a-getreent.o)
 .debug_frame   0x0000000000000a90       0xf0 /usr/local/ps3dev/ppu/lib/gcc/powerpc64-ps3-elf/7.2.0/../../../../powerpc64-ps3-elf/lib/libc.a(lib_a-lock_recursive.o)
 .debug_frame   0x0000000000000b80       0x60 /usr/local/ps3dev/ppu/lib/gcc/powerpc64-ps3-elf/7.2.0/../../../../powerpc64-ps3-elf/lib/libc.a(lib_a-makebuf.o)
 .debug_frame   0x0000000000000be0       0x40 /usr/local/ps3dev/ppu/lib/gcc/powerpc64-ps3-elf/7.2.0/../../../../powerpc64-ps3-elf/lib/libc.a(lib_a-malign.o)
 .debug_frame   0x0000000000000c20       0xa0 /usr/local/ps3dev/ppu/lib/gcc/powerpc64-ps3-elf/7.2.0/../../../../powerpc64-ps3-elf/lib/libc.a(lib_a-malignr.o)
 .debug_frame   0x0000000000000cc0       0x70 /usr/local/ps3dev/ppu/lib/gcc/powerpc64-ps3-elf/7.2.0/../../../../powerpc64-ps3-elf/lib/libc.a(lib_a-malloc.o)
 .debug_frame   0x0000000000000d30      0x118 /usr/local/ps3dev/ppu/lib/gcc/powerpc64-ps3-elf/7.2.0/../../../../powerpc64-ps3-elf/lib/libc.a(lib_a-mallocr.o)
 .debug_frame   0x0000000000000e48       0x28 /usr/local/ps3dev/ppu/lib/gcc/powerpc64-ps3-elf/7.2.0/../../../../powerpc64-ps3-elf/lib/libc.a(lib_a-memcpy.o)
 .debug_frame   0x0000000000000e70       0x28 /usr/local/ps3dev/ppu/lib/gcc/powerpc64-ps3-elf/7.2.0/../../../../powerpc64-ps3-elf/lib/libc.a(lib_a-memset.o)
 .debug_frame   0x0000000000000e98       0x60 /usr/local/ps3dev/ppu/lib/gcc/powerpc64-ps3-elf/7.2.0/../../../../powerpc64-ps3-elf/lib/libc.a(lib_a-mlock.o)
 .debug_frame   0x0000000000000ef8       0x68 /usr/local/ps3dev/ppu/lib/gcc/powerpc64-ps3-elf/7.2.0/../../../../powerpc64-ps3-elf/lib/libc.a(lib_a-printf.o)
 .debug_frame   0x0000000000000f60       0x78 /usr/local/ps3dev/ppu/lib/gcc/powerpc64-ps3-elf/7.2.0/../../../../powerpc64-ps3-elf/lib/libc.a(lib_a-puts.o)
 .debug_frame   0x0000000000000fd8       0x40 /usr/local/ps3dev/ppu/lib/gcc/powerpc64-ps3-elf/7.2.0/../../../../powerpc64-ps3-elf/lib/libc.a(lib_a-realloc.o)
 .debug_frame   0x0000000000001018       0xe0 /usr/local/ps3dev/ppu/lib/gcc/powerpc64-ps3-elf/7.2.0/../../../../powerpc64-ps3-elf/lib/libc.a(lib_a-reallocr.o)
 .debug_frame   0x00000000000010f8       0xc0 /usr/local/ps3dev/ppu/lib/gcc/powerpc64-ps3-elf/7.2.0/../../../../powerpc64-ps3-elf/lib/libc.a(lib_a-refill.o)
 .debug_frame   0x00000000000011b8       0x70 /usr/local/ps3dev/ppu/lib/gcc/powerpc64-ps3-elf/7.2.0/../../../../powerpc64-ps3-elf/lib/libc.a(lib_a-rewind.o)
 .debug_frame   0x0000000000001228       0x70 /usr/local/ps3dev/ppu/lib/gcc/powerpc64-ps3-elf/7.2.0/../../../../powerpc64-ps3-elf/lib/libc.a(lib_a-sscanf.o)
 .debug_frame   0x0000000000001298       0xf8 /usr/local/ps3dev/ppu/lib/gcc/powerpc64-ps3-elf/7.2.0/../../../../powerpc64-ps3-elf/lib/libc.a(lib_a-stdio.o)
 .debug_frame   0x0000000000001390       0x28 /usr/local/ps3dev/ppu/lib/gcc/powerpc64-ps3-elf/7.2.0/../../../../powerpc64-ps3-elf/lib/libc.a(lib_a-strcasecmp.o)
 .debug_frame   0x00000000000013b8       0x28 /usr/local/ps3dev/ppu/lib/gcc/powerpc64-ps3-elf/7.2.0/../../../../powerpc64-ps3-elf/lib/libc.a(lib_a-strchr.o)
 .debug_frame   0x00000000000013e0       0x28 /usr/local/ps3dev/ppu/lib/gcc/powerpc64-ps3-elf/7.2.0/../../../../powerpc64-ps3-elf/lib/libc.a(lib_a-strcpy.o)
 .debug_frame   0x0000000000001408       0x40 /usr/local/ps3dev/ppu/lib/gcc/powerpc64-ps3-elf/7.2.0/../../../../powerpc64-ps3-elf/lib/libc.a(lib_a-strdup.o)
 .debug_frame   0x0000000000001448       0x48 /usr/local/ps3dev/ppu/lib/gcc/powerpc64-ps3-elf/7.2.0/../../../../powerpc64-ps3-elf/lib/libc.a(lib_a-strdup_r.o)
 .debug_frame   0x0000000000001490       0x28 /usr/local/ps3dev/ppu/lib/gcc/powerpc64-ps3-elf/7.2.0/../../../../powerpc64-ps3-elf/lib/libc.a(lib_a-strlen.o)
 .debug_frame   0x00000000000014b8       0x28 /usr/local/ps3dev/ppu/lib/gcc/powerpc64-ps3-elf/7.2.0/../../../../powerpc64-ps3-elf/lib/libc.a(lib_a-strncat.o)
 .debug_frame   0x00000000000014e0       0x28 /usr/local/ps3dev/ppu/lib/gcc/powerpc64-ps3-elf/7.2.0/../../../../powerpc64-ps3-elf/lib/libc.a(lib_a-strncpy.o)
 .debug_frame   0x0000000000001508      0x158 /usr/local/ps3dev/ppu/lib/gcc/powerpc64-ps3-elf/7.2.0/../../../../powerpc64-ps3-elf/lib/libc.a(lib_a-svfscanf.o)
 .debug_frame   0x0000000000001660       0x40 /usr/local/ps3dev/ppu/lib/gcc/powerpc64-ps3-elf/7.2.0/../../../../powerpc64-ps3-elf/lib/libc.a(lib_a-time.o)
 .debug_frame   0x00000000000016a0      0x188 /usr/local/ps3dev/ppu/lib/gcc/powerpc64-ps3-elf/7.2.0/../../../../powerpc64-ps3-elf/lib/libc.a(lib_a-vfprintf.o)
 .debug_frame   0x0000000000001828       0x48 /usr/local/ps3dev/ppu/lib/gcc/powerpc64-ps3-elf/7.2.0/../../../../powerpc64-ps3-elf/lib/libc.a(lib_a-wsetup.o)
 .debug_frame   0x0000000000001870       0x70 /usr/local/ps3dev/ppu/lib/gcc/powerpc64-ps3-elf/7.2.0/../../../../powerpc64-ps3-elf/lib/libc.a(lib_a-__call_atexit.o)
 .debug_frame   0x00000000000018e0      0x168 /usr/local/ps3dev/ppu/lib/gcc/powerpc64-ps3-elf/7.2.0/../../../../powerpc64-ps3-elf/lib/libc.a(lib_a-dtoa.o)
 .debug_frame   0x0000000000001a48       0x28 /usr/local/ps3dev/ppu/lib/gcc/powerpc64-ps3-elf/7.2.0/../../../../powerpc64-ps3-elf/lib/libc.a(lib_a-flags.o)
 .debug_frame   0x0000000000001a70       0xf0 /usr/local/ps3dev/ppu/lib/gcc/powerpc64-ps3-elf/7.2.0/../../../../powerpc64-ps3-elf/lib/libc.a(lib_a-fvwrite.o)
 .debug_frame   0x0000000000001b60       0x28 /usr/local/ps3dev/ppu/lib/gcc/powerpc64-ps3-elf/7.2.0/../../../../powerpc64-ps3-elf/lib/libc.a(lib_a-iswspace.o)
 .debug_frame   0x0000000000001b88      0x128 /usr/local/ps3dev/ppu/lib/gcc/powerpc64-ps3-elf/7.2.0/../../../../powerpc64-ps3-elf/lib/libc.a(lib_a-locale.o)
 .debug_frame   0x0000000000001cb0       0x70 /usr/local/ps3dev/ppu/lib/gcc/powerpc64-ps3-elf/7.2.0/../../../../powerpc64-ps3-elf/lib/libc.a(lib_a-lock_internal.o)
 .debug_frame   0x0000000000001d20       0xa8 /usr/local/ps3dev/ppu/lib/gcc/powerpc64-ps3-elf/7.2.0/../../../../powerpc64-ps3-elf/lib/libc.a(lib_a-mbrtowc.o)
 .debug_frame   0x0000000000001dc8       0x60 /usr/local/ps3dev/ppu/lib/gcc/powerpc64-ps3-elf/7.2.0/../../../../powerpc64-ps3-elf/lib/libc.a(lib_a-mbtowc_r.o)
 .debug_frame   0x0000000000001e28       0x28 /usr/local/ps3dev/ppu/lib/gcc/powerpc64-ps3-elf/7.2.0/../../../../powerpc64-ps3-elf/lib/libc.a(lib_a-memchr.o)
 .debug_frame   0x0000000000001e50       0x28 /usr/local/ps3dev/ppu/lib/gcc/powerpc64-ps3-elf/7.2.0/../../../../powerpc64-ps3-elf/lib/libc.a(lib_a-memmove.o)
 .debug_frame   0x0000000000001e78      0x408 /usr/local/ps3dev/ppu/lib/gcc/powerpc64-ps3-elf/7.2.0/../../../../powerpc64-ps3-elf/lib/libc.a(lib_a-mprec.o)
 .debug_frame   0x0000000000002280       0x28 /usr/local/ps3dev/ppu/lib/gcc/powerpc64-ps3-elf/7.2.0/../../../../powerpc64-ps3-elf/lib/libc.a(lib_a-sccl.o)
 .debug_frame   0x00000000000022a8       0x28 /usr/local/ps3dev/ppu/lib/gcc/powerpc64-ps3-elf/7.2.0/../../../../powerpc64-ps3-elf/lib/libc.a(lib_a-sf_nan.o)
 .debug_frame   0x00000000000022d0       0x28 /usr/local/ps3dev/ppu/lib/gcc/powerpc64-ps3-elf/7.2.0/../../../../powerpc64-ps3-elf/lib/libc.a(lib_a-s_fpclassify.o)
 .debug_frame   0x00000000000022f8       0x68 /usr/local/ps3dev/ppu/lib/gcc/powerpc64-ps3-elf/7.2.0/../../../../powerpc64-ps3-elf/lib/libc.a(lib_a-sprintf.o)
 .debug_frame   0x0000000000002360       0x28 /usr/local/ps3dev/ppu/lib/gcc/powerpc64-ps3-elf/7.2.0/../../../../powerpc64-ps3-elf/lib/libc.a(lib_a-strcmp.o)
 .debug_frame   0x0000000000002388      0x288 /usr/local/ps3dev/ppu/lib/gcc/powerpc64-ps3-elf/7.2.0/../../../../powerpc64-ps3-elf/lib/libc.a(lib_a-strtod.o)
 .debug_frame   0x0000000000002610       0x40 /usr/local/ps3dev/ppu/lib/gcc/powerpc64-ps3-elf/7.2.0/../../../../powerpc64-ps3-elf/lib/libc.a(lib_a-strtoll_r.o)
 .debug_frame   0x0000000000002650       0x78 /usr/local/ps3dev/ppu/lib/gcc/powerpc64-ps3-elf/7.2.0/../../../../powerpc64-ps3-elf/lib/libc.a(lib_a-strtol.o)
 .debug_frame   0x00000000000026c8       0x40 /usr/local/ps3dev/ppu/lib/gcc/powerpc64-ps3-elf/7.2.0/../../../../powerpc64-ps3-elf/lib/libc.a(lib_a-strtoull_r.o)
 .debug_frame   0x0000000000002708       0x78 /usr/local/ps3dev/ppu/lib/gcc/powerpc64-ps3-elf/7.2.0/../../../../powerpc64-ps3-elf/lib/libc.a(lib_a-strtoul.o)
 .debug_frame   0x0000000000002780      0x1b0 /usr/local/ps3dev/ppu/lib/gcc/powerpc64-ps3-elf/7.2.0/../../../../powerpc64-ps3-elf/lib/libc.a(lib_a-svfiscanf.o)
 .debug_frame   0x0000000000002930      0x130 /usr/local/ps3dev/ppu/lib/gcc/powerpc64-ps3-elf/7.2.0/../../../../powerpc64-ps3-elf/lib/libc.a(lib_a-svfprintf.o)
 .debug_frame   0x0000000000002a60      0x100 /usr/local/ps3dev/ppu/lib/gcc/powerpc64-ps3-elf/7.2.0/../../../../powerpc64-ps3-elf/lib/libc.a(lib_a-ungetc.o)
 .debug_frame   0x0000000000002b60      0x278 /usr/local/ps3dev/ppu/lib/gcc/powerpc64-ps3-elf/7.2.0/../../../../powerpc64-ps3-elf/lib/libc.a(lib_a-vfiprintf.o)
 .debug_frame   0x0000000000002dd8       0x30 /usr/local/ps3dev/ppu/lib/gcc/powerpc64-ps3-elf/7.2.0/../../../../powerpc64-ps3-elf/lib/libc.a(lib_a-abort.o)
 .debug_frame   0x0000000000002e08       0x58 /usr/local/ps3dev/ppu/lib/gcc/powerpc64-ps3-elf/7.2.0/../../../../powerpc64-ps3-elf/lib/libc.a(lib_a-__atexit.o)
 .debug_frame   0x0000000000002e60       0xb8 /usr/local/ps3dev/ppu/lib/gcc/powerpc64-ps3-elf/7.2.0/../../../../powerpc64-ps3-elf/lib/libc.a(lib_a-fputwc.o)
 .debug_frame   0x0000000000002f18      0x110 /usr/local/ps3dev/ppu/lib/gcc/powerpc64-ps3-elf/7.2.0/../../../../powerpc64-ps3-elf/lib/libc.a(lib_a-gdtoa-gethex.o)
 .debug_frame   0x0000000000003028       0x78 /usr/local/ps3dev/ppu/lib/gcc/powerpc64-ps3-elf/7.2.0/../../../../powerpc64-ps3-elf/lib/libc.a(lib_a-gdtoa-hexnan.o)
 .debug_frame   0x00000000000030a0      0x220 /usr/local/ps3dev/ppu/lib/gcc/powerpc64-ps3-elf/7.2.0/../../../../powerpc64-ps3-elf/lib/libc.a(lib_a-signal.o)
 .debug_frame   0x00000000000032c0       0x28 /usr/local/ps3dev/ppu/lib/gcc/powerpc64-ps3-elf/7.2.0/../../../../powerpc64-ps3-elf/lib/libc.a(lib_a-strncmp.o)
 .debug_frame   0x00000000000032e8      0x1c0 /usr/local/ps3dev/ppu/lib/gcc/powerpc64-ps3-elf/7.2.0/../../../../powerpc64-ps3-elf/lib/libc.a(lib_a-svfiprintf.o)
 .debug_frame   0x00000000000034a8       0x88 /usr/local/ps3dev/ppu/lib/gcc/powerpc64-ps3-elf/7.2.0/../../../../powerpc64-ps3-elf/lib/libc.a(lib_a-wbuf.o)
 .debug_frame   0x0000000000003530       0xa0 /usr/local/ps3dev/ppu/lib/gcc/powerpc64-ps3-elf/7.2.0/../../../../powerpc64-ps3-elf/lib/libc.a(lib_a-wcrtomb.o)
 .debug_frame   0x00000000000035d0       0x60 /usr/local/ps3dev/ppu/lib/gcc/powerpc64-ps3-elf/7.2.0/../../../../powerpc64-ps3-elf/lib/libc.a(lib_a-wctomb_r.o)
 .debug_frame   0x0000000000003630       0x40 /usr/local/ps3dev/ppu/lib/gcc/powerpc64-ps3-elf/7.2.0/../../../../powerpc64-ps3-elf/lib/libsysbase.a(close.o)
 .debug_frame   0x0000000000003670       0x40 /usr/local/ps3dev/ppu/lib/gcc/powerpc64-ps3-elf/7.2.0/../../../../powerpc64-ps3-elf/lib/libsysbase.a(sbrk.o)
 .debug_frame   0x00000000000036b0       0x38 /usr/local/ps3dev/ppu/lib/gcc/powerpc64-ps3-elf/7.2.0/../../../../powerpc64-ps3-elf/lib/libsysbase.a(_exit.o)
 .debug_frame   0x00000000000036e8       0x40 /usr/local/ps3dev/ppu/lib/gcc/powerpc64-ps3-elf/7.2.0/../../../../powerpc64-ps3-elf/lib/libsysbase.a(fstat.o)
 .debug_frame   0x0000000000003728       0x40 /usr/local/ps3dev/ppu/lib/gcc/powerpc64-ps3-elf/7.2.0/../../../../powerpc64-ps3-elf/lib/libsysbase.a(isatty.o)
 .debug_frame   0x0000000000003768       0x40 /usr/local/ps3dev/ppu/lib/gcc/powerpc64-ps3-elf/7.2.0/../../../../powerpc64-ps3-elf/lib/libsysbase.a(lseek.o)
 .debug_frame   0x00000000000037a8       0x40 /usr/local/ps3dev/ppu/lib/gcc/powerpc64-ps3-elf/7.2.0/../../../../powerpc64-ps3-elf/lib/libsysbase.a(open.o)
 .debug_frame   0x00000000000037e8       0x40 /usr/local/ps3dev/ppu/lib/gcc/powerpc64-ps3-elf/7.2.0/../../../../powerpc64-ps3-elf/lib/libsysbase.a(read.o)
 .debug_frame   0x0000000000003828       0x40 /usr/local/ps3dev/ppu/lib/gcc/powerpc64-ps3-elf/7.2.0/../../../../powerpc64-ps3-elf/lib/libsysbase.a(write.o)
 .debug_frame   0x0000000000003868      0x110 /usr/local/ps3dev/ppu/lib/gcc/powerpc64-ps3-elf/7.2.0/../../../../powerpc64-ps3-elf/lib/libsysbase.a(lock.o)
 .debug_frame   0x0000000000003978       0x40 /usr/local/ps3dev/ppu/lib/gcc/powerpc64-ps3-elf/7.2.0/../../../../powerpc64-ps3-elf/lib/libsysbase.a(getpid.o)
 .debug_frame   0x00000000000039b8       0x28 /usr/local/ps3dev/ppu/lib/gcc/powerpc64-ps3-elf/7.2.0/../../../../powerpc64-ps3-elf/lib/libsysbase.a(kill.o)
 .debug_frame   0x00000000000039e0       0x40 /usr/local/ps3dev/ppu/lib/gcc/powerpc64-ps3-elf/7.2.0/../../../../powerpc64-ps3-elf/lib/libsysbase.a(gettod.o)

.debug_str      0x0000000000000000     0x3179
 *(.debug_str)
 .debug_str     0x0000000000000000      0x912 /usr/local/ps3dev/ppu/lib/gcc/powerpc64-ps3-elf/7.2.0/../../../../powerpc64-ps3-elf/lib/libsysbase.a(syscalls.o)
                                        0xa75 (size before relaxing)
 .debug_str     0x0000000000000912       0x51 /usr/local/ps3dev/ppu/lib/gcc/powerpc64-ps3-elf/7.2.0/../../../../powerpc64-ps3-elf/lib/libsysbase.a(sleep.o)
                                        0xaa6 (size before relaxing)
 .debug_str     0x0000000000000963       0xef /usr/local/ps3dev/ppu/lib/gcc/powerpc64-ps3-elf/7.2.0/../../../../powerpc64-ps3-elf/lib/libc.a(lib_a-calloc.o)
                                        0x5c8 (size before relaxing)
 .debug_str     0x0000000000000a52      0x14f /usr/local/ps3dev/ppu/lib/gcc/powerpc64-ps3-elf/7.2.0/../../../../powerpc64-ps3-elf/lib/libc.a(lib_a-callocr.o)
                                        0x738 (size before relaxing)
 .debug_str     0x0000000000000ba1       0x88 /usr/local/ps3dev/ppu/lib/gcc/powerpc64-ps3-elf/7.2.0/../../../../powerpc64-ps3-elf/lib/libc.a(lib_a-errno.o)
                                        0x5bd (size before relaxing)
 .debug_str     0x0000000000000c29       0x45 /usr/local/ps3dev/ppu/lib/gcc/powerpc64-ps3-elf/7.2.0/../../../../powerpc64-ps3-elf/lib/libc.a(lib_a-exit.o)
                                        0x5f8 (size before relaxing)
 .debug_str     0x0000000000000c6e      0x229 /usr/local/ps3dev/ppu/lib/gcc/powerpc64-ps3-elf/7.2.0/../../../../powerpc64-ps3-elf/lib/libc.a(lib_a-fclose.o)
                                        0x799 (size before relaxing)
 .debug_str     0x0000000000000e97       0x5a /usr/local/ps3dev/ppu/lib/gcc/powerpc64-ps3-elf/7.2.0/../../../../powerpc64-ps3-elf/lib/libc.a(lib_a-fflush.o)
                                        0x78f (size before relaxing)
 .debug_str     0x0000000000000ef1       0xe6 /usr/local/ps3dev/ppu/lib/gcc/powerpc64-ps3-elf/7.2.0/../../../../powerpc64-ps3-elf/lib/libc.a(lib_a-findfp.o)
                                        0x86e (size before relaxing)
 .debug_str     0x0000000000000fd7       0x59 /usr/local/ps3dev/ppu/lib/gcc/powerpc64-ps3-elf/7.2.0/../../../../powerpc64-ps3-elf/lib/libc.a(lib_a-fopen.o)
                                        0x7c5 (size before relaxing)
 .debug_str     0x0000000000001030       0x6d /usr/local/ps3dev/ppu/lib/gcc/powerpc64-ps3-elf/7.2.0/../../../../powerpc64-ps3-elf/lib/libc.a(lib_a-fread.o)
                                        0x798 (size before relaxing)
 .debug_str     0x000000000000109d       0x69 /usr/local/ps3dev/ppu/lib/gcc/powerpc64-ps3-elf/7.2.0/../../../../powerpc64-ps3-elf/lib/libc.a(lib_a-freer.o)
                                        0x78d (size before relaxing)
 .debug_str     0x0000000000001106       0x67 /usr/local/ps3dev/ppu/lib/gcc/powerpc64-ps3-elf/7.2.0/../../../../powerpc64-ps3-elf/lib/libc.a(lib_a-fseek.o)
                                        0x8cf (size before relaxing)
 .debug_str     0x000000000000116d       0x38 /usr/local/ps3dev/ppu/lib/gcc/powerpc64-ps3-elf/7.2.0/../../../../powerpc64-ps3-elf/lib/libc.a(lib_a-ftell.o)
                                        0x75e (size before relaxing)
 .debug_str     0x00000000000011a5       0x38 /usr/local/ps3dev/ppu/lib/gcc/powerpc64-ps3-elf/7.2.0/../../../../powerpc64-ps3-elf/lib/libc.a(lib_a-fwalk.o)
                                        0x722 (size before relaxing)
 .debug_str     0x00000000000011dd       0x9b /usr/local/ps3dev/ppu/lib/gcc/powerpc64-ps3-elf/7.2.0/../../../../powerpc64-ps3-elf/lib/libc.a(lib_a-getreent.o)
                                        0x5c0 (size before relaxing)
 .debug_str     0x0000000000001278       0x8d /usr/local/ps3dev/ppu/lib/gcc/powerpc64-ps3-elf/7.2.0/../../../../powerpc64-ps3-elf/lib/libc.a(lib_a-impure.o)
                                        0x5a0 (size before relaxing)
 .debug_str     0x0000000000001305      0x114 /usr/local/ps3dev/ppu/lib/gcc/powerpc64-ps3-elf/7.2.0/../../../../powerpc64-ps3-elf/lib/libc.a(lib_a-lock_recursive.o)
                                        0x738 (size before relaxing)
 .debug_str     0x0000000000001419       0x40 /usr/local/ps3dev/ppu/lib/gcc/powerpc64-ps3-elf/7.2.0/../../../../powerpc64-ps3-elf/lib/libc.a(lib_a-makebuf.o)
                                        0x82b (size before relaxing)
 .debug_str     0x0000000000001459       0x47 /usr/local/ps3dev/ppu/lib/gcc/powerpc64-ps3-elf/7.2.0/../../../../powerpc64-ps3-elf/lib/libc.a(lib_a-malign.o)
                                        0x5d4 (size before relaxing)
 .debug_str     0x00000000000014a0       0x39 /usr/local/ps3dev/ppu/lib/gcc/powerpc64-ps3-elf/7.2.0/../../../../powerpc64-ps3-elf/lib/libc.a(lib_a-malignr.o)
                                        0x789 (size before relaxing)
 .debug_str     0x00000000000014d9       0x30 /usr/local/ps3dev/ppu/lib/gcc/powerpc64-ps3-elf/7.2.0/../../../../powerpc64-ps3-elf/lib/libc.a(lib_a-malloc.o)
                                        0x5dc (size before relaxing)
 .debug_str     0x0000000000001509       0x97 /usr/local/ps3dev/ppu/lib/gcc/powerpc64-ps3-elf/7.2.0/../../../../powerpc64-ps3-elf/lib/libc.a(lib_a-mallocr.o)
                                        0x814 (size before relaxing)
 .debug_str     0x00000000000015a0       0xaa /usr/local/ps3dev/ppu/lib/gcc/powerpc64-ps3-elf/7.2.0/../../../../powerpc64-ps3-elf/lib/libc.a(lib_a-memcpy.o)
                                        0x5cb (size before relaxing)
 .debug_str     0x000000000000164a       0x3f /usr/local/ps3dev/ppu/lib/gcc/powerpc64-ps3-elf/7.2.0/../../../../powerpc64-ps3-elf/lib/libc.a(lib_a-memset.o)
                                        0x5b8 (size before relaxing)
 .debug_str     0x0000000000001689       0x3f /usr/local/ps3dev/ppu/lib/gcc/powerpc64-ps3-elf/7.2.0/../../../../powerpc64-ps3-elf/lib/libc.a(lib_a-mlock.o)
                                        0x604 (size before relaxing)
 .debug_str     0x00000000000016c8       0x61 /usr/local/ps3dev/ppu/lib/gcc/powerpc64-ps3-elf/7.2.0/../../../../powerpc64-ps3-elf/lib/libc.a(lib_a-printf.o)
                                        0x72c (size before relaxing)
 .debug_str     0x0000000000001729       0x85 /usr/local/ps3dev/ppu/lib/gcc/powerpc64-ps3-elf/7.2.0/../../../../powerpc64-ps3-elf/lib/libc.a(lib_a-puts.o)
                                        0x748 (size before relaxing)
 .debug_str     0x00000000000017ae       0x3f /usr/local/ps3dev/ppu/lib/gcc/powerpc64-ps3-elf/7.2.0/../../../../powerpc64-ps3-elf/lib/libc.a(lib_a-realloc.o)
                                        0x5cd (size before relaxing)
 .debug_str     0x00000000000017ed       0x51 /usr/local/ps3dev/ppu/lib/gcc/powerpc64-ps3-elf/7.2.0/../../../../powerpc64-ps3-elf/lib/libc.a(lib_a-reallocr.o)
                                        0x7cb (size before relaxing)
 .debug_str     0x000000000000183e       0x3c /usr/local/ps3dev/ppu/lib/gcc/powerpc64-ps3-elf/7.2.0/../../../../powerpc64-ps3-elf/lib/libc.a(lib_a-refill.o)
                                        0x755 (size before relaxing)
 .debug_str     0x000000000000187a       0x34 /usr/local/ps3dev/ppu/lib/gcc/powerpc64-ps3-elf/7.2.0/../../../../powerpc64-ps3-elf/lib/libc.a(lib_a-rewind.o)
                                        0x5ca (size before relaxing)
 .debug_str     0x00000000000018ae       0x49 /usr/local/ps3dev/ppu/lib/gcc/powerpc64-ps3-elf/7.2.0/../../../../powerpc64-ps3-elf/lib/libc.a(lib_a-sscanf.o)
                                        0x73a (size before relaxing)
 .debug_str     0x00000000000018f7       0x79 /usr/local/ps3dev/ppu/lib/gcc/powerpc64-ps3-elf/7.2.0/../../../../powerpc64-ps3-elf/lib/libc.a(lib_a-stdio.o)
                                        0x76c (size before relaxing)
 .debug_str     0x0000000000001970       0x5a /usr/local/ps3dev/ppu/lib/gcc/powerpc64-ps3-elf/7.2.0/../../../../powerpc64-ps3-elf/lib/libc.a(lib_a-strcasecmp.o)
                                        0x5d1 (size before relaxing)
 .debug_str     0x00000000000019ca       0x32 /usr/local/ps3dev/ppu/lib/gcc/powerpc64-ps3-elf/7.2.0/../../../../powerpc64-ps3-elf/lib/libc.a(lib_a-strchr.o)
                                        0x5af (size before relaxing)
 .debug_str     0x00000000000019fc       0x32 /usr/local/ps3dev/ppu/lib/gcc/powerpc64-ps3-elf/7.2.0/../../../../powerpc64-ps3-elf/lib/libc.a(lib_a-strcpy.o)
                                        0x5bf (size before relaxing)
 .debug_str     0x0000000000001a2e       0x3c /usr/local/ps3dev/ppu/lib/gcc/powerpc64-ps3-elf/7.2.0/../../../../powerpc64-ps3-elf/lib/libc.a(lib_a-strdup.o)
                                        0x5bc (size before relaxing)
 .debug_str     0x0000000000001a6a       0x32 /usr/local/ps3dev/ppu/lib/gcc/powerpc64-ps3-elf/7.2.0/../../../../powerpc64-ps3-elf/lib/libc.a(lib_a-strdup_r.o)
                                        0x5da (size before relaxing)
 .debug_str     0x0000000000001a9c       0x2b /usr/local/ps3dev/ppu/lib/gcc/powerpc64-ps3-elf/7.2.0/../../../../powerpc64-ps3-elf/lib/libc.a(lib_a-strlen.o)
                                        0x5b7 (size before relaxing)
 .debug_str     0x0000000000001ac7       0x3f /usr/local/ps3dev/ppu/lib/gcc/powerpc64-ps3-elf/7.2.0/../../../../powerpc64-ps3-elf/lib/libc.a(lib_a-strncat.o)
                                        0x5b1 (size before relaxing)
 .debug_str     0x0000000000001b06       0x34 /usr/local/ps3dev/ppu/lib/gcc/powerpc64-ps3-elf/7.2.0/../../../../powerpc64-ps3-elf/lib/libc.a(lib_a-strncpy.o)
                                        0x5ce (size before relaxing)
 .debug_str     0x0000000000001b3a      0x236 /usr/local/ps3dev/ppu/lib/gcc/powerpc64-ps3-elf/7.2.0/../../../../powerpc64-ps3-elf/lib/libc.a(lib_a-svfscanf.o)
                                        0x998 (size before relaxing)
 .debug_str     0x0000000000001d70       0x8d /usr/local/ps3dev/ppu/lib/gcc/powerpc64-ps3-elf/7.2.0/../../../../powerpc64-ps3-elf/lib/libc.a(lib_a-time.o)
                                        0x5e6 (size before relaxing)
 .debug_str     0x0000000000001dfd      0x1d8 /usr/local/ps3dev/ppu/lib/gcc/powerpc64-ps3-elf/7.2.0/../../../../powerpc64-ps3-elf/lib/libc.a(lib_a-vfprintf.o)
                                        0xa83 (size before relaxing)
 .debug_str     0x0000000000001fd5       0x2a /usr/local/ps3dev/ppu/lib/gcc/powerpc64-ps3-elf/7.2.0/../../../../powerpc64-ps3-elf/lib/libc.a(lib_a-wsetup.o)
                                        0x72b (size before relaxing)
 .debug_str     0x0000000000001fff       0x4e /usr/local/ps3dev/ppu/lib/gcc/powerpc64-ps3-elf/7.2.0/../../../../powerpc64-ps3-elf/lib/libc.a(lib_a-__call_atexit.o)
                                        0x61f (size before relaxing)
 .debug_str     0x000000000000204d       0x81 /usr/local/ps3dev/ppu/lib/gcc/powerpc64-ps3-elf/7.2.0/../../../../powerpc64-ps3-elf/lib/libc.a(lib_a-ctype_.o)
                                         0xff (size before relaxing)
 .debug_str     0x00000000000020ce      0x15b /usr/local/ps3dev/ppu/lib/gcc/powerpc64-ps3-elf/7.2.0/../../../../powerpc64-ps3-elf/lib/libc.a(lib_a-dtoa.o)
                                        0x7a0 (size before relaxing)
 .debug_str     0x0000000000002229       0x2e /usr/local/ps3dev/ppu/lib/gcc/powerpc64-ps3-elf/7.2.0/../../../../powerpc64-ps3-elf/lib/libc.a(lib_a-flags.o)
                                        0x5e5 (size before relaxing)
 .debug_str     0x0000000000002257       0x41 /usr/local/ps3dev/ppu/lib/gcc/powerpc64-ps3-elf/7.2.0/../../../../powerpc64-ps3-elf/lib/libc.a(lib_a-fvwrite.o)
                                        0x7af (size before relaxing)
 .debug_str     0x0000000000002298       0x2c /usr/local/ps3dev/ppu/lib/gcc/powerpc64-ps3-elf/7.2.0/../../../../powerpc64-ps3-elf/lib/libc.a(lib_a-iswspace.o)
                                        0x5b5 (size before relaxing)
 .debug_str     0x00000000000022c4      0x243 /usr/local/ps3dev/ppu/lib/gcc/powerpc64-ps3-elf/7.2.0/../../../../powerpc64-ps3-elf/lib/libc.a(lib_a-locale.o)
                                        0x881 (size before relaxing)
 .debug_str     0x0000000000002507       0x53 /usr/local/ps3dev/ppu/lib/gcc/powerpc64-ps3-elf/7.2.0/../../../../powerpc64-ps3-elf/lib/libc.a(lib_a-lock_internal.o)
                                        0x69a (size before relaxing)
 .debug_str     0x000000000000255a       0x3b /usr/local/ps3dev/ppu/lib/gcc/powerpc64-ps3-elf/7.2.0/../../../../powerpc64-ps3-elf/lib/libc.a(lib_a-mbrtowc.o)
                                        0x63f (size before relaxing)
 .debug_str     0x0000000000002595       0x4c /usr/local/ps3dev/ppu/lib/gcc/powerpc64-ps3-elf/7.2.0/../../../../powerpc64-ps3-elf/lib/libc.a(lib_a-mbtowc_r.o)
                                        0x64a (size before relaxing)
 .debug_str     0x00000000000025e1       0x39 /usr/local/ps3dev/ppu/lib/gcc/powerpc64-ps3-elf/7.2.0/../../../../powerpc64-ps3-elf/lib/libc.a(lib_a-memchr.o)
                                        0x5be (size before relaxing)
 .debug_str     0x000000000000261a       0x35 /usr/local/ps3dev/ppu/lib/gcc/powerpc64-ps3-elf/7.2.0/../../../../powerpc64-ps3-elf/lib/libc.a(lib_a-memmove.o)
                                        0x5e3 (size before relaxing)
 .debug_str     0x000000000000264f       0x7a /usr/local/ps3dev/ppu/lib/gcc/powerpc64-ps3-elf/7.2.0/../../../../powerpc64-ps3-elf/lib/libc.a(lib_a-mprec.o)
                                        0x749 (size before relaxing)
 .debug_str     0x00000000000026c9       0x38 /usr/local/ps3dev/ppu/lib/gcc/powerpc64-ps3-elf/7.2.0/../../../../powerpc64-ps3-elf/lib/libc.a(lib_a-sccl.o)
                                        0x6f0 (size before relaxing)
 .debug_str     0x0000000000002701       0xa3 /usr/local/ps3dev/ppu/lib/gcc/powerpc64-ps3-elf/7.2.0/../../../../powerpc64-ps3-elf/lib/libc.a(lib_a-sf_nan.o)
                                        0x647 (size before relaxing)
 .debug_str     0x00000000000027a4       0x53 /usr/local/ps3dev/ppu/lib/gcc/powerpc64-ps3-elf/7.2.0/../../../../powerpc64-ps3-elf/lib/libc.a(lib_a-s_fpclassify.o)
                                        0x651 (size before relaxing)
 .debug_str     0x00000000000027f7       0x43 /usr/local/ps3dev/ppu/lib/gcc/powerpc64-ps3-elf/7.2.0/../../../../powerpc64-ps3-elf/lib/libc.a(lib_a-sprintf.o)
                                        0x735 (size before relaxing)
 .debug_str     0x000000000000283a       0x2b /usr/local/ps3dev/ppu/lib/gcc/powerpc64-ps3-elf/7.2.0/../../../../powerpc64-ps3-elf/lib/libc.a(lib_a-strcmp.o)
                                        0x59d (size before relaxing)
 .debug_str     0x0000000000002865      0x1c8 /usr/local/ps3dev/ppu/lib/gcc/powerpc64-ps3-elf/7.2.0/../../../../powerpc64-ps3-elf/lib/libc.a(lib_a-strtod.o)
                                        0x8e1 (size before relaxing)
 .debug_str     0x0000000000002a2d       0x43 /usr/local/ps3dev/ppu/lib/gcc/powerpc64-ps3-elf/7.2.0/../../../../powerpc64-ps3-elf/lib/libc.a(lib_a-strtoll_r.o)
                                        0x5ff (size before relaxing)
 .debug_str     0x0000000000002a70       0x32 /usr/local/ps3dev/ppu/lib/gcc/powerpc64-ps3-elf/7.2.0/../../../../powerpc64-ps3-elf/lib/libc.a(lib_a-strtol.o)
                                        0x60d (size before relaxing)
 .debug_str     0x0000000000002aa2       0x2f /usr/local/ps3dev/ppu/lib/gcc/powerpc64-ps3-elf/7.2.0/../../../../powerpc64-ps3-elf/lib/libc.a(lib_a-strtoull_r.o)
                                        0x601 (size before relaxing)
 .debug_str     0x0000000000002ad1       0x3f /usr/local/ps3dev/ppu/lib/gcc/powerpc64-ps3-elf/7.2.0/../../../../powerpc64-ps3-elf/lib/libc.a(lib_a-strtoul.o)
                                        0x610 (size before relaxing)
 .debug_str     0x0000000000002b10       0x19 /usr/local/ps3dev/ppu/lib/gcc/powerpc64-ps3-elf/7.2.0/../../../../powerpc64-ps3-elf/lib/libc.a(lib_a-svfiscanf.o)
                                        0x8ec (size before relaxing)
 .debug_str     0x0000000000002b29        0xc /usr/local/ps3dev/ppu/lib/gcc/powerpc64-ps3-elf/7.2.0/../../../../powerpc64-ps3-elf/lib/libc.a(lib_a-svfprintf.o)
                                        0x9ce (size before relaxing)
 .debug_str     0x0000000000002b35       0x3b /usr/local/ps3dev/ppu/lib/gcc/powerpc64-ps3-elf/7.2.0/../../../../powerpc64-ps3-elf/lib/libc.a(lib_a-ungetc.o)
                                        0x77c (size before relaxing)
 .debug_str     0x0000000000002b70       0x21 /usr/local/ps3dev/ppu/lib/gcc/powerpc64-ps3-elf/7.2.0/../../../../powerpc64-ps3-elf/lib/libc.a(lib_a-vfiprintf.o)
                                        0x9cf (size before relaxing)
 .debug_str     0x0000000000002b91       0x30 /usr/local/ps3dev/ppu/lib/gcc/powerpc64-ps3-elf/7.2.0/../../../../powerpc64-ps3-elf/lib/libc.a(lib_a-abort.o)
                                        0x5ea (size before relaxing)
 .debug_str     0x0000000000002bc1       0x71 /usr/local/ps3dev/ppu/lib/gcc/powerpc64-ps3-elf/7.2.0/../../../../powerpc64-ps3-elf/lib/libc.a(lib_a-__atexit.o)
                                        0x64d (size before relaxing)
 .debug_str     0x0000000000002c32       0x48 /usr/local/ps3dev/ppu/lib/gcc/powerpc64-ps3-elf/7.2.0/../../../../powerpc64-ps3-elf/lib/libc.a(lib_a-fputwc.o)
                                        0x798 (size before relaxing)
 .debug_str     0x0000000000002c7a       0xcc /usr/local/ps3dev/ppu/lib/gcc/powerpc64-ps3-elf/7.2.0/../../../../powerpc64-ps3-elf/lib/libc.a(lib_a-gdtoa-gethex.o)
                                        0x87a (size before relaxing)
 .debug_str     0x0000000000002d46       0x39 /usr/local/ps3dev/ppu/lib/gcc/powerpc64-ps3-elf/7.2.0/../../../../powerpc64-ps3-elf/lib/libc.a(lib_a-gdtoa-hexnan.o)
                                        0x779 (size before relaxing)
 .debug_str     0x0000000000002d7f       0xe9 /usr/local/ps3dev/ppu/lib/gcc/powerpc64-ps3-elf/7.2.0/../../../../powerpc64-ps3-elf/lib/libc.a(lib_a-signal.o)
                                        0x65a (size before relaxing)
 .debug_str     0x0000000000002e68       0x2c /usr/local/ps3dev/ppu/lib/gcc/powerpc64-ps3-elf/7.2.0/../../../../powerpc64-ps3-elf/lib/libc.a(lib_a-strncmp.o)
                                        0x5a6 (size before relaxing)
 .debug_str     0x0000000000002e94        0xe /usr/local/ps3dev/ppu/lib/gcc/powerpc64-ps3-elf/7.2.0/../../../../powerpc64-ps3-elf/lib/libc.a(lib_a-svfiprintf.o)
                                        0x933 (size before relaxing)
 .debug_str     0x0000000000002ea2       0x30 /usr/local/ps3dev/ppu/lib/gcc/powerpc64-ps3-elf/7.2.0/../../../../powerpc64-ps3-elf/lib/libc.a(lib_a-wbuf.o)
                                        0x730 (size before relaxing)
 .debug_str     0x0000000000002ed2       0x34 /usr/local/ps3dev/ppu/lib/gcc/powerpc64-ps3-elf/7.2.0/../../../../powerpc64-ps3-elf/lib/libc.a(lib_a-wcrtomb.o)
                                        0x63f (size before relaxing)
 .debug_str     0x0000000000002f06       0x4d /usr/local/ps3dev/ppu/lib/gcc/powerpc64-ps3-elf/7.2.0/../../../../powerpc64-ps3-elf/lib/libc.a(lib_a-wctomb_r.o)
                                        0x643 (size before relaxing)
 .debug_str     0x0000000000002f53       0x28 /usr/local/ps3dev/ppu/lib/gcc/powerpc64-ps3-elf/7.2.0/../../../../powerpc64-ps3-elf/lib/libsysbase.a(close.o)
                                        0xa92 (size before relaxing)
 .debug_str     0x0000000000002f7b       0x2c /usr/local/ps3dev/ppu/lib/gcc/powerpc64-ps3-elf/7.2.0/../../../../powerpc64-ps3-elf/lib/libsysbase.a(sbrk.o)
                                        0xa95 (size before relaxing)
 .debug_str     0x0000000000002fa7       0x28 /usr/local/ps3dev/ppu/lib/gcc/powerpc64-ps3-elf/7.2.0/../../../../powerpc64-ps3-elf/lib/libsysbase.a(_exit.o)
                                        0xa78 (size before relaxing)
 .debug_str     0x0000000000002fcf       0x28 /usr/local/ps3dev/ppu/lib/gcc/powerpc64-ps3-elf/7.2.0/../../../../powerpc64-ps3-elf/lib/libsysbase.a(fstat.o)
                                        0xa92 (size before relaxing)
 .debug_str     0x0000000000002ff7       0x29 /usr/local/ps3dev/ppu/lib/gcc/powerpc64-ps3-elf/7.2.0/../../../../powerpc64-ps3-elf/lib/libsysbase.a(isatty.o)
                                        0xa94 (size before relaxing)
 .debug_str     0x0000000000003020       0x28 /usr/local/ps3dev/ppu/lib/gcc/powerpc64-ps3-elf/7.2.0/../../../../powerpc64-ps3-elf/lib/libsysbase.a(lseek.o)
                                        0xa92 (size before relaxing)
 .debug_str     0x0000000000003048       0x27 /usr/local/ps3dev/ppu/lib/gcc/powerpc64-ps3-elf/7.2.0/../../../../powerpc64-ps3-elf/lib/libsysbase.a(open.o)
                                        0xab6 (size before relaxing)
 .debug_str     0x000000000000306f       0x27 /usr/local/ps3dev/ppu/lib/gcc/powerpc64-ps3-elf/7.2.0/../../../../powerpc64-ps3-elf/lib/libsysbase.a(read.o)
                                        0xa90 (size before relaxing)
 .debug_str     0x0000000000003096       0x28 /usr/local/ps3dev/ppu/lib/gcc/powerpc64-ps3-elf/7.2.0/../../../../powerpc64-ps3-elf/lib/libsysbase.a(write.o)
                                        0xa92 (size before relaxing)
 .debug_str     0x00000000000030be       0x2f /usr/local/ps3dev/ppu/lib/gcc/powerpc64-ps3-elf/7.2.0/../../../../powerpc64-ps3-elf/lib/libsysbase.a(lock.o)
                                        0xb07 (size before relaxing)
 .debug_str     0x00000000000030ed       0x29 /usr/local/ps3dev/ppu/lib/gcc/powerpc64-ps3-elf/7.2.0/../../../../powerpc64-ps3-elf/lib/libsysbase.a(getpid.o)
                                        0xa94 (size before relaxing)
 .debug_str     0x0000000000003116       0x27 /usr/local/ps3dev/ppu/lib/gcc/powerpc64-ps3-elf/7.2.0/../../../../powerpc64-ps3-elf/lib/libsysbase.a(kill.o)
                                        0x5b0 (size before relaxing)
 .debug_str     0x000000000000313d       0x3c /usr/local/ps3dev/ppu/lib/gcc/powerpc64-ps3-elf/7.2.0/../../../../powerpc64-ps3-elf/lib/libsysbase.a(gettod.o)
                                        0xaad (size before relaxing)

.debug_loc      0x0000000000000000    0x2d37f
 *(.debug_loc)
 .debug_loc     0x0000000000000000      0x12a /usr/local/ps3dev/ppu/lib/gcc/powerpc64-ps3-elf/7.2.0/../../../../powerpc64-ps3-elf/lib/libsysbase.a(sleep.o)
 .debug_loc     0x000000000000012a       0x98 /usr/local/ps3dev/ppu/lib/gcc/powerpc64-ps3-elf/7.2.0/../../../../powerpc64-ps3-elf/lib/libc.a(lib_a-calloc.o)
 .debug_loc     0x00000000000001c2      0x373 /usr/local/ps3dev/ppu/lib/gcc/powerpc64-ps3-elf/7.2.0/../../../../powerpc64-ps3-elf/lib/libc.a(lib_a-callocr.o)
 .debug_loc     0x0000000000000535       0x39 /usr/local/ps3dev/ppu/lib/gcc/powerpc64-ps3-elf/7.2.0/../../../../powerpc64-ps3-elf/lib/libc.a(lib_a-exit.o)
 .debug_loc     0x000000000000056e      0x237 /usr/local/ps3dev/ppu/lib/gcc/powerpc64-ps3-elf/7.2.0/../../../../powerpc64-ps3-elf/lib/libc.a(lib_a-fclose.o)
 .debug_loc     0x00000000000007a5      0x8ac /usr/local/ps3dev/ppu/lib/gcc/powerpc64-ps3-elf/7.2.0/../../../../powerpc64-ps3-elf/lib/libc.a(lib_a-fflush.o)
 .debug_loc     0x0000000000001051      0x489 /usr/local/ps3dev/ppu/lib/gcc/powerpc64-ps3-elf/7.2.0/../../../../powerpc64-ps3-elf/lib/libc.a(lib_a-findfp.o)
 .debug_loc     0x00000000000014da      0x347 /usr/local/ps3dev/ppu/lib/gcc/powerpc64-ps3-elf/7.2.0/../../../../powerpc64-ps3-elf/lib/libc.a(lib_a-fopen.o)
 .debug_loc     0x0000000000001821      0x7a3 /usr/local/ps3dev/ppu/lib/gcc/powerpc64-ps3-elf/7.2.0/../../../../powerpc64-ps3-elf/lib/libc.a(lib_a-fread.o)
 .debug_loc     0x0000000000001fc4      0x8b3 /usr/local/ps3dev/ppu/lib/gcc/powerpc64-ps3-elf/7.2.0/../../../../powerpc64-ps3-elf/lib/libc.a(lib_a-freer.o)
 .debug_loc     0x0000000000002877      0x798 /usr/local/ps3dev/ppu/lib/gcc/powerpc64-ps3-elf/7.2.0/../../../../powerpc64-ps3-elf/lib/libc.a(lib_a-fseek.o)
 .debug_loc     0x000000000000300f      0x2b8 /usr/local/ps3dev/ppu/lib/gcc/powerpc64-ps3-elf/7.2.0/../../../../powerpc64-ps3-elf/lib/libc.a(lib_a-ftell.o)
 .debug_loc     0x00000000000032c7      0x4cb /usr/local/ps3dev/ppu/lib/gcc/powerpc64-ps3-elf/7.2.0/../../../../powerpc64-ps3-elf/lib/libc.a(lib_a-fwalk.o)
 .debug_loc     0x0000000000003792       0x5c /usr/local/ps3dev/ppu/lib/gcc/powerpc64-ps3-elf/7.2.0/../../../../powerpc64-ps3-elf/lib/libc.a(lib_a-getreent.o)
 .debug_loc     0x00000000000037ee      0x156 /usr/local/ps3dev/ppu/lib/gcc/powerpc64-ps3-elf/7.2.0/../../../../powerpc64-ps3-elf/lib/libc.a(lib_a-lock_recursive.o)
 .debug_loc     0x0000000000003944      0x273 /usr/local/ps3dev/ppu/lib/gcc/powerpc64-ps3-elf/7.2.0/../../../../powerpc64-ps3-elf/lib/libc.a(lib_a-makebuf.o)
 .debug_loc     0x0000000000003bb7       0x98 /usr/local/ps3dev/ppu/lib/gcc/powerpc64-ps3-elf/7.2.0/../../../../powerpc64-ps3-elf/lib/libc.a(lib_a-malign.o)
 .debug_loc     0x0000000000003c4f      0x457 /usr/local/ps3dev/ppu/lib/gcc/powerpc64-ps3-elf/7.2.0/../../../../powerpc64-ps3-elf/lib/libc.a(lib_a-malignr.o)
 .debug_loc     0x00000000000040a6       0x98 /usr/local/ps3dev/ppu/lib/gcc/powerpc64-ps3-elf/7.2.0/../../../../powerpc64-ps3-elf/lib/libc.a(lib_a-malloc.o)
 .debug_loc     0x000000000000413e     0x15a2 /usr/local/ps3dev/ppu/lib/gcc/powerpc64-ps3-elf/7.2.0/../../../../powerpc64-ps3-elf/lib/libc.a(lib_a-mallocr.o)
 .debug_loc     0x00000000000056e0      0x4a6 /usr/local/ps3dev/ppu/lib/gcc/powerpc64-ps3-elf/7.2.0/../../../../powerpc64-ps3-elf/lib/libc.a(lib_a-memcpy.o)
 .debug_loc     0x0000000000005b86      0x323 /usr/local/ps3dev/ppu/lib/gcc/powerpc64-ps3-elf/7.2.0/../../../../powerpc64-ps3-elf/lib/libc.a(lib_a-memset.o)
 .debug_loc     0x0000000000005ea9       0x72 /usr/local/ps3dev/ppu/lib/gcc/powerpc64-ps3-elf/7.2.0/../../../../powerpc64-ps3-elf/lib/libc.a(lib_a-mlock.o)
 .debug_loc     0x0000000000005f1b      0x192 /usr/local/ps3dev/ppu/lib/gcc/powerpc64-ps3-elf/7.2.0/../../../../powerpc64-ps3-elf/lib/libc.a(lib_a-printf.o)
 .debug_loc     0x00000000000060ad      0x140 /usr/local/ps3dev/ppu/lib/gcc/powerpc64-ps3-elf/7.2.0/../../../../powerpc64-ps3-elf/lib/libc.a(lib_a-puts.o)
 .debug_loc     0x00000000000061ed       0x98 /usr/local/ps3dev/ppu/lib/gcc/powerpc64-ps3-elf/7.2.0/../../../../powerpc64-ps3-elf/lib/libc.a(lib_a-realloc.o)
 .debug_loc     0x0000000000006285     0x1c58 /usr/local/ps3dev/ppu/lib/gcc/powerpc64-ps3-elf/7.2.0/../../../../powerpc64-ps3-elf/lib/libc.a(lib_a-reallocr.o)
 .debug_loc     0x0000000000007edd      0x285 /usr/local/ps3dev/ppu/lib/gcc/powerpc64-ps3-elf/7.2.0/../../../../powerpc64-ps3-elf/lib/libc.a(lib_a-refill.o)
 .debug_loc     0x0000000000008162      0x117 /usr/local/ps3dev/ppu/lib/gcc/powerpc64-ps3-elf/7.2.0/../../../../powerpc64-ps3-elf/lib/libc.a(lib_a-rewind.o)
 .debug_loc     0x0000000000008279      0x1f3 /usr/local/ps3dev/ppu/lib/gcc/powerpc64-ps3-elf/7.2.0/../../../../powerpc64-ps3-elf/lib/libc.a(lib_a-sscanf.o)
 .debug_loc     0x000000000000846c      0x577 /usr/local/ps3dev/ppu/lib/gcc/powerpc64-ps3-elf/7.2.0/../../../../powerpc64-ps3-elf/lib/libc.a(lib_a-stdio.o)
 .debug_loc     0x00000000000089e3      0x270 /usr/local/ps3dev/ppu/lib/gcc/powerpc64-ps3-elf/7.2.0/../../../../powerpc64-ps3-elf/lib/libc.a(lib_a-strcasecmp.o)
 .debug_loc     0x0000000000008c53      0x23e /usr/local/ps3dev/ppu/lib/gcc/powerpc64-ps3-elf/7.2.0/../../../../powerpc64-ps3-elf/lib/libc.a(lib_a-strchr.o)
 .debug_loc     0x0000000000008e91      0x1cf /usr/local/ps3dev/ppu/lib/gcc/powerpc64-ps3-elf/7.2.0/../../../../powerpc64-ps3-elf/lib/libc.a(lib_a-strcpy.o)
 .debug_loc     0x0000000000009060       0x4c /usr/local/ps3dev/ppu/lib/gcc/powerpc64-ps3-elf/7.2.0/../../../../powerpc64-ps3-elf/lib/libc.a(lib_a-strdup.o)
 .debug_loc     0x00000000000090ac      0x104 /usr/local/ps3dev/ppu/lib/gcc/powerpc64-ps3-elf/7.2.0/../../../../powerpc64-ps3-elf/lib/libc.a(lib_a-strdup_r.o)
 .debug_loc     0x00000000000091b0      0x103 /usr/local/ps3dev/ppu/lib/gcc/powerpc64-ps3-elf/7.2.0/../../../../powerpc64-ps3-elf/lib/libc.a(lib_a-strlen.o)
 .debug_loc     0x00000000000092b3      0x16a /usr/local/ps3dev/ppu/lib/gcc/powerpc64-ps3-elf/7.2.0/../../../../powerpc64-ps3-elf/lib/libc.a(lib_a-strncat.o)
 .debug_loc     0x000000000000941d      0x27e /usr/local/ps3dev/ppu/lib/gcc/powerpc64-ps3-elf/7.2.0/../../../../powerpc64-ps3-elf/lib/libc.a(lib_a-strncpy.o)
 .debug_loc     0x000000000000969b     0x2871 /usr/local/ps3dev/ppu/lib/gcc/powerpc64-ps3-elf/7.2.0/../../../../powerpc64-ps3-elf/lib/libc.a(lib_a-svfscanf.o)
 .debug_loc     0x000000000000bf0c       0x5f /usr/local/ps3dev/ppu/lib/gcc/powerpc64-ps3-elf/7.2.0/../../../../powerpc64-ps3-elf/lib/libc.a(lib_a-time.o)
 .debug_loc     0x000000000000bf6b     0x364c /usr/local/ps3dev/ppu/lib/gcc/powerpc64-ps3-elf/7.2.0/../../../../powerpc64-ps3-elf/lib/libc.a(lib_a-vfprintf.o)
 .debug_loc     0x000000000000f5b7       0xbe /usr/local/ps3dev/ppu/lib/gcc/powerpc64-ps3-elf/7.2.0/../../../../powerpc64-ps3-elf/lib/libc.a(lib_a-wsetup.o)
 .debug_loc     0x000000000000f675      0x343 /usr/local/ps3dev/ppu/lib/gcc/powerpc64-ps3-elf/7.2.0/../../../../powerpc64-ps3-elf/lib/libc.a(lib_a-__call_atexit.o)
 .debug_loc     0x000000000000f9b8     0x3eda /usr/local/ps3dev/ppu/lib/gcc/powerpc64-ps3-elf/7.2.0/../../../../powerpc64-ps3-elf/lib/libc.a(lib_a-dtoa.o)
 .debug_loc     0x0000000000013892      0x104 /usr/local/ps3dev/ppu/lib/gcc/powerpc64-ps3-elf/7.2.0/../../../../powerpc64-ps3-elf/lib/libc.a(lib_a-flags.o)
 .debug_loc     0x0000000000013996      0xa59 /usr/local/ps3dev/ppu/lib/gcc/powerpc64-ps3-elf/7.2.0/../../../../powerpc64-ps3-elf/lib/libc.a(lib_a-fvwrite.o)
 .debug_loc     0x00000000000143ef       0x62 /usr/local/ps3dev/ppu/lib/gcc/powerpc64-ps3-elf/7.2.0/../../../../powerpc64-ps3-elf/lib/libc.a(lib_a-iswspace.o)
 .debug_loc     0x0000000000014451      0x276 /usr/local/ps3dev/ppu/lib/gcc/powerpc64-ps3-elf/7.2.0/../../../../powerpc64-ps3-elf/lib/libc.a(lib_a-locale.o)
 .debug_loc     0x00000000000146c7       0x5f /usr/local/ps3dev/ppu/lib/gcc/powerpc64-ps3-elf/7.2.0/../../../../powerpc64-ps3-elf/lib/libc.a(lib_a-lock_internal.o)
 .debug_loc     0x0000000000014726      0x514 /usr/local/ps3dev/ppu/lib/gcc/powerpc64-ps3-elf/7.2.0/../../../../powerpc64-ps3-elf/lib/libc.a(lib_a-mbrtowc.o)
 .debug_loc     0x0000000000014c3a      0x211 /usr/local/ps3dev/ppu/lib/gcc/powerpc64-ps3-elf/7.2.0/../../../../powerpc64-ps3-elf/lib/libc.a(lib_a-mbtowc_r.o)
 .debug_loc     0x0000000000014e4b      0x24b /usr/local/ps3dev/ppu/lib/gcc/powerpc64-ps3-elf/7.2.0/../../../../powerpc64-ps3-elf/lib/libc.a(lib_a-memchr.o)
 .debug_loc     0x0000000000015096      0x5cf /usr/local/ps3dev/ppu/lib/gcc/powerpc64-ps3-elf/7.2.0/../../../../powerpc64-ps3-elf/lib/libc.a(lib_a-memmove.o)
 .debug_loc     0x0000000000015665     0x377c /usr/local/ps3dev/ppu/lib/gcc/powerpc64-ps3-elf/7.2.0/../../../../powerpc64-ps3-elf/lib/libc.a(lib_a-mprec.o)
 .debug_loc     0x0000000000018de1      0x311 /usr/local/ps3dev/ppu/lib/gcc/powerpc64-ps3-elf/7.2.0/../../../../powerpc64-ps3-elf/lib/libc.a(lib_a-sccl.o)
 .debug_loc     0x00000000000190f2       0xcb /usr/local/ps3dev/ppu/lib/gcc/powerpc64-ps3-elf/7.2.0/../../../../powerpc64-ps3-elf/lib/libc.a(lib_a-s_fpclassify.o)
 .debug_loc     0x00000000000191bd      0x1fc /usr/local/ps3dev/ppu/lib/gcc/powerpc64-ps3-elf/7.2.0/../../../../powerpc64-ps3-elf/lib/libc.a(lib_a-sprintf.o)
 .debug_loc     0x00000000000193b9      0x224 /usr/local/ps3dev/ppu/lib/gcc/powerpc64-ps3-elf/7.2.0/../../../../powerpc64-ps3-elf/lib/libc.a(lib_a-strcmp.o)
 .debug_loc     0x00000000000195dd     0x3742 /usr/local/ps3dev/ppu/lib/gcc/powerpc64-ps3-elf/7.2.0/../../../../powerpc64-ps3-elf/lib/libc.a(lib_a-strtod.o)
 .debug_loc     0x000000000001cd1f      0x59c /usr/local/ps3dev/ppu/lib/gcc/powerpc64-ps3-elf/7.2.0/../../../../powerpc64-ps3-elf/lib/libc.a(lib_a-strtoll_r.o)
 .debug_loc     0x000000000001d2bb      0x693 /usr/local/ps3dev/ppu/lib/gcc/powerpc64-ps3-elf/7.2.0/../../../../powerpc64-ps3-elf/lib/libc.a(lib_a-strtol.o)
 .debug_loc     0x000000000001d94e      0x577 /usr/local/ps3dev/ppu/lib/gcc/powerpc64-ps3-elf/7.2.0/../../../../powerpc64-ps3-elf/lib/libc.a(lib_a-strtoull_r.o)
 .debug_loc     0x000000000001dec5      0x66e /usr/local/ps3dev/ppu/lib/gcc/powerpc64-ps3-elf/7.2.0/../../../../powerpc64-ps3-elf/lib/libc.a(lib_a-strtoul.o)
 .debug_loc     0x000000000001e533     0x1f4d /usr/local/ps3dev/ppu/lib/gcc/powerpc64-ps3-elf/7.2.0/../../../../powerpc64-ps3-elf/lib/libc.a(lib_a-svfiscanf.o)
 .debug_loc     0x0000000000020480     0x320d /usr/local/ps3dev/ppu/lib/gcc/powerpc64-ps3-elf/7.2.0/../../../../powerpc64-ps3-elf/lib/libc.a(lib_a-svfprintf.o)
 .debug_loc     0x000000000002368d      0x495 /usr/local/ps3dev/ppu/lib/gcc/powerpc64-ps3-elf/7.2.0/../../../../powerpc64-ps3-elf/lib/libc.a(lib_a-ungetc.o)
 .debug_loc     0x0000000000023b22     0x2b4b /usr/local/ps3dev/ppu/lib/gcc/powerpc64-ps3-elf/7.2.0/../../../../powerpc64-ps3-elf/lib/libc.a(lib_a-vfiprintf.o)
 .debug_loc     0x000000000002666d      0x1fe /usr/local/ps3dev/ppu/lib/gcc/powerpc64-ps3-elf/7.2.0/../../../../powerpc64-ps3-elf/lib/libc.a(lib_a-__atexit.o)
 .debug_loc     0x000000000002686b      0x435 /usr/local/ps3dev/ppu/lib/gcc/powerpc64-ps3-elf/7.2.0/../../../../powerpc64-ps3-elf/lib/libc.a(lib_a-fputwc.o)
 .debug_loc     0x0000000000026ca0     0x1e8c /usr/local/ps3dev/ppu/lib/gcc/powerpc64-ps3-elf/7.2.0/../../../../powerpc64-ps3-elf/lib/libc.a(lib_a-gdtoa-gethex.o)
 .debug_loc     0x0000000000028b2c      0x98a /usr/local/ps3dev/ppu/lib/gcc/powerpc64-ps3-elf/7.2.0/../../../../powerpc64-ps3-elf/lib/libc.a(lib_a-gdtoa-hexnan.o)
 .debug_loc     0x00000000000294b6      0xb4f /usr/local/ps3dev/ppu/lib/gcc/powerpc64-ps3-elf/7.2.0/../../../../powerpc64-ps3-elf/lib/libc.a(lib_a-signal.o)
 .debug_loc     0x000000000002a005      0x1b6 /usr/local/ps3dev/ppu/lib/gcc/powerpc64-ps3-elf/7.2.0/../../../../powerpc64-ps3-elf/lib/libc.a(lib_a-strncmp.o)
 .debug_loc     0x000000000002a1bb     0x1bfd /usr/local/ps3dev/ppu/lib/gcc/powerpc64-ps3-elf/7.2.0/../../../../powerpc64-ps3-elf/lib/libc.a(lib_a-svfiprintf.o)
 .debug_loc     0x000000000002bdb8      0x28b /usr/local/ps3dev/ppu/lib/gcc/powerpc64-ps3-elf/7.2.0/../../../../powerpc64-ps3-elf/lib/libc.a(lib_a-wbuf.o)
 .debug_loc     0x000000000002c043      0x402 /usr/local/ps3dev/ppu/lib/gcc/powerpc64-ps3-elf/7.2.0/../../../../powerpc64-ps3-elf/lib/libc.a(lib_a-wcrtomb.o)
 .debug_loc     0x000000000002c445      0x168 /usr/local/ps3dev/ppu/lib/gcc/powerpc64-ps3-elf/7.2.0/../../../../powerpc64-ps3-elf/lib/libc.a(lib_a-wctomb_r.o)
 .debug_loc     0x000000000002c5ad       0xab /usr/local/ps3dev/ppu/lib/gcc/powerpc64-ps3-elf/7.2.0/../../../../powerpc64-ps3-elf/lib/libsysbase.a(close.o)
 .debug_loc     0x000000000002c658       0xab /usr/local/ps3dev/ppu/lib/gcc/powerpc64-ps3-elf/7.2.0/../../../../powerpc64-ps3-elf/lib/libsysbase.a(sbrk.o)
 .debug_loc     0x000000000002c703       0x39 /usr/local/ps3dev/ppu/lib/gcc/powerpc64-ps3-elf/7.2.0/../../../../powerpc64-ps3-elf/lib/libsysbase.a(_exit.o)
 .debug_loc     0x000000000002c73c       0xf7 /usr/local/ps3dev/ppu/lib/gcc/powerpc64-ps3-elf/7.2.0/../../../../powerpc64-ps3-elf/lib/libsysbase.a(fstat.o)
 .debug_loc     0x000000000002c833       0xab /usr/local/ps3dev/ppu/lib/gcc/powerpc64-ps3-elf/7.2.0/../../../../powerpc64-ps3-elf/lib/libsysbase.a(isatty.o)
 .debug_loc     0x000000000002c8de      0x143 /usr/local/ps3dev/ppu/lib/gcc/powerpc64-ps3-elf/7.2.0/../../../../powerpc64-ps3-elf/lib/libsysbase.a(lseek.o)
 .debug_loc     0x000000000002ca21      0x143 /usr/local/ps3dev/ppu/lib/gcc/powerpc64-ps3-elf/7.2.0/../../../../powerpc64-ps3-elf/lib/libsysbase.a(open.o)
 .debug_loc     0x000000000002cb64      0x143 /usr/local/ps3dev/ppu/lib/gcc/powerpc64-ps3-elf/7.2.0/../../../../powerpc64-ps3-elf/lib/libsysbase.a(read.o)
 .debug_loc     0x000000000002cca7      0x143 /usr/local/ps3dev/ppu/lib/gcc/powerpc64-ps3-elf/7.2.0/../../../../powerpc64-ps3-elf/lib/libsysbase.a(write.o)
 .debug_loc     0x000000000002cdea      0x406 /usr/local/ps3dev/ppu/lib/gcc/powerpc64-ps3-elf/7.2.0/../../../../powerpc64-ps3-elf/lib/libsysbase.a(lock.o)
 .debug_loc     0x000000000002d1f0       0x5f /usr/local/ps3dev/ppu/lib/gcc/powerpc64-ps3-elf/7.2.0/../../../../powerpc64-ps3-elf/lib/libsysbase.a(getpid.o)
 .debug_loc     0x000000000002d24f       0x39 /usr/local/ps3dev/ppu/lib/gcc/powerpc64-ps3-elf/7.2.0/../../../../powerpc64-ps3-elf/lib/libsysbase.a(kill.o)
 .debug_loc     0x000000000002d288       0xf7 /usr/local/ps3dev/ppu/lib/gcc/powerpc64-ps3-elf/7.2.0/../../../../powerpc64-ps3-elf/lib/libsysbase.a(gettod.o)

.debug_macinfo
 *(.debug_macinfo)

.debug_weaknames
 *(.debug_weaknames)

.debug_funcnames
 *(.debug_funcnames)

.debug_typenames
 *(.debug_typenames)

.debug_varnames
 *(.debug_varnames)

.debug_pubtypes
 *(.debug_pubtypes)

.debug_ranges   0x0000000000000000     0x2db0
 *(.debug_ranges)
 .debug_ranges  0x0000000000000000       0x30 /usr/local/ps3dev/ppu/lib/gcc/powerpc64-ps3-elf/7.2.0/../../../../powerpc64-ps3-elf/lib/libsysbase.a(sleep.o)
 .debug_ranges  0x0000000000000030       0x20 /usr/local/ps3dev/ppu/lib/gcc/powerpc64-ps3-elf/7.2.0/../../../../powerpc64-ps3-elf/lib/libc.a(lib_a-calloc.o)
 .debug_ranges  0x0000000000000050       0x90 /usr/local/ps3dev/ppu/lib/gcc/powerpc64-ps3-elf/7.2.0/../../../../powerpc64-ps3-elf/lib/libc.a(lib_a-callocr.o)
 .debug_ranges  0x00000000000000e0       0x20 /usr/local/ps3dev/ppu/lib/gcc/powerpc64-ps3-elf/7.2.0/../../../../powerpc64-ps3-elf/lib/libc.a(lib_a-errno.o)
 .debug_ranges  0x0000000000000100       0x20 /usr/local/ps3dev/ppu/lib/gcc/powerpc64-ps3-elf/7.2.0/../../../../powerpc64-ps3-elf/lib/libc.a(lib_a-exit.o)
 .debug_ranges  0x0000000000000120       0x60 /usr/local/ps3dev/ppu/lib/gcc/powerpc64-ps3-elf/7.2.0/../../../../powerpc64-ps3-elf/lib/libc.a(lib_a-fclose.o)
 .debug_ranges  0x0000000000000180      0x100 /usr/local/ps3dev/ppu/lib/gcc/powerpc64-ps3-elf/7.2.0/../../../../powerpc64-ps3-elf/lib/libc.a(lib_a-fflush.o)
 .debug_ranges  0x0000000000000280      0x200 /usr/local/ps3dev/ppu/lib/gcc/powerpc64-ps3-elf/7.2.0/../../../../powerpc64-ps3-elf/lib/libc.a(lib_a-findfp.o)
 .debug_ranges  0x0000000000000480       0x30 /usr/local/ps3dev/ppu/lib/gcc/powerpc64-ps3-elf/7.2.0/../../../../powerpc64-ps3-elf/lib/libc.a(lib_a-fopen.o)
 .debug_ranges  0x00000000000004b0       0x90 /usr/local/ps3dev/ppu/lib/gcc/powerpc64-ps3-elf/7.2.0/../../../../powerpc64-ps3-elf/lib/libc.a(lib_a-fread.o)
 .debug_ranges  0x0000000000000540       0x30 /usr/local/ps3dev/ppu/lib/gcc/powerpc64-ps3-elf/7.2.0/../../../../powerpc64-ps3-elf/lib/libc.a(lib_a-freer.o)
 .debug_ranges  0x0000000000000570       0x70 /usr/local/ps3dev/ppu/lib/gcc/powerpc64-ps3-elf/7.2.0/../../../../powerpc64-ps3-elf/lib/libc.a(lib_a-fseek.o)
 .debug_ranges  0x00000000000005e0       0x30 /usr/local/ps3dev/ppu/lib/gcc/powerpc64-ps3-elf/7.2.0/../../../../powerpc64-ps3-elf/lib/libc.a(lib_a-ftell.o)
 .debug_ranges  0x0000000000000610       0x30 /usr/local/ps3dev/ppu/lib/gcc/powerpc64-ps3-elf/7.2.0/../../../../powerpc64-ps3-elf/lib/libc.a(lib_a-fwalk.o)
 .debug_ranges  0x0000000000000640       0x60 /usr/local/ps3dev/ppu/lib/gcc/powerpc64-ps3-elf/7.2.0/../../../../powerpc64-ps3-elf/lib/libc.a(lib_a-getreent.o)
 .debug_ranges  0x00000000000006a0       0x60 /usr/local/ps3dev/ppu/lib/gcc/powerpc64-ps3-elf/7.2.0/../../../../powerpc64-ps3-elf/lib/libc.a(lib_a-lock_recursive.o)
 .debug_ranges  0x0000000000000700       0x20 /usr/local/ps3dev/ppu/lib/gcc/powerpc64-ps3-elf/7.2.0/../../../../powerpc64-ps3-elf/lib/libc.a(lib_a-makebuf.o)
 .debug_ranges  0x0000000000000720       0x20 /usr/local/ps3dev/ppu/lib/gcc/powerpc64-ps3-elf/7.2.0/../../../../powerpc64-ps3-elf/lib/libc.a(lib_a-malign.o)
 .debug_ranges  0x0000000000000740       0x20 /usr/local/ps3dev/ppu/lib/gcc/powerpc64-ps3-elf/7.2.0/../../../../powerpc64-ps3-elf/lib/libc.a(lib_a-malignr.o)
 .debug_ranges  0x0000000000000760       0x30 /usr/local/ps3dev/ppu/lib/gcc/powerpc64-ps3-elf/7.2.0/../../../../powerpc64-ps3-elf/lib/libc.a(lib_a-malloc.o)
 .debug_ranges  0x0000000000000790       0xa0 /usr/local/ps3dev/ppu/lib/gcc/powerpc64-ps3-elf/7.2.0/../../../../powerpc64-ps3-elf/lib/libc.a(lib_a-mallocr.o)
 .debug_ranges  0x0000000000000830       0x20 /usr/local/ps3dev/ppu/lib/gcc/powerpc64-ps3-elf/7.2.0/../../../../powerpc64-ps3-elf/lib/libc.a(lib_a-memcpy.o)
 .debug_ranges  0x0000000000000850       0x20 /usr/local/ps3dev/ppu/lib/gcc/powerpc64-ps3-elf/7.2.0/../../../../powerpc64-ps3-elf/lib/libc.a(lib_a-memset.o)
 .debug_ranges  0x0000000000000870       0x30 /usr/local/ps3dev/ppu/lib/gcc/powerpc64-ps3-elf/7.2.0/../../../../powerpc64-ps3-elf/lib/libc.a(lib_a-mlock.o)
 .debug_ranges  0x00000000000008a0       0x30 /usr/local/ps3dev/ppu/lib/gcc/powerpc64-ps3-elf/7.2.0/../../../../powerpc64-ps3-elf/lib/libc.a(lib_a-printf.o)
 .debug_ranges  0x00000000000008d0       0x30 /usr/local/ps3dev/ppu/lib/gcc/powerpc64-ps3-elf/7.2.0/../../../../powerpc64-ps3-elf/lib/libc.a(lib_a-puts.o)
 .debug_ranges  0x0000000000000900       0x20 /usr/local/ps3dev/ppu/lib/gcc/powerpc64-ps3-elf/7.2.0/../../../../powerpc64-ps3-elf/lib/libc.a(lib_a-realloc.o)
 .debug_ranges  0x0000000000000920      0x350 /usr/local/ps3dev/ppu/lib/gcc/powerpc64-ps3-elf/7.2.0/../../../../powerpc64-ps3-elf/lib/libc.a(lib_a-reallocr.o)
 .debug_ranges  0x0000000000000c70       0x30 /usr/local/ps3dev/ppu/lib/gcc/powerpc64-ps3-elf/7.2.0/../../../../powerpc64-ps3-elf/lib/libc.a(lib_a-refill.o)
 .debug_ranges  0x0000000000000ca0       0x60 /usr/local/ps3dev/ppu/lib/gcc/powerpc64-ps3-elf/7.2.0/../../../../powerpc64-ps3-elf/lib/libc.a(lib_a-rewind.o)
 .debug_ranges  0x0000000000000d00       0x30 /usr/local/ps3dev/ppu/lib/gcc/powerpc64-ps3-elf/7.2.0/../../../../powerpc64-ps3-elf/lib/libc.a(lib_a-sscanf.o)
 .debug_ranges  0x0000000000000d30       0x60 /usr/local/ps3dev/ppu/lib/gcc/powerpc64-ps3-elf/7.2.0/../../../../powerpc64-ps3-elf/lib/libc.a(lib_a-stdio.o)
 .debug_ranges  0x0000000000000d90       0x80 /usr/local/ps3dev/ppu/lib/gcc/powerpc64-ps3-elf/7.2.0/../../../../powerpc64-ps3-elf/lib/libc.a(lib_a-strcasecmp.o)
 .debug_ranges  0x0000000000000e10       0x20 /usr/local/ps3dev/ppu/lib/gcc/powerpc64-ps3-elf/7.2.0/../../../../powerpc64-ps3-elf/lib/libc.a(lib_a-strchr.o)
 .debug_ranges  0x0000000000000e30       0x20 /usr/local/ps3dev/ppu/lib/gcc/powerpc64-ps3-elf/7.2.0/../../../../powerpc64-ps3-elf/lib/libc.a(lib_a-strcpy.o)
 .debug_ranges  0x0000000000000e50       0x20 /usr/local/ps3dev/ppu/lib/gcc/powerpc64-ps3-elf/7.2.0/../../../../powerpc64-ps3-elf/lib/libc.a(lib_a-strdup.o)
 .debug_ranges  0x0000000000000e70       0x20 /usr/local/ps3dev/ppu/lib/gcc/powerpc64-ps3-elf/7.2.0/../../../../powerpc64-ps3-elf/lib/libc.a(lib_a-strdup_r.o)
 .debug_ranges  0x0000000000000e90       0x20 /usr/local/ps3dev/ppu/lib/gcc/powerpc64-ps3-elf/7.2.0/../../../../powerpc64-ps3-elf/lib/libc.a(lib_a-strlen.o)
 .debug_ranges  0x0000000000000eb0       0x20 /usr/local/ps3dev/ppu/lib/gcc/powerpc64-ps3-elf/7.2.0/../../../../powerpc64-ps3-elf/lib/libc.a(lib_a-strncat.o)
 .debug_ranges  0x0000000000000ed0       0x20 /usr/local/ps3dev/ppu/lib/gcc/powerpc64-ps3-elf/7.2.0/../../../../powerpc64-ps3-elf/lib/libc.a(lib_a-strncpy.o)
 .debug_ranges  0x0000000000000ef0      0x350 /usr/local/ps3dev/ppu/lib/gcc/powerpc64-ps3-elf/7.2.0/../../../../powerpc64-ps3-elf/lib/libc.a(lib_a-svfscanf.o)
 .debug_ranges  0x0000000000001240       0x20 /usr/local/ps3dev/ppu/lib/gcc/powerpc64-ps3-elf/7.2.0/../../../../powerpc64-ps3-elf/lib/libc.a(lib_a-time.o)
 .debug_ranges  0x0000000000001260      0x350 /usr/local/ps3dev/ppu/lib/gcc/powerpc64-ps3-elf/7.2.0/../../../../powerpc64-ps3-elf/lib/libc.a(lib_a-vfprintf.o)
 .debug_ranges  0x00000000000015b0       0x20 /usr/local/ps3dev/ppu/lib/gcc/powerpc64-ps3-elf/7.2.0/../../../../powerpc64-ps3-elf/lib/libc.a(lib_a-wsetup.o)
 .debug_ranges  0x00000000000015d0       0x80 /usr/local/ps3dev/ppu/lib/gcc/powerpc64-ps3-elf/7.2.0/../../../../powerpc64-ps3-elf/lib/libc.a(lib_a-__call_atexit.o)
 .debug_ranges  0x0000000000001650       0x30 /usr/local/ps3dev/ppu/lib/gcc/powerpc64-ps3-elf/7.2.0/../../../../powerpc64-ps3-elf/lib/libc.a(lib_a-dtoa.o)
 .debug_ranges  0x0000000000001680       0x20 /usr/local/ps3dev/ppu/lib/gcc/powerpc64-ps3-elf/7.2.0/../../../../powerpc64-ps3-elf/lib/libc.a(lib_a-flags.o)
 .debug_ranges  0x00000000000016a0       0x60 /usr/local/ps3dev/ppu/lib/gcc/powerpc64-ps3-elf/7.2.0/../../../../powerpc64-ps3-elf/lib/libc.a(lib_a-fvwrite.o)
 .debug_ranges  0x0000000000001700       0x20 /usr/local/ps3dev/ppu/lib/gcc/powerpc64-ps3-elf/7.2.0/../../../../powerpc64-ps3-elf/lib/libc.a(lib_a-iswspace.o)
 .debug_ranges  0x0000000000001720       0xc0 /usr/local/ps3dev/ppu/lib/gcc/powerpc64-ps3-elf/7.2.0/../../../../powerpc64-ps3-elf/lib/libc.a(lib_a-locale.o)
 .debug_ranges  0x00000000000017e0       0x30 /usr/local/ps3dev/ppu/lib/gcc/powerpc64-ps3-elf/7.2.0/../../../../powerpc64-ps3-elf/lib/libc.a(lib_a-lock_internal.o)
 .debug_ranges  0x0000000000001810       0x30 /usr/local/ps3dev/ppu/lib/gcc/powerpc64-ps3-elf/7.2.0/../../../../powerpc64-ps3-elf/lib/libc.a(lib_a-mbrtowc.o)
 .debug_ranges  0x0000000000001840       0x30 /usr/local/ps3dev/ppu/lib/gcc/powerpc64-ps3-elf/7.2.0/../../../../powerpc64-ps3-elf/lib/libc.a(lib_a-mbtowc_r.o)
 .debug_ranges  0x0000000000001870       0x20 /usr/local/ps3dev/ppu/lib/gcc/powerpc64-ps3-elf/7.2.0/../../../../powerpc64-ps3-elf/lib/libc.a(lib_a-memchr.o)
 .debug_ranges  0x0000000000001890       0x20 /usr/local/ps3dev/ppu/lib/gcc/powerpc64-ps3-elf/7.2.0/../../../../powerpc64-ps3-elf/lib/libc.a(lib_a-memmove.o)
 .debug_ranges  0x00000000000018b0      0x2d0 /usr/local/ps3dev/ppu/lib/gcc/powerpc64-ps3-elf/7.2.0/../../../../powerpc64-ps3-elf/lib/libc.a(lib_a-mprec.o)
 .debug_ranges  0x0000000000001b80       0x20 /usr/local/ps3dev/ppu/lib/gcc/powerpc64-ps3-elf/7.2.0/../../../../powerpc64-ps3-elf/lib/libc.a(lib_a-sccl.o)
 .debug_ranges  0x0000000000001ba0       0x20 /usr/local/ps3dev/ppu/lib/gcc/powerpc64-ps3-elf/7.2.0/../../../../powerpc64-ps3-elf/lib/libc.a(lib_a-sf_nan.o)
 .debug_ranges  0x0000000000001bc0       0x20 /usr/local/ps3dev/ppu/lib/gcc/powerpc64-ps3-elf/7.2.0/../../../../powerpc64-ps3-elf/lib/libc.a(lib_a-s_fpclassify.o)
 .debug_ranges  0x0000000000001be0       0x30 /usr/local/ps3dev/ppu/lib/gcc/powerpc64-ps3-elf/7.2.0/../../../../powerpc64-ps3-elf/lib/libc.a(lib_a-sprintf.o)
 .debug_ranges  0x0000000000001c10       0x20 /usr/local/ps3dev/ppu/lib/gcc/powerpc64-ps3-elf/7.2.0/../../../../powerpc64-ps3-elf/lib/libc.a(lib_a-strcmp.o)
 .debug_ranges  0x0000000000001c30      0x150 /usr/local/ps3dev/ppu/lib/gcc/powerpc64-ps3-elf/7.2.0/../../../../powerpc64-ps3-elf/lib/libc.a(lib_a-strtod.o)
 .debug_ranges  0x0000000000001d80       0x20 /usr/local/ps3dev/ppu/lib/gcc/powerpc64-ps3-elf/7.2.0/../../../../powerpc64-ps3-elf/lib/libc.a(lib_a-strtoll_r.o)
 .debug_ranges  0x0000000000001da0       0x30 /usr/local/ps3dev/ppu/lib/gcc/powerpc64-ps3-elf/7.2.0/../../../../powerpc64-ps3-elf/lib/libc.a(lib_a-strtol.o)
 .debug_ranges  0x0000000000001dd0       0x20 /usr/local/ps3dev/ppu/lib/gcc/powerpc64-ps3-elf/7.2.0/../../../../powerpc64-ps3-elf/lib/libc.a(lib_a-strtoull_r.o)
 .debug_ranges  0x0000000000001df0       0x30 /usr/local/ps3dev/ppu/lib/gcc/powerpc64-ps3-elf/7.2.0/../../../../powerpc64-ps3-elf/lib/libc.a(lib_a-strtoul.o)
 .debug_ranges  0x0000000000001e20      0x220 /usr/local/ps3dev/ppu/lib/gcc/powerpc64-ps3-elf/7.2.0/../../../../powerpc64-ps3-elf/lib/libc.a(lib_a-svfiscanf.o)
 .debug_ranges  0x0000000000002040      0x330 /usr/local/ps3dev/ppu/lib/gcc/powerpc64-ps3-elf/7.2.0/../../../../powerpc64-ps3-elf/lib/libc.a(lib_a-svfprintf.o)
 .debug_ranges  0x0000000000002370       0x90 /usr/local/ps3dev/ppu/lib/gcc/powerpc64-ps3-elf/7.2.0/../../../../powerpc64-ps3-elf/lib/libc.a(lib_a-ungetc.o)
 .debug_ranges  0x0000000000002400      0x380 /usr/local/ps3dev/ppu/lib/gcc/powerpc64-ps3-elf/7.2.0/../../../../powerpc64-ps3-elf/lib/libc.a(lib_a-vfiprintf.o)
 .debug_ranges  0x0000000000002780       0x20 /usr/local/ps3dev/ppu/lib/gcc/powerpc64-ps3-elf/7.2.0/../../../../powerpc64-ps3-elf/lib/libc.a(lib_a-abort.o)
 .debug_ranges  0x00000000000027a0       0x20 /usr/local/ps3dev/ppu/lib/gcc/powerpc64-ps3-elf/7.2.0/../../../../powerpc64-ps3-elf/lib/libc.a(lib_a-__atexit.o)
 .debug_ranges  0x00000000000027c0       0x70 /usr/local/ps3dev/ppu/lib/gcc/powerpc64-ps3-elf/7.2.0/../../../../powerpc64-ps3-elf/lib/libc.a(lib_a-fputwc.o)
 .debug_ranges  0x0000000000002830       0x90 /usr/local/ps3dev/ppu/lib/gcc/powerpc64-ps3-elf/7.2.0/../../../../powerpc64-ps3-elf/lib/libc.a(lib_a-gdtoa-gethex.o)
 .debug_ranges  0x00000000000028c0       0x20 /usr/local/ps3dev/ppu/lib/gcc/powerpc64-ps3-elf/7.2.0/../../../../powerpc64-ps3-elf/lib/libc.a(lib_a-gdtoa-hexnan.o)
 .debug_ranges  0x00000000000028e0      0x180 /usr/local/ps3dev/ppu/lib/gcc/powerpc64-ps3-elf/7.2.0/../../../../powerpc64-ps3-elf/lib/libc.a(lib_a-signal.o)
 .debug_ranges  0x0000000000002a60       0x20 /usr/local/ps3dev/ppu/lib/gcc/powerpc64-ps3-elf/7.2.0/../../../../powerpc64-ps3-elf/lib/libc.a(lib_a-strncmp.o)
 .debug_ranges  0x0000000000002a80       0xc0 /usr/local/ps3dev/ppu/lib/gcc/powerpc64-ps3-elf/7.2.0/../../../../powerpc64-ps3-elf/lib/libc.a(lib_a-svfiprintf.o)
 .debug_ranges  0x0000000000002b40       0x30 /usr/local/ps3dev/ppu/lib/gcc/powerpc64-ps3-elf/7.2.0/../../../../powerpc64-ps3-elf/lib/libc.a(lib_a-wbuf.o)
 .debug_ranges  0x0000000000002b70       0x30 /usr/local/ps3dev/ppu/lib/gcc/powerpc64-ps3-elf/7.2.0/../../../../powerpc64-ps3-elf/lib/libc.a(lib_a-wcrtomb.o)
 .debug_ranges  0x0000000000002ba0       0x30 /usr/local/ps3dev/ppu/lib/gcc/powerpc64-ps3-elf/7.2.0/../../../../powerpc64-ps3-elf/lib/libc.a(lib_a-wctomb_r.o)
 .debug_ranges  0x0000000000002bd0       0x20 /usr/local/ps3dev/ppu/lib/gcc/powerpc64-ps3-elf/7.2.0/../../../../powerpc64-ps3-elf/lib/libsysbase.a(close.o)
 .debug_ranges  0x0000000000002bf0       0x20 /usr/local/ps3dev/ppu/lib/gcc/powerpc64-ps3-elf/7.2.0/../../../../powerpc64-ps3-elf/lib/libsysbase.a(sbrk.o)
 .debug_ranges  0x0000000000002c10       0x20 /usr/local/ps3dev/ppu/lib/gcc/powerpc64-ps3-elf/7.2.0/../../../../powerpc64-ps3-elf/lib/libsysbase.a(_exit.o)
 .debug_ranges  0x0000000000002c30       0x20 /usr/local/ps3dev/ppu/lib/gcc/powerpc64-ps3-elf/7.2.0/../../../../powerpc64-ps3-elf/lib/libsysbase.a(fstat.o)
 .debug_ranges  0x0000000000002c50       0x20 /usr/local/ps3dev/ppu/lib/gcc/powerpc64-ps3-elf/7.2.0/../../../../powerpc64-ps3-elf/lib/libsysbase.a(isatty.o)
 .debug_ranges  0x0000000000002c70       0x20 /usr/local/ps3dev/ppu/lib/gcc/powerpc64-ps3-elf/7.2.0/../../../../powerpc64-ps3-elf/lib/libsysbase.a(lseek.o)
 .debug_ranges  0x0000000000002c90       0x20 /usr/local/ps3dev/ppu/lib/gcc/powerpc64-ps3-elf/7.2.0/../../../../powerpc64-ps3-elf/lib/libsysbase.a(open.o)
 .debug_ranges  0x0000000000002cb0       0x20 /usr/local/ps3dev/ppu/lib/gcc/powerpc64-ps3-elf/7.2.0/../../../../powerpc64-ps3-elf/lib/libsysbase.a(read.o)
 .debug_ranges  0x0000000000002cd0       0x20 /usr/local/ps3dev/ppu/lib/gcc/powerpc64-ps3-elf/7.2.0/../../../../powerpc64-ps3-elf/lib/libsysbase.a(write.o)
 .debug_ranges  0x0000000000002cf0       0x60 /usr/local/ps3dev/ppu/lib/gcc/powerpc64-ps3-elf/7.2.0/../../../../powerpc64-ps3-elf/lib/libsysbase.a(lock.o)
 .debug_ranges  0x0000000000002d50       0x20 /usr/local/ps3dev/ppu/lib/gcc/powerpc64-ps3-elf/7.2.0/../../../../powerpc64-ps3-elf/lib/libsysbase.a(getpid.o)
 .debug_ranges  0x0000000000002d70       0x20 /usr/local/ps3dev/ppu/lib/gcc/powerpc64-ps3-elf/7.2.0/../../../../powerpc64-ps3-elf/lib/libsysbase.a(kill.o)
 .debug_ranges  0x0000000000002d90       0x20 /usr/local/ps3dev/ppu/lib/gcc/powerpc64-ps3-elf/7.2.0/../../../../powerpc64-ps3-elf/lib/libsysbase.a(gettod.o)

.gnu.attributes
                0x0000000000000000       0x90
 *(.gnu.attributes)
 .gnu.attributes
                0x0000000000000000       0x10 /usr/local/ps3dev/ppu/lib/librsx.a(commands.o)
 .gnu.attributes
                0x0000000000000010       0x10 /usr/local/ps3dev/ppu/lib/gcc/powerpc64-ps3-elf/7.2.0/../../../../powerpc64-ps3-elf/lib/libc.a(lib_a-svfscanf.o)
 .gnu.attributes
                0x0000000000000020       0x10 /usr/local/ps3dev/ppu/lib/gcc/powerpc64-ps3-elf/7.2.0/../../../../powerpc64-ps3-elf/lib/libc.a(lib_a-vfprintf.o)
 .gnu.attributes
                0x0000000000000030       0x10 /usr/local/ps3dev/ppu/lib/gcc/powerpc64-ps3-elf/7.2.0/../../../../powerpc64-ps3-elf/lib/libc.a(lib_a-dtoa.o)
 .gnu.attributes
                0x0000000000000040       0x10 /usr/local/ps3dev/ppu/lib/gcc/powerpc64-ps3-elf/7.2.0/../../../../powerpc64-ps3-elf/lib/libc.a(lib_a-mprec.o)
 .gnu.attributes
                0x0000000000000050       0x10 /usr/local/ps3dev/ppu/lib/gcc/powerpc64-ps3-elf/7.2.0/../../../../powerpc64-ps3-elf/lib/libc.a(lib_a-sf_nan.o)
 .gnu.attributes
                0x0000000000000060       0x10 /usr/local/ps3dev/ppu/lib/gcc/powerpc64-ps3-elf/7.2.0/../../../../powerpc64-ps3-elf/lib/libc.a(lib_a-s_fpclassify.o)
 .gnu.attributes
                0x0000000000000070       0x10 /usr/local/ps3dev/ppu/lib/gcc/powerpc64-ps3-elf/7.2.0/../../../../powerpc64-ps3-elf/lib/libc.a(lib_a-strtod.o)
 .gnu.attributes
                0x0000000000000080       0x10 /usr/local/ps3dev/ppu/lib/gcc/powerpc64-ps3-elf/7.2.0/../../../../powerpc64-ps3-elf/lib/libc.a(lib_a-svfprintf.o)

/DISCARD/
 *(.note.GNU-stack)
 *(.gnu_debuglink)
LOAD /usr/local/ps3dev/ppu/lib/gcc/powerpc64-ps3-elf/7.2.0/../../../../powerpc64-ps3-elf/lib/lv2-crti.o
LOAD /usr/local/ps3dev/ppu/lib/gcc/powerpc64-ps3-elf/7.2.0/crtbegin.o
LOAD /usr/local/ps3dev/ppu/lib/gcc/powerpc64-ps3-elf/7.2.0/../../../../powerpc64-ps3-elf/lib/lv2-crt0.o
LOAD /usr/local/ps3dev/ppu/lib/gcc/powerpc64-ps3-elf/7.2.0/../../../../powerpc64-ps3-elf/lib/lv2-sprx.o
LOAD main.o
LOAD rsxutil.o
LOAD /usr/local/ps3dev/ppu/lib/libgcm_sys.a
LOAD /usr/local/ps3dev/ppu/lib/librsx.a
LOAD /usr/local/ps3dev/ppu/lib/libsysutil.a
LOAD /usr/local/ps3dev/ppu/lib/libio.a
LOAD /usr/local/ps3dev/portlibs/ppu/lib/libcairo.a
LOAD /usr/local/ps3dev/ppu/lib/gcc/powerpc64-ps3-elf/7.2.0/../../../../powerpc64-ps3-elf/lib/libm.a
LOAD /usr/local/ps3dev/portlibs/ppu/lib/libfreetype.a
LOAD /usr/local/ps3dev/portlibs/ppu/lib/libz.a
LOAD /usr/local/ps3dev/portlibs/ppu/lib/libpixman-1.a
LOAD /usr/local/ps3dev/ppu/lib/librt.a
LOAD /usr/local/ps3dev/ppu/lib/liblv2.a
LOAD /usr/local/ps3dev/ppu/lib/gcc/powerpc64-ps3-elf/7.2.0/libgcc.a
START GROUP
LOAD /usr/local/ps3dev/ppu/lib/gcc/powerpc64-ps3-elf/7.2.0/../../../../powerpc64-ps3-elf/lib/libsysbase.a
LOAD /usr/local/ps3dev/ppu/lib/gcc/powerpc64-ps3-elf/7.2.0/../../../../powerpc64-ps3-elf/lib/libc.a
LOAD /usr/local/ps3dev/ppu/lib/librt.a
LOAD /usr/local/ps3dev/ppu/lib/liblv2.a
END GROUP
LOAD /usr/local/ps3dev/ppu/lib/gcc/powerpc64-ps3-elf/7.2.0/libgcc.a
LOAD /usr/local/ps3dev/ppu/lib/gcc/powerpc64-ps3-elf/7.2.0/crtend.o
LOAD /usr/local/ps3dev/ppu/lib/gcc/powerpc64-ps3-elf/7.2.0/../../../../powerpc64-ps3-elf/lib/lv2-crtn.o
OUTPUT(/home/Allan/DDLC-PS3/V4.20/V4.20.elf elf64-powerpc)
